
UART_v0.elf:     file format elf32-littlenios2
UART_v0.elf
architecture: nios2:r1, flags 0x00000112:
EXEC_P, HAS_SYMS, D_PAGED
start address 0x00000230

Program Header:
    LOAD off    0x00001000 vaddr 0x00000000 paddr 0x00000000 align 2**12
         filesz 0x00000020 memsz 0x00000020 flags r-x
    LOAD off    0x00001020 vaddr 0x00000020 paddr 0x00000020 align 2**12
         filesz 0x0000e678 memsz 0x0000e678 flags r-x
    LOAD off    0x0000f698 vaddr 0x0000e698 paddr 0x00010288 align 2**12
         filesz 0x00001bf0 memsz 0x00001bf0 flags rw-
    LOAD off    0x00011e78 vaddr 0x00011e78 paddr 0x00011e78 align 2**12
         filesz 0x00000000 memsz 0x00000168 flags rw-

Sections:
Idx Name          Size      VMA       LMA       File off  Algn
  0 .entry        00000020  00000000  00000000  00001000  2**5
                  CONTENTS, ALLOC, LOAD, READONLY, CODE
  1 .exceptions   00000210  00000020  00000020  00001020  2**2
                  CONTENTS, ALLOC, LOAD, READONLY, CODE
  2 .text         0000e0c4  00000230  00000230  00001230  2**2
                  CONTENTS, ALLOC, LOAD, READONLY, CODE
  3 .rodata       000003a4  0000e2f4  0000e2f4  0000f2f4  2**2
                  CONTENTS, ALLOC, LOAD, READONLY, DATA
  4 .rwdata       00001bf0  0000e698  00010288  0000f698  2**2
                  CONTENTS, ALLOC, LOAD, DATA, SMALL_DATA
  5 .bss          00000168  00011e78  00011e78  00011e78  2**2
                  ALLOC, SMALL_DATA
  6 .SDRAM        00000000  00011fe0  00011fe0  00011288  2**0
                  CONTENTS
  7 .Onchip_SRAM  00000000  08000000  08000000  00011288  2**0
                  CONTENTS
  8 .VGA_Subsystem_Char_Buf_Subsystem_Onchip_SRAM 00000000  09000000  09000000  00011288  2**0
                  CONTENTS
  9 .comment      00000023  00000000  00000000  00011288  2**0
                  CONTENTS, READONLY
 10 .debug_aranges 00000b18  00000000  00000000  000112b0  2**3
                  CONTENTS, READONLY, DEBUGGING
 11 .debug_info   00015bc7  00000000  00000000  00011dc8  2**0
                  CONTENTS, READONLY, DEBUGGING
 12 .debug_abbrev 00005f72  00000000  00000000  0002798f  2**0
                  CONTENTS, READONLY, DEBUGGING
 13 .debug_line   0000822e  00000000  00000000  0002d901  2**0
                  CONTENTS, READONLY, DEBUGGING
 14 .debug_frame  000017d8  00000000  00000000  00035b30  2**2
                  CONTENTS, READONLY, DEBUGGING
 15 .debug_str    00003439  00000000  00000000  00037308  2**0
                  CONTENTS, READONLY, DEBUGGING
 16 .debug_loc    000151c1  00000000  00000000  0003a741  2**0
                  CONTENTS, READONLY, DEBUGGING
 17 .debug_alt_sim_info 00000040  00000000  00000000  0004f904  2**2
                  CONTENTS, READONLY, DEBUGGING
 18 .debug_ranges 000013c0  00000000  00000000  0004f948  2**3
                  CONTENTS, READONLY, DEBUGGING
 19 .thread_model 00000003  00000000  00000000  00053835  2**0
                  CONTENTS, READONLY
 20 .cpu          00000005  00000000  00000000  00053838  2**0
                  CONTENTS, READONLY
 21 .qsys         00000001  00000000  00000000  0005383d  2**0
                  CONTENTS, READONLY
 22 .simulation_enabled 00000001  00000000  00000000  0005383e  2**0
                  CONTENTS, READONLY
 23 .sysid_hash   00000004  00000000  00000000  0005383f  2**0
                  CONTENTS, READONLY
 24 .sysid_base   00000004  00000000  00000000  00053843  2**0
                  CONTENTS, READONLY
 25 .sysid_time   00000004  00000000  00000000  00053847  2**0
                  CONTENTS, READONLY
 26 .stderr_dev   00000009  00000000  00000000  0005384b  2**0
                  CONTENTS, READONLY
 27 .stdin_dev    00000009  00000000  00000000  00053854  2**0
                  CONTENTS, READONLY
 28 .stdout_dev   00000009  00000000  00000000  0005385d  2**0
                  CONTENTS, READONLY
 29 .sopc_system_name 0000000f  00000000  00000000  00053866  2**0
                  CONTENTS, READONLY
 30 .quartus_project_dir 00000047  00000000  00000000  00053875  2**0
                  CONTENTS, READONLY
 31 .sopcinfo     00106276  00000000  00000000  000538bc  2**0
                  CONTENTS, READONLY
SYMBOL TABLE:
00000000 l    d  .entry	00000000 .entry
00000020 l    d  .exceptions	00000000 .exceptions
00000230 l    d  .text	00000000 .text
0000e2f4 l    d  .rodata	00000000 .rodata
0000e698 l    d  .rwdata	00000000 .rwdata
00011e78 l    d  .bss	00000000 .bss
00011fe0 l    d  .SDRAM	00000000 .SDRAM
08000000 l    d  .Onchip_SRAM	00000000 .Onchip_SRAM
09000000 l    d  .VGA_Subsystem_Char_Buf_Subsystem_Onchip_SRAM	00000000 .VGA_Subsystem_Char_Buf_Subsystem_Onchip_SRAM
00000000 l    d  .comment	00000000 .comment
00000000 l    d  .debug_aranges	00000000 .debug_aranges
00000000 l    d  .debug_info	00000000 .debug_info
00000000 l    d  .debug_abbrev	00000000 .debug_abbrev
00000000 l    d  .debug_line	00000000 .debug_line
00000000 l    d  .debug_frame	00000000 .debug_frame
00000000 l    d  .debug_str	00000000 .debug_str
00000000 l    d  .debug_loc	00000000 .debug_loc
00000000 l    d  .debug_alt_sim_info	00000000 .debug_alt_sim_info
00000000 l    d  .debug_ranges	00000000 .debug_ranges
00000000 l    df *ABS*	00000000 ../UART_v0_bsp//obj/HAL/src/crt0.o
00000268 l       .text	00000000 alt_after_alt_main
00000000 l    df *ABS*	00000000 alt_irq_handler.c
00000000 l    df *ABS*	00000000 alt_instruction_exception_entry.c
00000000 l    df *ABS*	00000000 UART_Test_0.c
00000000 l    df *ABS*	00000000 lib2-mul.c
00000000 l    df *ABS*	00000000 snprintf.c
00000000 l    df *ABS*	00000000 vfprintf.c
0000e362 l     O .rodata	00000010 zeroes.4389
0000e372 l     O .rodata	00000010 blanks.4388
00000000 l    df *ABS*	00000000 dtoa.c
00002a00 l     F .text	00000228 quorem
00000000 l    df *ABS*	00000000 impure.c
0000e698 l     O .rwdata	00000424 impure_data
00000000 l    df *ABS*	00000000 locale.c
0000eadc l     O .rwdata	00000020 lc_ctype_charset
0000eabc l     O .rwdata	00000020 lc_message_charset
0000eafc l     O .rwdata	00000038 lconv
00000000 l    df *ABS*	00000000 mallocr.c
00000000 l    df *ABS*	00000000 memchr.c
00000000 l    df *ABS*	00000000 memcpy.c
00000000 l    df *ABS*	00000000 mprec.c
0000e3a4 l     O .rodata	0000000c p05.2768
00000000 l    df *ABS*	00000000 s_fpclassify.c
00000000 l    df *ABS*	00000000 sbrkr.c
00000000 l    df *ABS*	00000000 strcmp.c
00000000 l    df *ABS*	00000000 strlen.c
00000000 l    df *ABS*	00000000 vfprintf.c
0000e4c8 l     O .rodata	00000010 zeroes.4333
0000e4d8 l     O .rodata	00000010 blanks.4332
00000000 l    df *ABS*	00000000 mallocr.c
00000000 l    df *ABS*	00000000 mallocr.c
00000000 l    df *ABS*	00000000 int_errno.c
00000000 l    df *ABS*	00000000 memmove.c
00000000 l    df *ABS*	00000000 memset.c
00000000 l    df *ABS*	00000000 mallocr.c
00000000 l    df *ABS*	00000000 libgcc2.c
00000000 l    df *ABS*	00000000 libgcc2.c
00000000 l    df *ABS*	00000000 lib2-divmod.c
00000000 l    df *ABS*	00000000 adddf3.c
00000000 l    df *ABS*	00000000 divdf3.c
00000000 l    df *ABS*	00000000 eqdf2.c
00000000 l    df *ABS*	00000000 gedf2.c
00000000 l    df *ABS*	00000000 ledf2.c
00000000 l    df *ABS*	00000000 muldf3.c
00000000 l    df *ABS*	00000000 subdf3.c
00000000 l    df *ABS*	00000000 fixdfsi.c
00000000 l    df *ABS*	00000000 floatsidf.c
00000000 l    df *ABS*	00000000 floatunsidf.c
00000000 l    df *ABS*	00000000 libgcc2.c
00000000 l    df *ABS*	00000000 libgcc2.c
00000000 l    df *ABS*	00000000 alt_load.c
0000b938 l     F .text	00000068 alt_load_section
00000000 l    df *ABS*	00000000 alt_main.c
00000000 l    df *ABS*	00000000 alt_malloc_lock.c
00000000 l    df *ABS*	00000000 alt_sbrk.c
00010260 l     O .rwdata	00000004 heap_end
00000000 l    df *ABS*	00000000 alt_usleep.c
00000000 l    df *ABS*	00000000 alt_sys_init.c
0000bbc8 l     F .text	00000034 alt_dev_reg
0000ef3c l     O .rwdata	00001060 JTAG_UART
0000ff9c l     O .rwdata	0000005c VGA_Subsystem_Char_Buf_Subsystem_Char_Buf_DMA
0000fff8 l     O .rwdata	0000005c VGA_Subsystem_VGA_Pixel_DMA
00010054 l     O .rwdata	00000044 VGA_Subsystem_VGA_Pixel_RGB_Resampler
00000000 l    df *ABS*	00000000 altera_avalon_jtag_uart_fd.c
00000000 l    df *ABS*	00000000 altera_avalon_jtag_uart_init.c
0000c4bc l     F .text	0000020c altera_avalon_jtag_uart_irq
0000c6c8 l     F .text	000000a0 altera_avalon_jtag_uart_timeout
00000000 l    df *ABS*	00000000 altera_avalon_jtag_uart_ioctl.c
00000000 l    df *ABS*	00000000 altera_avalon_jtag_uart_read.c
00000000 l    df *ABS*	00000000 altera_avalon_jtag_uart_write.c
00000000 l    df *ABS*	00000000 altera_avalon_timer_sc.c
0000cd00 l     F .text	00000078 alt_avalon_timer_sc_irq
00000000 l    df *ABS*	00000000 alt_alarm_start.c
00000000 l    df *ABS*	00000000 alt_busy_sleep.c
00000000 l    df *ABS*	00000000 alt_close.c
0000d078 l     F .text	0000003c alt_get_errno
00000000 l    df *ABS*	00000000 alt_dcache_flush_all.c
00000000 l    df *ABS*	00000000 alt_dev.c
0000d1ac l     F .text	0000002c alt_dev_null_write
00000000 l    df *ABS*	00000000 alt_dev_llist_insert.c
0000d1d8 l     F .text	0000003c alt_get_errno
00000000 l    df *ABS*	00000000 alt_do_ctors.c
00000000 l    df *ABS*	00000000 alt_do_dtors.c
00000000 l    df *ABS*	00000000 alt_errno.c
00000000 l    df *ABS*	00000000 alt_icache_flush_all.c
00000000 l    df *ABS*	00000000 alt_iic.c
00000000 l    df *ABS*	00000000 alt_iic_isr_register.c
00000000 l    df *ABS*	00000000 alt_io_redirect.c
0000d638 l     F .text	000000e4 alt_open_fd
00000000 l    df *ABS*	00000000 alt_irq_vars.c
00000000 l    df *ABS*	00000000 alt_open.c
0000d798 l     F .text	0000003c alt_get_errno
0000d7d4 l     F .text	000000ec alt_file_locked
00000000 l    df *ABS*	00000000 alt_release_fd.c
00000000 l    df *ABS*	00000000 alt_tick.c
00000000 l    df *ABS*	00000000 altera_nios2_gen2_irq.c
00000000 l    df *ABS*	00000000 alt_find_dev.c
00000000 l    df *ABS*	00000000 alt_find_file.c
00000000 l    df *ABS*	00000000 alt_get_fd.c
00000000 l    df *ABS*	00000000 atexit.c
00000000 l    df *ABS*	00000000 exit.c
00000000 l    df *ABS*	00000000 memcmp.c
00000000 l    df *ABS*	00000000 __atexit.c
00000000 l    df *ABS*	00000000 __call_atexit.c
00000000 l    df *ABS*	00000000 alt_exit.c
00011eb4 g     O .bss	00000004 alt_instruction_exception_handler
00005d04 g     F .text	00000074 _mprec_log10
00005df0 g     F .text	0000008c __any_on
0000e3b0 g     O .rodata	00000028 __mprec_tinytens
0000ba24 g     F .text	0000007c alt_main
00011ee0 g     O .bss	00000100 alt_irq
00010288 g       *ABS*	00000000 __flash_rwdata_start
0000a310 g     F .text	00000088 .hidden __eqdf2
00011fe0 g       *ABS*	00000000 __alt_heap_start
000042b0 g     F .text	0000007c _setlocale_r
0000bac4 g     F .text	00000024 __malloc_unlock
00007b38 g     F .text	0000015c memmove
00000660 g     F .text	000000e4 snprintf
00004dc4 g     F .text	000000a8 _Balloc
0000a398 g     F .text	000000dc .hidden __gtdf2
0000dc44 g     F .text	00000024 altera_nios2_gen2_irq_init
00000000 g     F .entry	0000000c __reset
00000020 g       *ABS*	00000000 __flash_exceptions_start
00011e98 g     O .bss	00000004 errno
00006288 g     F .text	000013a0 ___svfiprintf_internal_r
00011ea0 g     O .bss	00000004 alt_argv
00018240 g       *ABS*	00000000 _gp
0000bb98 g     F .text	00000030 usleep
000100c0 g     O .rwdata	00000180 alt_fd_list
0000dc68 g     F .text	00000090 alt_find_dev
00004c7c g     F .text	00000148 memcpy
0000b750 g     F .text	000000dc .hidden __floatsidf
0000d71c g     F .text	0000007c alt_io_redirect
0000a474 g     F .text	000000f4 .hidden __ltdf2
0000e2f4 g       *ABS*	00000000 __DTOR_END__
0000dec4 g     F .text	0000009c alt_exception_cause_generated_bad_addr
00005e7c g     F .text	00000074 __fpclassifyd
00005c60 g     F .text	000000a4 __ratio
0000c8c0 g     F .text	0000021c altera_avalon_jtag_uart_read
00008fd8 g     F .text	00000064 .hidden __udivsi3
0000e400 g     O .rodata	000000c8 __mprec_tens
0000432c g     F .text	0000000c __locale_charset
00011e94 g     O .bss	00000004 __malloc_top_pad
00010254 g     O .rwdata	00000004 __mb_cur_max
0000026c g     F .text	00000060 send_ascii
0000435c g     F .text	0000000c _localeconv_r
000051f8 g     F .text	0000003c __i2b
00005ef0 g     F .text	00000054 _sbrk_r
00010274 g     O .rwdata	00000004 alt_max_fd
00011e90 g     O .bss	00000004 __malloc_max_sbrked_mem
00009094 g     F .text	000008ac .hidden __adddf3
00005a08 g     F .text	0000010c __b2d
0000891c g     F .text	000005c4 .hidden __umoddi3
0001024c g     O .rwdata	00000004 _global_impure_ptr
00007dbc g     F .text	00000564 _realloc_r
00011fe0 g       *ABS*	00000000 __bss_end
0000d548 g     F .text	000000f0 alt_iic_isr_register
0000db3c g     F .text	00000108 alt_tick
00008320 g     F .text	000005fc .hidden __udivdi3
0000e3d8 g     O .rodata	00000028 __mprec_bigtens
00004fdc g     F .text	00000104 __s2b
0000b82c g     F .text	000000a8 .hidden __floatunsidf
00005748 g     F .text	00000060 __mcmp
0000d4fc g     F .text	0000004c alt_ic_irq_enabled
0000daa0 g     F .text	0000009c alt_alarm_stop
00011ea8 g     O .bss	00000004 alt_irq_active
000000fc g     F .exceptions	000000d4 alt_irq_handler
00010098 g     O .rwdata	00000028 alt_dev_null
0000d18c g     F .text	00000020 alt_dcache_flush_all
000050e0 g     F .text	00000068 __hi0bits
0000b6d0 g     F .text	00000080 .hidden __fixdfsi
00010288 g       *ABS*	00000000 __ram_rwdata_end
0001026c g     O .rwdata	00000008 alt_dev_list
0000e698 g       *ABS*	00000000 __ram_rodata_end
00000000 g       *ABS*	00000000 __alt_mem_SDRAM
0000a474 g     F .text	000000f4 .hidden __ledf2
000054c0 g     F .text	00000140 __pow5mult
00011e88 g     O .bss	00000004 __nlocale_changed
0000903c g     F .text	00000058 .hidden __umodsi3
00011fe0 g       *ABS*	00000000 end
0000c3fc g     F .text	000000c0 altera_avalon_jtag_uart_init
000001d0 g     F .exceptions	00000060 alt_instruction_exception_entry
0000e2f4 g       *ABS*	00000000 __CTOR_LIST__
04000000 g       *ABS*	00000000 __alt_stack_pointer
0000cd78 g     F .text	0000007c alt_avalon_timer_sc_init
0000b8d4 g     F .text	00000064 .hidden __clzsi2
00000588 g     F .text	000000d8 _snprintf_r
0000cadc g     F .text	00000224 altera_avalon_jtag_uart_write
00004b98 g     F .text	000000e4 memchr
00007828 g     F .text	00000310 _free_r
00004338 g     F .text	00000010 __locale_mb_cur_max
0000e140 g     F .text	00000180 __call_exitprocs
00011e84 g     O .bss	00000004 __mlocale_changed
00010258 g     O .rwdata	00000004 __malloc_sbrk_base
00000230 g     F .text	0000003c _start
00011eac g     O .bss	00000004 _alt_tick_rate
00005600 g     F .text	00000148 __lshift
00011eb0 g     O .bss	00000004 _alt_nticks
0000bc34 g     F .text	00000664 alt_sys_init
000060b8 g     F .text	000001d0 __ssprint_r
0000e028 g     F .text	00000118 __register_exitproc
00005234 g     F .text	0000028c __multiply
0000c768 g     F .text	00000068 altera_avalon_jtag_uart_close
00000560 g     F .text	00000028 .hidden __mulsi3
0000e698 g       *ABS*	00000000 __ram_rwdata_start
0000e2f4 g       *ABS*	00000000 __ram_rodata_start
00011eb8 g     O .bss	00000028 __malloc_current_mallinfo
00005b14 g     F .text	0000014c __d2b
0000c298 g     F .text	00000060 altera_avalon_jtag_uart_read_fd
0000de00 g     F .text	000000c4 alt_get_fd
0000cf20 g     F .text	00000158 alt_busy_sleep
00011e7c g     O .bss	00000004 angle
0000dfac g     F .text	0000007c memcmp
0000c358 g     F .text	00000050 altera_avalon_jtag_uart_close_fd
00011fe0 g       *ABS*	00000000 __alt_stack_base
0000c3a8 g     F .text	00000054 altera_avalon_jtag_uart_ioctl_fd
000003e4 g     F .text	00000100 Maj_Affichage
00009940 g     F .text	000009d0 .hidden __divdf3
00005d78 g     F .text	00000078 __copybits
0000eb34 g     O .rwdata	00000408 __malloc_av_
0000a568 g     F .text	0000086c .hidden __muldf3
0000dcf8 g     F .text	00000108 alt_find_file
0000d214 g     F .text	000000a4 alt_dev_llist_insert
0000baa0 g     F .text	00000024 __malloc_lock
0000bae8 g     F .text	000000b0 sbrk
00000744 g     F .text	000022bc ___svfprintf_internal_r
00007628 g     F .text	000000dc _calloc_r
00011e78 g       *ABS*	00000000 __bss_start
00007c94 g     F .text	00000128 memset
000004e4 g     F .text	0000007c main
00011ea4 g     O .bss	00000004 alt_envp
00011e8c g     O .bss	00000004 __malloc_max_total_mem
0000c2f8 g     F .text	00000060 altera_avalon_jtag_uart_write_fd
04000000 g       *ABS*	00000000 __alt_heap_limit
00002c28 g     F .text	00001688 _dtoa_r
0000438c g     F .text	0000080c _malloc_r
00010278 g     O .rwdata	00000004 alt_errno
00008ee0 g     F .text	00000084 .hidden __divsi3
00007704 g     F .text	00000124 _malloc_trim_r
0000e2f4 g       *ABS*	00000000 __CTOR_END__
00005f44 g     F .text	000000dc strcmp
00011e78 g     O .bss	00000004 angle_min
0000e2f4 g       *ABS*	00000000 __flash_rodata_start
0000e2f4 g       *ABS*	00000000 __DTOR_LIST__
00010240 g     O .rwdata	00000004 delay
0000a310 g     F .text	00000088 .hidden __nedf2
000003a0 g     F .text	00000044 RD_Ascii
0000bbfc g     F .text	00000038 alt_irq_init
0000da1c g     F .text	00000084 alt_release_fd
00010248 g     O .rwdata	00000004 vitesse
0000e4e8 g     O .rodata	00000100 .hidden __clz_tab
00011e80 g     O .bss	00000004 _PathLocale
0000df60 g     F .text	00000014 atexit
00004368 g     F .text	00000018 setlocale
00010250 g     O .rwdata	00000004 _impure_ptr
00011e9c g     O .bss	00000004 alt_argc
0000d318 g     F .text	00000060 _do_dtors
00004354 g     F .text	00000008 __locale_cjk_lang
09000000 g       *ABS*	00000000 __alt_mem_VGA_Subsystem_Char_Buf_Subsystem_Onchip_SRAM
00000020 g       .exceptions	00000000 alt_irq_entry
000002cc g     F .text	000000d4 send_word_with_count
000059a4 g     F .text	00000064 __ulp
00010264 g     O .rwdata	00000008 alt_fs_list
00010244 g     O .rwdata	00000004 angle_max
00000020 g       *ABS*	00000000 __ram_exceptions_start
00004380 g     F .text	0000000c localeconv
0000d398 g     F .text	00000050 alt_ic_isr_register
00010288 g       *ABS*	00000000 _edata
00011fe0 g       *ABS*	00000000 _end
00000230 g       *ABS*	00000000 __ram_exceptions_end
0000c7d0 g     F .text	000000f0 altera_avalon_jtag_uart_ioctl
08000000 g       *ABS*	00000000 __alt_mem_Onchip_SRAM
0000d470 g     F .text	0000008c alt_ic_irq_disable
0001025c g     O .rwdata	00000004 __malloc_trim_threshold
00004348 g     F .text	0000000c __locale_msgcharset
0000df74 g     F .text	00000038 exit
000057a8 g     F .text	000001fc __mdiff
00008f64 g     F .text	00000074 .hidden __modsi3
04000000 g       *ABS*	00000000 __alt_data_end
00000020 g     F .exceptions	00000000 alt_exception
0000e2c0 g     F .text	00000034 _exit
0000cdf4 g     F .text	0000012c alt_alarm_start
00006020 g     F .text	00000098 strlen
0000d8c0 g     F .text	0000015c open
0000a398 g     F .text	000000dc .hidden __gedf2
0000d378 g     F .text	00000020 alt_icache_flush_all
0001027c g     O .rwdata	00000004 alt_priority_mask
0000d3e8 g     F .text	00000088 alt_ic_irq_enable
0000add4 g     F .text	000008fc .hidden __subdf3
00005148 g     F .text	000000b0 __lo0bits
00010280 g     O .rwdata	00000008 alt_alarm_list
0000d2b8 g     F .text	00000060 _do_ctors
0000d0b4 g     F .text	000000d8 close
0000b9a0 g     F .text	00000084 alt_load
00004e94 g     F .text	00000148 __multadd
00004e6c g     F .text	00000028 _Bfree



Disassembly of section .entry:

00000000 <__reset>:
 * Jump to the _start entry point in the .text section if reset code
 * is allowed or if optimizing for RTL simulation.
 */
#if defined(ALT_ALLOW_CODE_AT_RESET) || defined(ALT_SIM_OPTIMIZE)
    /* Jump to the _start entry point in the .text section. */
    movhi r1, %hi(_start)
   0:	00400034 	movhi	at,0
    ori r1, r1, %lo(_start)
   4:	08408c14 	ori	at,at,560
    jmp r1
   8:	0800683a 	jmp	at
	...

Disassembly of section .exceptions:

00000020 <alt_exception>:

#else /* ALT_EXCEPTION_STACK disabled */
        /* 
         * Reserve space on normal stack for registers about to be pushed.
         */
        addi  sp, sp, -76
  20:	deffed04 	addi	sp,sp,-76
         * documentation for details).
         *
         * Leave a gap in the stack frame at 4(sp) for the muldiv handler to
         * store zero into.
         */
        stw   ra,  0(sp)
  24:	dfc00015 	stw	ra,0(sp)
        stw   r1,   8(sp)
  28:	d8400215 	stw	at,8(sp)
        stw   r2,  12(sp)
  2c:	d8800315 	stw	r2,12(sp)
        stw   r3,  16(sp)
  30:	d8c00415 	stw	r3,16(sp)
        stw   r4,  20(sp)
  34:	d9000515 	stw	r4,20(sp)
        stw   r5,  24(sp)
  38:	d9400615 	stw	r5,24(sp)
        stw   r6,  28(sp)
  3c:	d9800715 	stw	r6,28(sp)
        stw   r7,  32(sp)
  40:	d9c00815 	stw	r7,32(sp)
        rdctl r5, estatus   /* Read early to avoid usage stall */
  44:	000b307a 	rdctl	r5,estatus
        stw   r8,  36(sp)
  48:	da000915 	stw	r8,36(sp)
        stw   r9,  40(sp)
  4c:	da400a15 	stw	r9,40(sp)
        stw   r10, 44(sp)
  50:	da800b15 	stw	r10,44(sp)
        stw   r11, 48(sp)
  54:	dac00c15 	stw	r11,48(sp)
        stw   r12, 52(sp)
  58:	db000d15 	stw	r12,52(sp)
        stw   r13, 56(sp)
  5c:	db400e15 	stw	r13,56(sp)
        stw   r14, 60(sp)
  60:	db800f15 	stw	r14,60(sp)
        stw   r15, 64(sp)
  64:	dbc01015 	stw	r15,64(sp)
        /*
         * ea-4 contains the address of the instruction being executed
         * when the exception occured. For interrupt exceptions, we will
         * will be re-issue the isntruction. Store it in 72(sp)
         */
        stw   r5,  68(sp)  /* estatus */
  68:	d9401115 	stw	r5,68(sp)
        addi  r15, ea, -4  /* instruction that caused exception */
  6c:	ebffff04 	addi	r15,ea,-4
        stw   r15,  72(sp)
  70:	dbc01215 	stw	r15,72(sp)
#else
        /*
         * Test to see if the exception was a software exception or caused 
         * by an external interrupt, and vector accordingly.
         */
        rdctl r4, ipending
  74:	0009313a 	rdctl	r4,ipending
        andi  r2, r5, 1
  78:	2880004c 	andi	r2,r5,1
        beq   r2, zero, .Lnot_irq
  7c:	10000326 	beq	r2,zero,8c <alt_exception+0x6c>
        beq   r4, zero, .Lnot_irq
  80:	20000226 	beq	r4,zero,8c <alt_exception+0x6c>
        /*
         * Now that all necessary registers have been preserved, call 
         * alt_irq_handler() to process the interrupts.
         */

        call alt_irq_handler
  84:	00000fc0 	call	fc <alt_irq_handler>

        .section .exceptions.irqreturn, "xa"

        br    .Lexception_exit
  88:	00000706 	br	a8 <alt_exception+0x88>
         * upon completion, so we write ea (address of instruction *after*
         * the one where the exception occured) into 72(sp). The actual
         * instruction that caused the exception is written in r2, which these
         * handlers will utilize.
         */
        stw ea, 72(sp) /* EA is PC+4 so will skip over instruction causing exception */
  8c:	df401215 	stw	ea,72(sp)
.Lunknown_16bit:
        addi.n r4, r4, 2 /* Need PC+2 to skip over instruction causing exception */
        stw r4, 72(sp)

#else /* CDX is not Enabled and all instructions are 32bits */
        ldw r2, -4(ea) /* Instruction value that caused exception */
  90:	e8bfff17 	ldw	r2,-4(ea)
         * debugger is present) or go into an infinite loop since the
         * handling behavior is undefined; in that case we will not return here.
         */

        /* Load exception-causing address as first argument (r4) */
        addi   r4, ea, -4
  94:	e93fff04 	addi	r4,ea,-4

        /* Call the instruction-exception entry */
        call   alt_instruction_exception_entry
  98:	00001d00 	call	1d0 <alt_instruction_exception_entry>
         * instruction
         *
         * Return code was 0: Skip. The instruction after the exception is
         * already stored in 72(sp).
         */
        bne   r2, r0, .Lexception_exit
  9c:	1000021e 	bne	r2,zero,a8 <alt_exception+0x88>

        /*
         * Otherwise, modify 72(sp) to re-issue the instruction that caused the
         * exception.
         */
        addi  r15, ea, -4  /* instruction that caused exception */
  a0:	ebffff04 	addi	r15,ea,-4
        stw   r15,  72(sp)
  a4:	dbc01215 	stw	r15,72(sp)
        /* 
         * Restore the saved registers, so that all general purpose registers 
         * have been restored to their state at the time the interrupt occured.
         */

        ldw   r5,  68(sp)
  a8:	d9401117 	ldw	r5,68(sp)
        ldw   ea,  72(sp)  /* This becomes the PC once eret is executed */
  ac:	df401217 	ldw	ea,72(sp)
        ldw   ra,   0(sp)
  b0:	dfc00017 	ldw	ra,0(sp)

        wrctl estatus, r5
  b4:	2801707a 	wrctl	estatus,r5

        ldw   r1,   8(sp)
  b8:	d8400217 	ldw	at,8(sp)
        ldw   r2,  12(sp)
  bc:	d8800317 	ldw	r2,12(sp)
        ldw   r3,  16(sp)
  c0:	d8c00417 	ldw	r3,16(sp)
        ldw   r4,  20(sp)
  c4:	d9000517 	ldw	r4,20(sp)
        ldw   r5,  24(sp)
  c8:	d9400617 	ldw	r5,24(sp)
        ldw   r6,  28(sp)
  cc:	d9800717 	ldw	r6,28(sp)
        ldw   r7,  32(sp)
  d0:	d9c00817 	ldw	r7,32(sp)

#if defined(ALT_EXCEPTION_STACK) && defined(ALT_STACK_CHECK)
        ldw   et, %gprel(alt_exception_old_stack_limit)(gp)
#endif

        ldw   r8,  36(sp)
  d4:	da000917 	ldw	r8,36(sp)
        ldw   r9,  40(sp)
  d8:	da400a17 	ldw	r9,40(sp)
        ldw   r10, 44(sp)
  dc:	da800b17 	ldw	r10,44(sp)
        ldw   r11, 48(sp)
  e0:	dac00c17 	ldw	r11,48(sp)
        ldw   r12, 52(sp)
  e4:	db000d17 	ldw	r12,52(sp)
        ldw   r13, 56(sp)
  e8:	db400e17 	ldw	r13,56(sp)
        ldw   r14, 60(sp)
  ec:	db800f17 	ldw	r14,60(sp)
        ldw   r15, 64(sp)
  f0:	dbc01017 	ldw	r15,64(sp)
        stw   et, %gprel(alt_stack_limit_value)(gp)
        stw   zero, %gprel(alt_exception_old_stack_limit)(gp)
#endif /* ALT_STACK_CHECK */
        ldw   sp,  76(sp)
#else /* ALT_EXCEPTION_STACK disabled */
        addi  sp, sp, 76
  f4:	dec01304 	addi	sp,sp,76

        /*
         * Return to the interrupted instruction.
         */

        eret
  f8:	ef80083a 	eret

000000fc <alt_irq_handler>:
 * instruction is present if the macro ALT_CI_INTERRUPT_VECTOR defined.
 */

void alt_irq_handler (void) __attribute__ ((section (".exceptions")));
void alt_irq_handler (void)
{
  fc:	defff904 	addi	sp,sp,-28
 100:	dfc00615 	stw	ra,24(sp)
 104:	df000515 	stw	fp,20(sp)
 108:	df000504 	addi	fp,sp,20
  
  /*
   * Notify the operating system that we are at interrupt level.
   */ 
  
  ALT_OS_INT_ENTER();
 10c:	0001883a 	nop
#ifndef NIOS2_EIC_PRESENT
static ALT_INLINE alt_u32 ALT_ALWAYS_INLINE alt_irq_pending (void)
{
  alt_u32 active;

  NIOS2_READ_IPENDING (active);
 110:	0005313a 	rdctl	r2,ipending
 114:	e0bffe15 	stw	r2,-8(fp)

  return active;
 118:	e0bffe17 	ldw	r2,-8(fp)
   * Consider the case where the high priority interupt is asserted during
   * the interrupt entry sequence for a lower priority interrupt to see why
   * this is the case.
   */

  active = alt_irq_pending ();
 11c:	e0bffb15 	stw	r2,-20(fp)

  do
  {
    i = 0;
 120:	e03ffd15 	stw	zero,-12(fp)
    mask = 1;
 124:	00800044 	movi	r2,1
 128:	e0bffc15 	stw	r2,-16(fp)
     * called to clear the interrupt condition.
     */

    do
    {
      if (active & mask)
 12c:	e0fffb17 	ldw	r3,-20(fp)
 130:	e0bffc17 	ldw	r2,-16(fp)
 134:	1884703a 	and	r2,r3,r2
 138:	10001426 	beq	r2,zero,18c <alt_irq_handler+0x90>
      { 
#ifdef ALT_ENHANCED_INTERRUPT_API_PRESENT
        alt_irq[i].handler(alt_irq[i].context); 
 13c:	00800074 	movhi	r2,1
 140:	1087b804 	addi	r2,r2,7904
 144:	e0fffd17 	ldw	r3,-12(fp)
 148:	180690fa 	slli	r3,r3,3
 14c:	10c5883a 	add	r2,r2,r3
 150:	10c00017 	ldw	r3,0(r2)
 154:	00800074 	movhi	r2,1
 158:	1087b804 	addi	r2,r2,7904
 15c:	e13ffd17 	ldw	r4,-12(fp)
 160:	200890fa 	slli	r4,r4,3
 164:	1105883a 	add	r2,r2,r4
 168:	10800104 	addi	r2,r2,4
 16c:	10800017 	ldw	r2,0(r2)
 170:	1009883a 	mov	r4,r2
 174:	183ee83a 	callr	r3
#else
        alt_irq[i].handler(alt_irq[i].context, i); 
#endif
        break;
 178:	0001883a 	nop
#ifndef NIOS2_EIC_PRESENT
static ALT_INLINE alt_u32 ALT_ALWAYS_INLINE alt_irq_pending (void)
{
  alt_u32 active;

  NIOS2_READ_IPENDING (active);
 17c:	0005313a 	rdctl	r2,ipending
 180:	e0bfff15 	stw	r2,-4(fp)

  return active;
 184:	e0bfff17 	ldw	r2,-4(fp)
 188:	00000706 	br	1a8 <alt_irq_handler+0xac>
      }
      mask <<= 1;
 18c:	e0bffc17 	ldw	r2,-16(fp)
 190:	1085883a 	add	r2,r2,r2
 194:	e0bffc15 	stw	r2,-16(fp)
      i++;
 198:	e0bffd17 	ldw	r2,-12(fp)
 19c:	10800044 	addi	r2,r2,1
 1a0:	e0bffd15 	stw	r2,-12(fp)

    } while (1);
 1a4:	003fe106 	br	12c <__alt_mem_VGA_Subsystem_Char_Buf_Subsystem_Onchip_SRAM+0xf700012c>

    active = alt_irq_pending ();
 1a8:	e0bffb15 	stw	r2,-20(fp)
    
  } while (active);
 1ac:	e0bffb17 	ldw	r2,-20(fp)
 1b0:	103fdb1e 	bne	r2,zero,120 <__alt_mem_VGA_Subsystem_Char_Buf_Subsystem_Onchip_SRAM+0xf7000120>

  /*
   * Notify the operating system that interrupt processing is complete.
   */ 

  ALT_OS_INT_EXIT();
 1b4:	0001883a 	nop
}
 1b8:	0001883a 	nop
 1bc:	e037883a 	mov	sp,fp
 1c0:	dfc00117 	ldw	ra,4(sp)
 1c4:	df000017 	ldw	fp,0(sp)
 1c8:	dec00204 	addi	sp,sp,8
 1cc:	f800283a 	ret

000001d0 <alt_instruction_exception_entry>:
 * that handler if it has been registered. Absent a handler, it will
 * break break or hang as discussed below.
 */
int 
alt_instruction_exception_entry (alt_u32 exception_pc)
{
 1d0:	defffb04 	addi	sp,sp,-20
 1d4:	dfc00415 	stw	ra,16(sp)
 1d8:	df000315 	stw	fp,12(sp)
 1dc:	df000304 	addi	fp,sp,12
 1e0:	e13fff15 	stw	r4,-4(fp)
  cause = ( (cause & NIOS2_EXCEPTION_REG_CAUSE_MASK) >>
              NIOS2_EXCEPTION_REG_CAUSE_OFST );

  NIOS2_READ_BADADDR(badaddr);
#else
  cause = NIOS2_EXCEPTION_CAUSE_NOT_PRESENT;
 1e4:	00bfffc4 	movi	r2,-1
 1e8:	e0bffd15 	stw	r2,-12(fp)
  badaddr = 0;
 1ec:	e03ffe15 	stw	zero,-8(fp)
#endif /* NIOS2_HAS_EXTRA_EXCEPTION_INFO */

  if(alt_instruction_exception_handler) {
 1f0:	d0a71d17 	ldw	r2,-25484(gp)
 1f4:	10000726 	beq	r2,zero,214 <alt_instruction_exception_entry+0x44>
     * Call handler. Its return value indicates whether the exception-causing
     * instruction should be re-issued. The code that called us,
     * alt_eceptions_entry.S, will look at this value and adjust the ea
     * register as necessary
     */
    return alt_instruction_exception_handler(cause, exception_pc, badaddr);
 1f8:	d0a71d17 	ldw	r2,-25484(gp)
 1fc:	e0fffd17 	ldw	r3,-12(fp)
 200:	e1bffe17 	ldw	r6,-8(fp)
 204:	e17fff17 	ldw	r5,-4(fp)
 208:	1809883a 	mov	r4,r3
 20c:	103ee83a 	callr	r2
 210:	00000206 	br	21c <alt_instruction_exception_entry+0x4c>
   *    (a peripheral which negates its interrupt output before its
   *    interrupt handler has been executed will cause spurious interrupts)
   */
  else {
#ifdef NIOS2_HAS_DEBUG_STUB
    NIOS2_BREAK();
 214:	003da03a 	break	0
      ;
#endif /* NIOS2_HAS_DEBUG_STUB */
  }

  /* We should not get here. Remove compiler warning. */
  return NIOS2_EXCEPTION_RETURN_REISSUE_INST;
 218:	0005883a 	mov	r2,zero
}
 21c:	e037883a 	mov	sp,fp
 220:	dfc00117 	ldw	ra,4(sp)
 224:	df000017 	ldw	fp,0(sp)
 228:	dec00204 	addi	sp,sp,8
 22c:	f800283a 	ret

Disassembly of section .text:

00000230 <_start>:

    /*
     * Now that the caches are initialized, set up the stack pointer and global pointer.
     * The values provided by the linker are assumed to be correctly aligned.
     */
    movhi sp, %hi(__alt_stack_pointer)
     230:	06c10034 	movhi	sp,1024
    ori sp, sp, %lo(__alt_stack_pointer)
     234:	dec00014 	ori	sp,sp,0
    movhi gp, %hi(_gp)
     238:	06800074 	movhi	gp,1
    ori gp, gp, %lo(_gp)
     23c:	d6a09014 	ori	gp,gp,33344
 */
#ifndef ALT_SIM_OPTIMIZE
    /* Log that the BSS is about to be cleared. */
    ALT_LOG_PUTS(alt_log_msg_bss)

    movhi r2, %hi(__bss_start)
     240:	00800074 	movhi	r2,1
    ori r2, r2, %lo(__bss_start)
     244:	10879e14 	ori	r2,r2,7800

    movhi r3, %hi(__bss_end)
     248:	00c00074 	movhi	r3,1
    ori r3, r3, %lo(__bss_end)
     24c:	18c7f814 	ori	r3,r3,8160

    beq r2, r3, 1f
     250:	10c00326 	beq	r2,r3,260 <_start+0x30>

0:
    stw zero, (r2)
     254:	10000015 	stw	zero,0(r2)
    addi r2, r2, 4
     258:	10800104 	addi	r2,r2,4
    bltu r2, r3, 0b
     25c:	10fffd36 	bltu	r2,r3,254 <__alt_mem_VGA_Subsystem_Char_Buf_Subsystem_Onchip_SRAM+0xf7000254>
     * section aren't defined until alt_load() has been called).
     */
    mov   et, zero
#endif

    call alt_load
     260:	000b9a00 	call	b9a0 <alt_load>

    /* Log that alt_main is about to be called. */
    ALT_LOG_PUTS(alt_log_msg_alt_main)

    /* Call the C entry point. It should never return. */
    call alt_main
     264:	000ba240 	call	ba24 <alt_main>

00000268 <alt_after_alt_main>:

    /* Wait in infinite loop in case alt_main does return. */
alt_after_alt_main:
    br alt_after_alt_main
     268:	003fff06 	br	268 <__alt_mem_VGA_Subsystem_Char_Buf_Subsystem_Onchip_SRAM+0xf7000268>

0000026c <send_ascii>:
int angle_max = 180;
int angle = 0;
int vitesse = 5;

void send_ascii(int ascii_char)
{
     26c:	defffd04 	addi	sp,sp,-12
     270:	dfc00215 	stw	ra,8(sp)
     274:	df000115 	stw	fp,4(sp)
     278:	df000104 	addi	fp,sp,4
     27c:	e13fff15 	stw	r4,-4(fp)
    IOWR_32DIRECT(UART_BASE, 0x4, ascii_char);
     280:	00810034 	movhi	r2,1024
     284:	10800104 	addi	r2,r2,4
     288:	e0ffff17 	ldw	r3,-4(fp)
     28c:	10c00035 	stwio	r3,0(r2)
    IOWR_32DIRECT(UART_BASE, 0x0, 1);
     290:	00c00044 	movi	r3,1
     294:	00810034 	movhi	r2,1024
     298:	10c00035 	stwio	r3,0(r2)
    usleep(delay);
     29c:	d0a00017 	ldw	r2,-32768(gp)
     2a0:	1009883a 	mov	r4,r2
     2a4:	000bb980 	call	bb98 <usleep>
    IOWR_32DIRECT(UART_BASE, 0x0, 0);
     2a8:	0007883a 	mov	r3,zero
     2ac:	00810034 	movhi	r2,1024
     2b0:	10c00035 	stwio	r3,0(r2)
}
     2b4:	0001883a 	nop
     2b8:	e037883a 	mov	sp,fp
     2bc:	dfc00117 	ldw	ra,4(sp)
     2c0:	df000017 	ldw	fp,0(sp)
     2c4:	dec00204 	addi	sp,sp,8
     2c8:	f800283a 	ret

000002cc <send_word_with_count>:

void send_word_with_count(const char *word, int angle)
{
     2cc:	deffde04 	addi	sp,sp,-136
     2d0:	dfc02115 	stw	ra,132(sp)
     2d4:	df002015 	stw	fp,128(sp)
     2d8:	df002004 	addi	fp,sp,128
     2dc:	e13ffe15 	stw	r4,-8(fp)
     2e0:	e17fff15 	stw	r5,-4(fp)
    char buffer[100];
    snprintf(buffer, sizeof(buffer), "%s %d°   [%d ; %d]  Vitesse: %d", word, angle, angle_min, angle_max, vitesse);
     2e4:	d0a70e17 	ldw	r2,-25544(gp)
     2e8:	d0e00117 	ldw	r3,-32764(gp)
     2ec:	d1200217 	ldw	r4,-32760(gp)
     2f0:	e23fe504 	addi	r8,fp,-108
     2f4:	d9000315 	stw	r4,12(sp)
     2f8:	d8c00215 	stw	r3,8(sp)
     2fc:	d8800115 	stw	r2,4(sp)
     300:	e0bfff17 	ldw	r2,-4(fp)
     304:	d8800015 	stw	r2,0(sp)
     308:	e1fffe17 	ldw	r7,-8(fp)
     30c:	01800074 	movhi	r6,1
     310:	31b8bd04 	addi	r6,r6,-7436
     314:	01401904 	movi	r5,100
     318:	4009883a 	mov	r4,r8
     31c:	00006600 	call	660 <snprintf>

    for (int i = 0; buffer[i] != '\0'; i++)
     320:	e03fe415 	stw	zero,-112(fp)
     324:	00000c06 	br	358 <send_word_with_count+0x8c>
    {
        send_ascii(buffer[i]);
     328:	e0ffe504 	addi	r3,fp,-108
     32c:	e0bfe417 	ldw	r2,-112(fp)
     330:	1885883a 	add	r2,r3,r2
     334:	10800003 	ldbu	r2,0(r2)
     338:	10803fcc 	andi	r2,r2,255
     33c:	1080201c 	xori	r2,r2,128
     340:	10bfe004 	addi	r2,r2,-128
     344:	1009883a 	mov	r4,r2
     348:	000026c0 	call	26c <send_ascii>
void send_word_with_count(const char *word, int angle)
{
    char buffer[100];
    snprintf(buffer, sizeof(buffer), "%s %d°   [%d ; %d]  Vitesse: %d", word, angle, angle_min, angle_max, vitesse);

    for (int i = 0; buffer[i] != '\0'; i++)
     34c:	e0bfe417 	ldw	r2,-112(fp)
     350:	10800044 	addi	r2,r2,1
     354:	e0bfe415 	stw	r2,-112(fp)
     358:	e0ffe504 	addi	r3,fp,-108
     35c:	e0bfe417 	ldw	r2,-112(fp)
     360:	1885883a 	add	r2,r3,r2
     364:	10800003 	ldbu	r2,0(r2)
     368:	10803fcc 	andi	r2,r2,255
     36c:	1080201c 	xori	r2,r2,128
     370:	10bfe004 	addi	r2,r2,-128
     374:	103fec1e 	bne	r2,zero,328 <__alt_mem_VGA_Subsystem_Char_Buf_Subsystem_Onchip_SRAM+0xf7000328>
    {
        send_ascii(buffer[i]);
    }
    usleep(1000);
     378:	0100fa04 	movi	r4,1000
     37c:	000bb980 	call	bb98 <usleep>
    send_ascii(0x0D);
     380:	01000344 	movi	r4,13
     384:	000026c0 	call	26c <send_ascii>
}
     388:	0001883a 	nop
     38c:	e037883a 	mov	sp,fp
     390:	dfc00117 	ldw	ra,4(sp)
     394:	df000017 	ldw	fp,0(sp)
     398:	dec00204 	addi	sp,sp,8
     39c:	f800283a 	ret

000003a0 <RD_Ascii>:

int RD_Ascii()
{
     3a0:	defffe04 	addi	sp,sp,-8
     3a4:	dfc00115 	stw	ra,4(sp)
     3a8:	df000015 	stw	fp,0(sp)
     3ac:	d839883a 	mov	fp,sp
    IOWR_32DIRECT(UART_BASE, 0x0, 0);
     3b0:	0007883a 	mov	r3,zero
     3b4:	00810034 	movhi	r2,1024
     3b8:	10c00035 	stwio	r3,0(r2)
    usleep(1000);
     3bc:	0100fa04 	movi	r4,1000
     3c0:	000bb980 	call	bb98 <usleep>
    return IORD_32DIRECT(UART_BASE, 0x8);
     3c4:	00810034 	movhi	r2,1024
     3c8:	10800204 	addi	r2,r2,8
     3cc:	10800037 	ldwio	r2,0(r2)
}
     3d0:	e037883a 	mov	sp,fp
     3d4:	dfc00117 	ldw	ra,4(sp)
     3d8:	df000017 	ldw	fp,0(sp)
     3dc:	dec00204 	addi	sp,sp,8
     3e0:	f800283a 	ret

000003e4 <Maj_Affichage>:

void Maj_Affichage()
{
     3e4:	defffc04 	addi	sp,sp,-16
     3e8:	dfc00315 	stw	ra,12(sp)
     3ec:	df000215 	stw	fp,8(sp)
     3f0:	df000204 	addi	fp,sp,8
    int received_char = RD_Ascii();		// Lecture instruction a la volee
     3f4:	00003a00 	call	3a0 <RD_Ascii>
     3f8:	e0bffe15 	stw	r2,-8(fp)

    // Maj Vitesse
    if (received_char >= '0' && received_char <= '9')
     3fc:	e0bffe17 	ldw	r2,-8(fp)
     400:	10800c10 	cmplti	r2,r2,48
     404:	10000f1e 	bne	r2,zero,444 <Maj_Affichage+0x60>
     408:	e0bffe17 	ldw	r2,-8(fp)
     40c:	10800e88 	cmpgei	r2,r2,58
     410:	10000c1e 	bne	r2,zero,444 <Maj_Affichage+0x60>
    {
        vitesse = received_char - '0';
     414:	e0bffe17 	ldw	r2,-8(fp)
     418:	10bff404 	addi	r2,r2,-48
     41c:	d0a00215 	stw	r2,-32760(gp)
        if (vitesse < 0) vitesse = 0;
     420:	d0a00217 	ldw	r2,-32760(gp)
     424:	1000010e 	bge	r2,zero,42c <Maj_Affichage+0x48>
     428:	d0200215 	stw	zero,-32760(gp)
        if (vitesse > 9) vitesse = 9;
     42c:	d0a00217 	ldw	r2,-32760(gp)
     430:	10800290 	cmplti	r2,r2,10
     434:	10001c1e 	bne	r2,zero,4a8 <Maj_Affichage+0xc4>
     438:	00800244 	movi	r2,9
     43c:	d0a00215 	stw	r2,-32760(gp)
     440:	00001906 	br	4a8 <Maj_Affichage+0xc4>
    }

    // Maj Angle_min
    else if (received_char >= 'a' && received_char <= 'z')
     444:	e0bffe17 	ldw	r2,-8(fp)
     448:	10801850 	cmplti	r2,r2,97
     44c:	10000a1e 	bne	r2,zero,478 <Maj_Affichage+0x94>
     450:	e0bffe17 	ldw	r2,-8(fp)
     454:	10801ec8 	cmpgei	r2,r2,123
     458:	1000071e 	bne	r2,zero,478 <Maj_Affichage+0x94>
    {
    	angle_min = (received_char - 'a') * 10;
     45c:	e0bffe17 	ldw	r2,-8(fp)
     460:	10bfe7c4 	addi	r2,r2,-97
     464:	01400284 	movi	r5,10
     468:	1009883a 	mov	r4,r2
     46c:	00005600 	call	560 <__mulsi3>
     470:	d0a70e15 	stw	r2,-25544(gp)
     474:	00000c06 	br	4a8 <Maj_Affichage+0xc4>
    }
    // Maj Angle_max
    else if (received_char >= 'A' && received_char <= 'Z')
     478:	e0bffe17 	ldw	r2,-8(fp)
     47c:	10801050 	cmplti	r2,r2,65
     480:	1000091e 	bne	r2,zero,4a8 <Maj_Affichage+0xc4>
     484:	e0bffe17 	ldw	r2,-8(fp)
     488:	108016c8 	cmpgei	r2,r2,91
     48c:	1000061e 	bne	r2,zero,4a8 <Maj_Affichage+0xc4>
    {
    	angle_max = (received_char - 'A') * 10;
     490:	e0bffe17 	ldw	r2,-8(fp)
     494:	10bfefc4 	addi	r2,r2,-65
     498:	01400284 	movi	r5,10
     49c:	1009883a 	mov	r4,r2
     4a0:	00005600 	call	560 <__mulsi3>
     4a4:	d0a00115 	stw	r2,-32764(gp)
    }

    //Check up borne
    if (angle_min > angle_max)
     4a8:	d0a70e17 	ldw	r2,-25544(gp)
     4ac:	d0e00117 	ldw	r3,-32764(gp)
     4b0:	1880060e 	bge	r3,r2,4cc <Maj_Affichage+0xe8>
    {
        int temp  = angle_min;
     4b4:	d0a70e17 	ldw	r2,-25544(gp)
     4b8:	e0bfff15 	stw	r2,-4(fp)
        angle_min = angle_max;
     4bc:	d0a00117 	ldw	r2,-32764(gp)
     4c0:	d0a70e15 	stw	r2,-25544(gp)
        angle_max = temp;
     4c4:	e0bfff17 	ldw	r2,-4(fp)
     4c8:	d0a00115 	stw	r2,-32764(gp)
    }
}
     4cc:	0001883a 	nop
     4d0:	e037883a 	mov	sp,fp
     4d4:	dfc00117 	ldw	ra,4(sp)
     4d8:	df000017 	ldw	fp,0(sp)
     4dc:	dec00204 	addi	sp,sp,8
     4e0:	f800283a 	ret

000004e4 <main>:

int main()
{
     4e4:	defffd04 	addi	sp,sp,-12
     4e8:	dfc00215 	stw	ra,8(sp)
     4ec:	df000115 	stw	fp,4(sp)
     4f0:	df000104 	addi	fp,sp,4
    const char *word = "VLADIslav";
     4f4:	00800074 	movhi	r2,1
     4f8:	10b8c504 	addi	r2,r2,-7404
     4fc:	e0bfff15 	stw	r2,-4(fp)

    while (1)
    {
        Maj_Affichage();
     500:	00003e40 	call	3e4 <Maj_Affichage>
        send_word_with_count(word, angle);
     504:	d0a70f17 	ldw	r2,-25540(gp)
     508:	100b883a 	mov	r5,r2
     50c:	e13fff17 	ldw	r4,-4(fp)
     510:	00002cc0 	call	2cc <send_word_with_count>
        usleep(10000 + (40000 * (10-vitesse)));
     514:	d0a00217 	ldw	r2,-32760(gp)
     518:	00c00284 	movi	r3,10
     51c:	1885c83a 	sub	r2,r3,r2
     520:	01671014 	movui	r5,40000
     524:	1009883a 	mov	r4,r2
     528:	00005600 	call	560 <__mulsi3>
     52c:	1089c404 	addi	r2,r2,10000
     530:	1009883a 	mov	r4,r2
     534:	000bb980 	call	bb98 <usleep>
        if (angle < angle_max)
     538:	d0e70f17 	ldw	r3,-25540(gp)
     53c:	d0a00117 	ldw	r2,-32764(gp)
     540:	1880040e 	bge	r3,r2,554 <main+0x70>
            {
                angle ++;
     544:	d0a70f17 	ldw	r2,-25540(gp)
     548:	10800044 	addi	r2,r2,1
     54c:	d0a70f15 	stw	r2,-25540(gp)
     550:	003feb06 	br	500 <__alt_mem_VGA_Subsystem_Char_Buf_Subsystem_Onchip_SRAM+0xf7000500>
            }
        else
            {
                angle = angle_min;
     554:	d0a70e17 	ldw	r2,-25544(gp)
     558:	d0a70f15 	stw	r2,-25540(gp)
            }
    }
     55c:	003fe806 	br	500 <__alt_mem_VGA_Subsystem_Char_Buf_Subsystem_Onchip_SRAM+0xf7000500>

00000560 <__mulsi3>:
     560:	0005883a 	mov	r2,zero
     564:	20000726 	beq	r4,zero,584 <__mulsi3+0x24>
     568:	20c0004c 	andi	r3,r4,1
     56c:	2008d07a 	srli	r4,r4,1
     570:	18000126 	beq	r3,zero,578 <__mulsi3+0x18>
     574:	1145883a 	add	r2,r2,r5
     578:	294b883a 	add	r5,r5,r5
     57c:	203ffa1e 	bne	r4,zero,568 <__alt_mem_VGA_Subsystem_Char_Buf_Subsystem_Onchip_SRAM+0xf7000568>
     580:	f800283a 	ret
     584:	f800283a 	ret

00000588 <_snprintf_r>:
     588:	30003116 	blt	r6,zero,650 <_snprintf_r+0xc8>
     58c:	deffe404 	addi	sp,sp,-112
     590:	00c08204 	movi	r3,520
     594:	dc001a15 	stw	r16,104(sp)
     598:	3005883a 	mov	r2,r6
     59c:	dfc01b15 	stw	ra,108(sp)
     5a0:	d8c0030d 	sth	r3,12(sp)
     5a4:	d9400015 	stw	r5,0(sp)
     5a8:	d9400415 	stw	r5,16(sp)
     5ac:	380d883a 	mov	r6,r7
     5b0:	2021883a 	mov	r16,r4
     5b4:	10001026 	beq	r2,zero,5f8 <_snprintf_r+0x70>
     5b8:	10bfffc4 	addi	r2,r2,-1
     5bc:	d8800215 	stw	r2,8(sp)
     5c0:	d8800515 	stw	r2,20(sp)
     5c4:	d9c01c04 	addi	r7,sp,112
     5c8:	00bfffc4 	movi	r2,-1
     5cc:	d80b883a 	mov	r5,sp
     5d0:	d880038d 	sth	r2,14(sp)
     5d4:	00007440 	call	744 <___svfprintf_internal_r>
     5d8:	00ffffc4 	movi	r3,-1
     5dc:	10c01316 	blt	r2,r3,62c <_snprintf_r+0xa4>
     5e0:	d8c00017 	ldw	r3,0(sp)
     5e4:	18000005 	stb	zero,0(r3)
     5e8:	dfc01b17 	ldw	ra,108(sp)
     5ec:	dc001a17 	ldw	r16,104(sp)
     5f0:	dec01c04 	addi	sp,sp,112
     5f4:	f800283a 	ret
     5f8:	00bfffc4 	movi	r2,-1
     5fc:	d9c01c04 	addi	r7,sp,112
     600:	d80b883a 	mov	r5,sp
     604:	d8000215 	stw	zero,8(sp)
     608:	d8000515 	stw	zero,20(sp)
     60c:	d880038d 	sth	r2,14(sp)
     610:	00007440 	call	744 <___svfprintf_internal_r>
     614:	00ffffc4 	movi	r3,-1
     618:	10c00716 	blt	r2,r3,638 <_snprintf_r+0xb0>
     61c:	dfc01b17 	ldw	ra,108(sp)
     620:	dc001a17 	ldw	r16,104(sp)
     624:	dec01c04 	addi	sp,sp,112
     628:	f800283a 	ret
     62c:	00c022c4 	movi	r3,139
     630:	80c00015 	stw	r3,0(r16)
     634:	003fea06 	br	5e0 <__alt_mem_VGA_Subsystem_Char_Buf_Subsystem_Onchip_SRAM+0xf70005e0>
     638:	00c022c4 	movi	r3,139
     63c:	80c00015 	stw	r3,0(r16)
     640:	dfc01b17 	ldw	ra,108(sp)
     644:	dc001a17 	ldw	r16,104(sp)
     648:	dec01c04 	addi	sp,sp,112
     64c:	f800283a 	ret
     650:	008022c4 	movi	r2,139
     654:	20800015 	stw	r2,0(r4)
     658:	00bfffc4 	movi	r2,-1
     65c:	f800283a 	ret

00000660 <snprintf>:
     660:	deffe304 	addi	sp,sp,-116
     664:	dfc01b15 	stw	ra,108(sp)
     668:	dc001a15 	stw	r16,104(sp)
     66c:	d9c01c15 	stw	r7,112(sp)
     670:	00800074 	movhi	r2,1
     674:	10809404 	addi	r2,r2,592
     678:	14000017 	ldw	r16,0(r2)
     67c:	28002d16 	blt	r5,zero,734 <snprintf+0xd4>
     680:	00808204 	movi	r2,520
     684:	d880030d 	sth	r2,12(sp)
     688:	d9000015 	stw	r4,0(sp)
     68c:	d9000415 	stw	r4,16(sp)
     690:	28001126 	beq	r5,zero,6d8 <snprintf+0x78>
     694:	28bfffc4 	addi	r2,r5,-1
     698:	d8800215 	stw	r2,8(sp)
     69c:	d8800515 	stw	r2,20(sp)
     6a0:	d9c01c04 	addi	r7,sp,112
     6a4:	00bfffc4 	movi	r2,-1
     6a8:	d80b883a 	mov	r5,sp
     6ac:	8009883a 	mov	r4,r16
     6b0:	d880038d 	sth	r2,14(sp)
     6b4:	00007440 	call	744 <___svfprintf_internal_r>
     6b8:	00ffffc4 	movi	r3,-1
     6bc:	10c01416 	blt	r2,r3,710 <snprintf+0xb0>
     6c0:	d8c00017 	ldw	r3,0(sp)
     6c4:	18000005 	stb	zero,0(r3)
     6c8:	dfc01b17 	ldw	ra,108(sp)
     6cc:	dc001a17 	ldw	r16,104(sp)
     6d0:	dec01d04 	addi	sp,sp,116
     6d4:	f800283a 	ret
     6d8:	00bfffc4 	movi	r2,-1
     6dc:	d9c01c04 	addi	r7,sp,112
     6e0:	d80b883a 	mov	r5,sp
     6e4:	8009883a 	mov	r4,r16
     6e8:	d8000215 	stw	zero,8(sp)
     6ec:	d8000515 	stw	zero,20(sp)
     6f0:	d880038d 	sth	r2,14(sp)
     6f4:	00007440 	call	744 <___svfprintf_internal_r>
     6f8:	00ffffc4 	movi	r3,-1
     6fc:	10c00716 	blt	r2,r3,71c <snprintf+0xbc>
     700:	dfc01b17 	ldw	ra,108(sp)
     704:	dc001a17 	ldw	r16,104(sp)
     708:	dec01d04 	addi	sp,sp,116
     70c:	f800283a 	ret
     710:	00c022c4 	movi	r3,139
     714:	80c00015 	stw	r3,0(r16)
     718:	003fe906 	br	6c0 <__alt_mem_VGA_Subsystem_Char_Buf_Subsystem_Onchip_SRAM+0xf70006c0>
     71c:	00c022c4 	movi	r3,139
     720:	80c00015 	stw	r3,0(r16)
     724:	dfc01b17 	ldw	ra,108(sp)
     728:	dc001a17 	ldw	r16,104(sp)
     72c:	dec01d04 	addi	sp,sp,116
     730:	f800283a 	ret
     734:	008022c4 	movi	r2,139
     738:	80800015 	stw	r2,0(r16)
     73c:	00bfffc4 	movi	r2,-1
     740:	003fef06 	br	700 <__alt_mem_VGA_Subsystem_Char_Buf_Subsystem_Onchip_SRAM+0xf7000700>

00000744 <___svfprintf_internal_r>:
     744:	deffb704 	addi	sp,sp,-292
     748:	dfc04815 	stw	ra,288(sp)
     74c:	ddc04615 	stw	r23,280(sp)
     750:	d9402d15 	stw	r5,180(sp)
     754:	d9003915 	stw	r4,228(sp)
     758:	302f883a 	mov	r23,r6
     75c:	d9c02e15 	stw	r7,184(sp)
     760:	df004715 	stw	fp,284(sp)
     764:	dd804515 	stw	r22,276(sp)
     768:	dd404415 	stw	r21,272(sp)
     76c:	dd004315 	stw	r20,268(sp)
     770:	dcc04215 	stw	r19,264(sp)
     774:	dc804115 	stw	r18,260(sp)
     778:	dc404015 	stw	r17,256(sp)
     77c:	dc003f15 	stw	r16,252(sp)
     780:	000435c0 	call	435c <_localeconv_r>
     784:	10800017 	ldw	r2,0(r2)
     788:	1009883a 	mov	r4,r2
     78c:	d8803415 	stw	r2,208(sp)
     790:	00060200 	call	6020 <strlen>
     794:	d8c02d17 	ldw	r3,180(sp)
     798:	d8803815 	stw	r2,224(sp)
     79c:	1880030b 	ldhu	r2,12(r3)
     7a0:	1080200c 	andi	r2,r2,128
     7a4:	10000226 	beq	r2,zero,7b0 <___svfprintf_internal_r+0x6c>
     7a8:	18800417 	ldw	r2,16(r3)
     7ac:	1006b126 	beq	r2,zero,2274 <___svfprintf_internal_r+0x1b30>
     7b0:	dcc03917 	ldw	r19,228(sp)
     7b4:	d8c00404 	addi	r3,sp,16
     7b8:	05400074 	movhi	r21,1
     7bc:	d9001e04 	addi	r4,sp,120
     7c0:	ad78d884 	addi	r21,r21,-7326
     7c4:	d8c01e15 	stw	r3,120(sp)
     7c8:	d8002015 	stw	zero,128(sp)
     7cc:	d8001f15 	stw	zero,124(sp)
     7d0:	d8003315 	stw	zero,204(sp)
     7d4:	d8003615 	stw	zero,216(sp)
     7d8:	d8003715 	stw	zero,220(sp)
     7dc:	1811883a 	mov	r8,r3
     7e0:	d8003a15 	stw	zero,232(sp)
     7e4:	d8003b15 	stw	zero,236(sp)
     7e8:	d8002f15 	stw	zero,188(sp)
     7ec:	d9002815 	stw	r4,160(sp)
     7f0:	b8800007 	ldb	r2,0(r23)
     7f4:	10027726 	beq	r2,zero,11d4 <___svfprintf_internal_r+0xa90>
     7f8:	00c00944 	movi	r3,37
     7fc:	b823883a 	mov	r17,r23
     800:	10c0021e 	bne	r2,r3,80c <___svfprintf_internal_r+0xc8>
     804:	00001406 	br	858 <___svfprintf_internal_r+0x114>
     808:	10c00326 	beq	r2,r3,818 <___svfprintf_internal_r+0xd4>
     80c:	8c400044 	addi	r17,r17,1
     810:	88800007 	ldb	r2,0(r17)
     814:	103ffc1e 	bne	r2,zero,808 <__alt_mem_VGA_Subsystem_Char_Buf_Subsystem_Onchip_SRAM+0xf7000808>
     818:	8de1c83a 	sub	r16,r17,r23
     81c:	80000e26 	beq	r16,zero,858 <___svfprintf_internal_r+0x114>
     820:	d8c02017 	ldw	r3,128(sp)
     824:	d8801f17 	ldw	r2,124(sp)
     828:	45c00015 	stw	r23,0(r8)
     82c:	1c07883a 	add	r3,r3,r16
     830:	10800044 	addi	r2,r2,1
     834:	d8c02015 	stw	r3,128(sp)
     838:	44000115 	stw	r16,4(r8)
     83c:	d8801f15 	stw	r2,124(sp)
     840:	00c001c4 	movi	r3,7
     844:	18809916 	blt	r3,r2,aac <___svfprintf_internal_r+0x368>
     848:	42000204 	addi	r8,r8,8
     84c:	d9402f17 	ldw	r5,188(sp)
     850:	2c0b883a 	add	r5,r5,r16
     854:	d9402f15 	stw	r5,188(sp)
     858:	88800007 	ldb	r2,0(r17)
     85c:	10009a26 	beq	r2,zero,ac8 <___svfprintf_internal_r+0x384>
     860:	8dc00044 	addi	r23,r17,1
     864:	8c400047 	ldb	r17,1(r17)
     868:	0021883a 	mov	r16,zero
     86c:	00bfffc4 	movi	r2,-1
     870:	0025883a 	mov	r18,zero
     874:	dc002905 	stb	r16,164(sp)
     878:	d8002785 	stb	zero,158(sp)
     87c:	d8002b05 	stb	zero,172(sp)
     880:	d8802a15 	stw	r2,168(sp)
     884:	d8003115 	stw	zero,196(sp)
     888:	05001604 	movi	r20,88
     88c:	05800244 	movi	r22,9
     890:	4039883a 	mov	fp,r8
     894:	9021883a 	mov	r16,r18
     898:	bdc00044 	addi	r23,r23,1
     89c:	88bff804 	addi	r2,r17,-32
     8a0:	a0831e36 	bltu	r20,r2,151c <___svfprintf_internal_r+0xdd8>
     8a4:	100490ba 	slli	r2,r2,2
     8a8:	00c00034 	movhi	r3,0
     8ac:	18c22f04 	addi	r3,r3,2236
     8b0:	10c5883a 	add	r2,r2,r3
     8b4:	10800017 	ldw	r2,0(r2)
     8b8:	1000683a 	jmp	r2
     8bc:	00001464 	muli	zero,zero,81
     8c0:	0000151c 	xori	zero,zero,84
     8c4:	0000151c 	xori	zero,zero,84
     8c8:	00001458 	cmpnei	zero,zero,81
     8cc:	0000151c 	xori	zero,zero,84
     8d0:	0000151c 	xori	zero,zero,84
     8d4:	0000151c 	xori	zero,zero,84
     8d8:	0000151c 	xori	zero,zero,84
     8dc:	0000151c 	xori	zero,zero,84
     8e0:	0000151c 	xori	zero,zero,84
     8e4:	00000b24 	muli	zero,zero,44
     8e8:	00001368 	cmpgeui	zero,zero,77
     8ec:	0000151c 	xori	zero,zero,84
     8f0:	00000a30 	cmpltui	zero,zero,40
     8f4:	00000b48 	cmpgei	zero,zero,45
     8f8:	0000151c 	xori	zero,zero,84
     8fc:	00000bd4 	movui	zero,47
     900:	00000b98 	cmpnei	zero,zero,46
     904:	00000b98 	cmpnei	zero,zero,46
     908:	00000b98 	cmpnei	zero,zero,46
     90c:	00000b98 	cmpnei	zero,zero,46
     910:	00000b98 	cmpnei	zero,zero,46
     914:	00000b98 	cmpnei	zero,zero,46
     918:	00000b98 	cmpnei	zero,zero,46
     91c:	00000b98 	cmpnei	zero,zero,46
     920:	00000b98 	cmpnei	zero,zero,46
     924:	0000151c 	xori	zero,zero,84
     928:	0000151c 	xori	zero,zero,84
     92c:	0000151c 	xori	zero,zero,84
     930:	0000151c 	xori	zero,zero,84
     934:	0000151c 	xori	zero,zero,84
     938:	0000151c 	xori	zero,zero,84
     93c:	0000151c 	xori	zero,zero,84
     940:	0000151c 	xori	zero,zero,84
     944:	0000151c 	xori	zero,zero,84
     948:	0000151c 	xori	zero,zero,84
     94c:	00000c98 	cmpnei	zero,zero,50
     950:	00000be0 	cmpeqi	zero,zero,47
     954:	0000151c 	xori	zero,zero,84
     958:	00000be0 	cmpeqi	zero,zero,47
     95c:	0000151c 	xori	zero,zero,84
     960:	0000151c 	xori	zero,zero,84
     964:	0000151c 	xori	zero,zero,84
     968:	0000151c 	xori	zero,zero,84
     96c:	00000c8c 	andi	zero,zero,50
     970:	0000151c 	xori	zero,zero,84
     974:	0000151c 	xori	zero,zero,84
     978:	00000d60 	cmpeqi	zero,zero,53
     97c:	0000151c 	xori	zero,zero,84
     980:	0000151c 	xori	zero,zero,84
     984:	0000151c 	xori	zero,zero,84
     988:	0000151c 	xori	zero,zero,84
     98c:	0000151c 	xori	zero,zero,84
     990:	000011dc 	xori	zero,zero,71
     994:	0000151c 	xori	zero,zero,84
     998:	0000151c 	xori	zero,zero,84
     99c:	00001248 	cmpgei	zero,zero,73
     9a0:	0000151c 	xori	zero,zero,84
     9a4:	0000151c 	xori	zero,zero,84
     9a8:	0000151c 	xori	zero,zero,84
     9ac:	0000151c 	xori	zero,zero,84
     9b0:	0000151c 	xori	zero,zero,84
     9b4:	0000151c 	xori	zero,zero,84
     9b8:	0000151c 	xori	zero,zero,84
     9bc:	0000151c 	xori	zero,zero,84
     9c0:	0000151c 	xori	zero,zero,84
     9c4:	0000151c 	xori	zero,zero,84
     9c8:	00001304 	movi	zero,76
     9cc:	00001484 	movi	zero,82
     9d0:	00000be0 	cmpeqi	zero,zero,47
     9d4:	00000be0 	cmpeqi	zero,zero,47
     9d8:	00000be0 	cmpeqi	zero,zero,47
     9dc:	000014f8 	rdprs	zero,zero,83
     9e0:	00001484 	movi	zero,82
     9e4:	0000151c 	xori	zero,zero,84
     9e8:	0000151c 	xori	zero,zero,84
     9ec:	000014a4 	muli	zero,zero,82
     9f0:	0000151c 	xori	zero,zero,84
     9f4:	000014b8 	rdprs	zero,zero,82
     9f8:	00001348 	cmpgei	zero,zero,77
     9fc:	00000a3c 	xorhi	zero,zero,40
     a00:	00001380 	call	138 <alt_irq_handler+0x3c>
     a04:	0000151c 	xori	zero,zero,84
     a08:	0000138c 	andi	zero,zero,78
     a0c:	0000151c 	xori	zero,zero,84
     a10:	000013f0 	cmpltui	zero,zero,79
     a14:	0000151c 	xori	zero,zero,84
     a18:	0000151c 	xori	zero,zero,84
     a1c:	00001410 	cmplti	zero,zero,80
     a20:	d8c03117 	ldw	r3,196(sp)
     a24:	d8802e15 	stw	r2,184(sp)
     a28:	00c7c83a 	sub	r3,zero,r3
     a2c:	d8c03115 	stw	r3,196(sp)
     a30:	84000114 	ori	r16,r16,4
     a34:	bc400007 	ldb	r17,0(r23)
     a38:	003f9706 	br	898 <__alt_mem_VGA_Subsystem_Char_Buf_Subsystem_Onchip_SRAM+0xf7000898>
     a3c:	00800c04 	movi	r2,48
     a40:	d8802705 	stb	r2,156(sp)
     a44:	00801e04 	movi	r2,120
     a48:	d8802745 	stb	r2,157(sp)
     a4c:	d9002a17 	ldw	r4,168(sp)
     a50:	d8802e17 	ldw	r2,184(sp)
     a54:	d8002785 	stb	zero,158(sp)
     a58:	e011883a 	mov	r8,fp
     a5c:	10c00104 	addi	r3,r2,4
     a60:	15000017 	ldw	r20,0(r2)
     a64:	002d883a 	mov	r22,zero
     a68:	80800094 	ori	r2,r16,2
     a6c:	2002b616 	blt	r4,zero,1548 <___svfprintf_internal_r+0xe04>
     a70:	00bfdfc4 	movi	r2,-129
     a74:	80a4703a 	and	r18,r16,r2
     a78:	d8c02e15 	stw	r3,184(sp)
     a7c:	94800094 	ori	r18,r18,2
     a80:	a002a01e 	bne	r20,zero,1504 <___svfprintf_internal_r+0xdc0>
     a84:	01400074 	movhi	r5,1
     a88:	2978d104 	addi	r5,r5,-7356
     a8c:	d9403a15 	stw	r5,232(sp)
     a90:	04401e04 	movi	r17,120
     a94:	d8c02a17 	ldw	r3,168(sp)
     a98:	0039883a 	mov	fp,zero
     a9c:	1801e626 	beq	r3,zero,1238 <___svfprintf_internal_r+0xaf4>
     aa0:	0029883a 	mov	r20,zero
     aa4:	002d883a 	mov	r22,zero
     aa8:	00020506 	br	12c0 <___svfprintf_internal_r+0xb7c>
     aac:	d9402d17 	ldw	r5,180(sp)
     ab0:	d9801e04 	addi	r6,sp,120
     ab4:	9809883a 	mov	r4,r19
     ab8:	00060b80 	call	60b8 <__ssprint_r>
     abc:	1000081e 	bne	r2,zero,ae0 <___svfprintf_internal_r+0x39c>
     ac0:	da000404 	addi	r8,sp,16
     ac4:	003f6106 	br	84c <__alt_mem_VGA_Subsystem_Char_Buf_Subsystem_Onchip_SRAM+0xf700084c>
     ac8:	d8802017 	ldw	r2,128(sp)
     acc:	10000426 	beq	r2,zero,ae0 <___svfprintf_internal_r+0x39c>
     ad0:	d9402d17 	ldw	r5,180(sp)
     ad4:	d9003917 	ldw	r4,228(sp)
     ad8:	d9801e04 	addi	r6,sp,120
     adc:	00060b80 	call	60b8 <__ssprint_r>
     ae0:	d8802d17 	ldw	r2,180(sp)
     ae4:	10c0030b 	ldhu	r3,12(r2)
     ae8:	d8802f17 	ldw	r2,188(sp)
     aec:	18c0100c 	andi	r3,r3,64
     af0:	1806251e 	bne	r3,zero,2388 <___svfprintf_internal_r+0x1c44>
     af4:	dfc04817 	ldw	ra,288(sp)
     af8:	df004717 	ldw	fp,284(sp)
     afc:	ddc04617 	ldw	r23,280(sp)
     b00:	dd804517 	ldw	r22,276(sp)
     b04:	dd404417 	ldw	r21,272(sp)
     b08:	dd004317 	ldw	r20,268(sp)
     b0c:	dcc04217 	ldw	r19,264(sp)
     b10:	dc804117 	ldw	r18,260(sp)
     b14:	dc404017 	ldw	r17,256(sp)
     b18:	dc003f17 	ldw	r16,252(sp)
     b1c:	dec04904 	addi	sp,sp,292
     b20:	f800283a 	ret
     b24:	d9002e17 	ldw	r4,184(sp)
     b28:	d9402e17 	ldw	r5,184(sp)
     b2c:	21000017 	ldw	r4,0(r4)
     b30:	28800104 	addi	r2,r5,4
     b34:	d9003115 	stw	r4,196(sp)
     b38:	203fb916 	blt	r4,zero,a20 <__alt_mem_VGA_Subsystem_Char_Buf_Subsystem_Onchip_SRAM+0xf7000a20>
     b3c:	d8802e15 	stw	r2,184(sp)
     b40:	bc400007 	ldb	r17,0(r23)
     b44:	003f5406 	br	898 <__alt_mem_VGA_Subsystem_Char_Buf_Subsystem_Onchip_SRAM+0xf7000898>
     b48:	bc400007 	ldb	r17,0(r23)
     b4c:	01000a84 	movi	r4,42
     b50:	b8c00044 	addi	r3,r23,1
     b54:	89076926 	beq	r17,r4,28fc <___svfprintf_internal_r+0x21b8>
     b58:	8cbff404 	addi	r18,r17,-48
     b5c:	b486b936 	bltu	r22,r18,2644 <___svfprintf_internal_r+0x1f00>
     b60:	0009883a 	mov	r4,zero
     b64:	1823883a 	mov	r17,r3
     b68:	01400284 	movi	r5,10
     b6c:	00005600 	call	560 <__mulsi3>
     b70:	88c00007 	ldb	r3,0(r17)
     b74:	1489883a 	add	r4,r2,r18
     b78:	8dc00044 	addi	r23,r17,1
     b7c:	1cbff404 	addi	r18,r3,-48
     b80:	b823883a 	mov	r17,r23
     b84:	b4bff82e 	bgeu	r22,r18,b68 <__alt_mem_VGA_Subsystem_Char_Buf_Subsystem_Onchip_SRAM+0xf7000b68>
     b88:	1823883a 	mov	r17,r3
     b8c:	20060416 	blt	r4,zero,23a0 <___svfprintf_internal_r+0x1c5c>
     b90:	d9002a15 	stw	r4,168(sp)
     b94:	003f4106 	br	89c <__alt_mem_VGA_Subsystem_Char_Buf_Subsystem_Onchip_SRAM+0xf700089c>
     b98:	8cbff404 	addi	r18,r17,-48
     b9c:	d8003115 	stw	zero,196(sp)
     ba0:	0009883a 	mov	r4,zero
     ba4:	b823883a 	mov	r17,r23
     ba8:	01400284 	movi	r5,10
     bac:	00005600 	call	560 <__mulsi3>
     bb0:	88c00007 	ldb	r3,0(r17)
     bb4:	9089883a 	add	r4,r18,r2
     bb8:	bdc00044 	addi	r23,r23,1
     bbc:	1cbff404 	addi	r18,r3,-48
     bc0:	b823883a 	mov	r17,r23
     bc4:	b4bff82e 	bgeu	r22,r18,ba8 <__alt_mem_VGA_Subsystem_Char_Buf_Subsystem_Onchip_SRAM+0xf7000ba8>
     bc8:	1823883a 	mov	r17,r3
     bcc:	d9003115 	stw	r4,196(sp)
     bd0:	003f3206 	br	89c <__alt_mem_VGA_Subsystem_Char_Buf_Subsystem_Onchip_SRAM+0xf700089c>
     bd4:	84002014 	ori	r16,r16,128
     bd8:	bc400007 	ldb	r17,0(r23)
     bdc:	003f2e06 	br	898 <__alt_mem_VGA_Subsystem_Char_Buf_Subsystem_Onchip_SRAM+0xf7000898>
     be0:	8025883a 	mov	r18,r16
     be4:	dc002903 	ldbu	r16,164(sp)
     be8:	e011883a 	mov	r8,fp
     bec:	84003fcc 	andi	r16,r16,255
     bf0:	8007721e 	bne	r16,zero,29bc <___svfprintf_internal_r+0x2278>
     bf4:	9080020c 	andi	r2,r18,8
     bf8:	1004a526 	beq	r2,zero,1e90 <___svfprintf_internal_r+0x174c>
     bfc:	d9002e17 	ldw	r4,184(sp)
     c00:	d9402e17 	ldw	r5,184(sp)
     c04:	d8802e17 	ldw	r2,184(sp)
     c08:	21000017 	ldw	r4,0(r4)
     c0c:	29400117 	ldw	r5,4(r5)
     c10:	10800204 	addi	r2,r2,8
     c14:	d9003615 	stw	r4,216(sp)
     c18:	d9403715 	stw	r5,220(sp)
     c1c:	d8802e15 	stw	r2,184(sp)
     c20:	d9003617 	ldw	r4,216(sp)
     c24:	d9403717 	ldw	r5,220(sp)
     c28:	da003e15 	stw	r8,248(sp)
     c2c:	04000044 	movi	r16,1
     c30:	0005e7c0 	call	5e7c <__fpclassifyd>
     c34:	da003e17 	ldw	r8,248(sp)
     c38:	1404731e 	bne	r2,r16,1e08 <___svfprintf_internal_r+0x16c4>
     c3c:	d9003617 	ldw	r4,216(sp)
     c40:	d9403717 	ldw	r5,220(sp)
     c44:	000d883a 	mov	r6,zero
     c48:	000f883a 	mov	r7,zero
     c4c:	000a4740 	call	a474 <__ledf2>
     c50:	da003e17 	ldw	r8,248(sp)
     c54:	10061b16 	blt	r2,zero,24c4 <___svfprintf_internal_r+0x1d80>
     c58:	df002783 	ldbu	fp,158(sp)
     c5c:	008011c4 	movi	r2,71
     c60:	1445810e 	bge	r2,r17,2268 <___svfprintf_internal_r+0x1b24>
     c64:	04000074 	movhi	r16,1
     c68:	8438c904 	addi	r16,r16,-7388
     c6c:	00c000c4 	movi	r3,3
     c70:	00bfdfc4 	movi	r2,-129
     c74:	d8c02915 	stw	r3,164(sp)
     c78:	90a4703a 	and	r18,r18,r2
     c7c:	d8c02b15 	stw	r3,172(sp)
     c80:	d8002a15 	stw	zero,168(sp)
     c84:	d8003215 	stw	zero,200(sp)
     c88:	00006c06 	br	e3c <___svfprintf_internal_r+0x6f8>
     c8c:	84000214 	ori	r16,r16,8
     c90:	bc400007 	ldb	r17,0(r23)
     c94:	003f0006 	br	898 <__alt_mem_VGA_Subsystem_Char_Buf_Subsystem_Onchip_SRAM+0xf7000898>
     c98:	8025883a 	mov	r18,r16
     c9c:	dc002903 	ldbu	r16,164(sp)
     ca0:	e011883a 	mov	r8,fp
     ca4:	84003fcc 	andi	r16,r16,255
     ca8:	80073f1e 	bne	r16,zero,29a8 <___svfprintf_internal_r+0x2264>
     cac:	94800414 	ori	r18,r18,16
     cb0:	9080080c 	andi	r2,r18,32
     cb4:	1003bb26 	beq	r2,zero,1ba4 <___svfprintf_internal_r+0x1460>
     cb8:	d9002e17 	ldw	r4,184(sp)
     cbc:	20800117 	ldw	r2,4(r4)
     cc0:	25000017 	ldw	r20,0(r4)
     cc4:	21000204 	addi	r4,r4,8
     cc8:	d9002e15 	stw	r4,184(sp)
     ccc:	102d883a 	mov	r22,r2
     cd0:	1003bd16 	blt	r2,zero,1bc8 <___svfprintf_internal_r+0x1484>
     cd4:	d9002a17 	ldw	r4,168(sp)
     cd8:	df002783 	ldbu	fp,158(sp)
     cdc:	2003d016 	blt	r4,zero,1c20 <___svfprintf_internal_r+0x14dc>
     ce0:	00ffdfc4 	movi	r3,-129
     ce4:	a584b03a 	or	r2,r20,r22
     ce8:	90e4703a 	and	r18,r18,r3
     cec:	10015026 	beq	r2,zero,1230 <___svfprintf_internal_r+0xaec>
     cf0:	b0037026 	beq	r22,zero,1ab4 <___svfprintf_internal_r+0x1370>
     cf4:	dc402915 	stw	r17,164(sp)
     cf8:	dc001e04 	addi	r16,sp,120
     cfc:	b023883a 	mov	r17,r22
     d00:	402d883a 	mov	r22,r8
     d04:	a009883a 	mov	r4,r20
     d08:	880b883a 	mov	r5,r17
     d0c:	01800284 	movi	r6,10
     d10:	000f883a 	mov	r7,zero
     d14:	000891c0 	call	891c <__umoddi3>
     d18:	10800c04 	addi	r2,r2,48
     d1c:	843fffc4 	addi	r16,r16,-1
     d20:	a009883a 	mov	r4,r20
     d24:	880b883a 	mov	r5,r17
     d28:	80800005 	stb	r2,0(r16)
     d2c:	01800284 	movi	r6,10
     d30:	000f883a 	mov	r7,zero
     d34:	00083200 	call	8320 <__udivdi3>
     d38:	1029883a 	mov	r20,r2
     d3c:	10c4b03a 	or	r2,r2,r3
     d40:	1823883a 	mov	r17,r3
     d44:	103fef1e 	bne	r2,zero,d04 <__alt_mem_VGA_Subsystem_Char_Buf_Subsystem_Onchip_SRAM+0xf7000d04>
     d48:	d8c02817 	ldw	r3,160(sp)
     d4c:	dc402917 	ldw	r17,164(sp)
     d50:	b011883a 	mov	r8,r22
     d54:	1c07c83a 	sub	r3,r3,r16
     d58:	d8c02b15 	stw	r3,172(sp)
     d5c:	00003106 	br	e24 <___svfprintf_internal_r+0x6e0>
     d60:	8025883a 	mov	r18,r16
     d64:	dc002903 	ldbu	r16,164(sp)
     d68:	e011883a 	mov	r8,fp
     d6c:	84003fcc 	andi	r16,r16,255
     d70:	80070a1e 	bne	r16,zero,299c <___svfprintf_internal_r+0x2258>
     d74:	94800414 	ori	r18,r18,16
     d78:	9080080c 	andi	r2,r18,32
     d7c:	1002f626 	beq	r2,zero,1958 <___svfprintf_internal_r+0x1214>
     d80:	d9002e17 	ldw	r4,184(sp)
     d84:	d9402a17 	ldw	r5,168(sp)
     d88:	d8002785 	stb	zero,158(sp)
     d8c:	20800204 	addi	r2,r4,8
     d90:	25000017 	ldw	r20,0(r4)
     d94:	25800117 	ldw	r22,4(r4)
     d98:	28043716 	blt	r5,zero,1e78 <___svfprintf_internal_r+0x1734>
     d9c:	013fdfc4 	movi	r4,-129
     da0:	a586b03a 	or	r3,r20,r22
     da4:	d8802e15 	stw	r2,184(sp)
     da8:	9124703a 	and	r18,r18,r4
     dac:	1802f71e 	bne	r3,zero,198c <___svfprintf_internal_r+0x1248>
     db0:	d9402a17 	ldw	r5,168(sp)
     db4:	0039883a 	mov	fp,zero
     db8:	2806df26 	beq	r5,zero,2938 <___svfprintf_internal_r+0x21f4>
     dbc:	0029883a 	mov	r20,zero
     dc0:	002d883a 	mov	r22,zero
     dc4:	dc001e04 	addi	r16,sp,120
     dc8:	a006d0fa 	srli	r3,r20,3
     dcc:	b008977a 	slli	r4,r22,29
     dd0:	b02cd0fa 	srli	r22,r22,3
     dd4:	a50001cc 	andi	r20,r20,7
     dd8:	a0800c04 	addi	r2,r20,48
     ddc:	843fffc4 	addi	r16,r16,-1
     de0:	20e8b03a 	or	r20,r4,r3
     de4:	80800005 	stb	r2,0(r16)
     de8:	a586b03a 	or	r3,r20,r22
     dec:	183ff61e 	bne	r3,zero,dc8 <__alt_mem_VGA_Subsystem_Char_Buf_Subsystem_Onchip_SRAM+0xf7000dc8>
     df0:	90c0004c 	andi	r3,r18,1
     df4:	18013f26 	beq	r3,zero,12f4 <___svfprintf_internal_r+0xbb0>
     df8:	10803fcc 	andi	r2,r2,255
     dfc:	1080201c 	xori	r2,r2,128
     e00:	10bfe004 	addi	r2,r2,-128
     e04:	00c00c04 	movi	r3,48
     e08:	10c13a26 	beq	r2,r3,12f4 <___svfprintf_internal_r+0xbb0>
     e0c:	80ffffc5 	stb	r3,-1(r16)
     e10:	d8c02817 	ldw	r3,160(sp)
     e14:	80bfffc4 	addi	r2,r16,-1
     e18:	1021883a 	mov	r16,r2
     e1c:	1887c83a 	sub	r3,r3,r2
     e20:	d8c02b15 	stw	r3,172(sp)
     e24:	d8802b17 	ldw	r2,172(sp)
     e28:	d9002a17 	ldw	r4,168(sp)
     e2c:	1100010e 	bge	r2,r4,e34 <___svfprintf_internal_r+0x6f0>
     e30:	2005883a 	mov	r2,r4
     e34:	d8802915 	stw	r2,164(sp)
     e38:	d8003215 	stw	zero,200(sp)
     e3c:	e7003fcc 	andi	fp,fp,255
     e40:	e700201c 	xori	fp,fp,128
     e44:	e73fe004 	addi	fp,fp,-128
     e48:	e0000326 	beq	fp,zero,e58 <___svfprintf_internal_r+0x714>
     e4c:	d8c02917 	ldw	r3,164(sp)
     e50:	18c00044 	addi	r3,r3,1
     e54:	d8c02915 	stw	r3,164(sp)
     e58:	90c0008c 	andi	r3,r18,2
     e5c:	d8c02c15 	stw	r3,176(sp)
     e60:	18000326 	beq	r3,zero,e70 <___svfprintf_internal_r+0x72c>
     e64:	d8c02917 	ldw	r3,164(sp)
     e68:	18c00084 	addi	r3,r3,2
     e6c:	d8c02915 	stw	r3,164(sp)
     e70:	90c0210c 	andi	r3,r18,132
     e74:	d8c03015 	stw	r3,192(sp)
     e78:	1801c31e 	bne	r3,zero,1588 <___svfprintf_internal_r+0xe44>
     e7c:	d9003117 	ldw	r4,196(sp)
     e80:	d8c02917 	ldw	r3,164(sp)
     e84:	20e9c83a 	sub	r20,r4,r3
     e88:	0501bf0e 	bge	zero,r20,1588 <___svfprintf_internal_r+0xe44>
     e8c:	02400404 	movi	r9,16
     e90:	d8c02017 	ldw	r3,128(sp)
     e94:	d8801f17 	ldw	r2,124(sp)
     e98:	4d053d0e 	bge	r9,r20,2390 <___svfprintf_internal_r+0x1c4c>
     e9c:	01400074 	movhi	r5,1
     ea0:	2978dc84 	addi	r5,r5,-7310
     ea4:	dc403c15 	stw	r17,240(sp)
     ea8:	d9403515 	stw	r5,212(sp)
     eac:	a023883a 	mov	r17,r20
     eb0:	482d883a 	mov	r22,r9
     eb4:	9029883a 	mov	r20,r18
     eb8:	070001c4 	movi	fp,7
     ebc:	8025883a 	mov	r18,r16
     ec0:	dc002d17 	ldw	r16,180(sp)
     ec4:	00000306 	br	ed4 <___svfprintf_internal_r+0x790>
     ec8:	8c7ffc04 	addi	r17,r17,-16
     ecc:	42000204 	addi	r8,r8,8
     ed0:	b440130e 	bge	r22,r17,f20 <___svfprintf_internal_r+0x7dc>
     ed4:	01000074 	movhi	r4,1
     ed8:	18c00404 	addi	r3,r3,16
     edc:	10800044 	addi	r2,r2,1
     ee0:	2138dc84 	addi	r4,r4,-7310
     ee4:	41000015 	stw	r4,0(r8)
     ee8:	45800115 	stw	r22,4(r8)
     eec:	d8c02015 	stw	r3,128(sp)
     ef0:	d8801f15 	stw	r2,124(sp)
     ef4:	e0bff40e 	bge	fp,r2,ec8 <__alt_mem_VGA_Subsystem_Char_Buf_Subsystem_Onchip_SRAM+0xf7000ec8>
     ef8:	d9801e04 	addi	r6,sp,120
     efc:	800b883a 	mov	r5,r16
     f00:	9809883a 	mov	r4,r19
     f04:	00060b80 	call	60b8 <__ssprint_r>
     f08:	103ef51e 	bne	r2,zero,ae0 <__alt_mem_VGA_Subsystem_Char_Buf_Subsystem_Onchip_SRAM+0xf7000ae0>
     f0c:	8c7ffc04 	addi	r17,r17,-16
     f10:	d8c02017 	ldw	r3,128(sp)
     f14:	d8801f17 	ldw	r2,124(sp)
     f18:	da000404 	addi	r8,sp,16
     f1c:	b47fed16 	blt	r22,r17,ed4 <__alt_mem_VGA_Subsystem_Char_Buf_Subsystem_Onchip_SRAM+0xf7000ed4>
     f20:	9021883a 	mov	r16,r18
     f24:	a025883a 	mov	r18,r20
     f28:	8829883a 	mov	r20,r17
     f2c:	dc403c17 	ldw	r17,240(sp)
     f30:	d9403517 	ldw	r5,212(sp)
     f34:	a0c7883a 	add	r3,r20,r3
     f38:	10800044 	addi	r2,r2,1
     f3c:	41400015 	stw	r5,0(r8)
     f40:	45000115 	stw	r20,4(r8)
     f44:	d8c02015 	stw	r3,128(sp)
     f48:	d8801f15 	stw	r2,124(sp)
     f4c:	010001c4 	movi	r4,7
     f50:	2082c116 	blt	r4,r2,1a58 <___svfprintf_internal_r+0x1314>
     f54:	df002787 	ldb	fp,158(sp)
     f58:	42000204 	addi	r8,r8,8
     f5c:	e0000c26 	beq	fp,zero,f90 <___svfprintf_internal_r+0x84c>
     f60:	d8801f17 	ldw	r2,124(sp)
     f64:	d9002784 	addi	r4,sp,158
     f68:	18c00044 	addi	r3,r3,1
     f6c:	10800044 	addi	r2,r2,1
     f70:	41000015 	stw	r4,0(r8)
     f74:	01000044 	movi	r4,1
     f78:	41000115 	stw	r4,4(r8)
     f7c:	d8c02015 	stw	r3,128(sp)
     f80:	d8801f15 	stw	r2,124(sp)
     f84:	010001c4 	movi	r4,7
     f88:	20825a16 	blt	r4,r2,18f4 <___svfprintf_internal_r+0x11b0>
     f8c:	42000204 	addi	r8,r8,8
     f90:	d8802c17 	ldw	r2,176(sp)
     f94:	10000c26 	beq	r2,zero,fc8 <___svfprintf_internal_r+0x884>
     f98:	d8801f17 	ldw	r2,124(sp)
     f9c:	d9002704 	addi	r4,sp,156
     fa0:	18c00084 	addi	r3,r3,2
     fa4:	10800044 	addi	r2,r2,1
     fa8:	41000015 	stw	r4,0(r8)
     fac:	01000084 	movi	r4,2
     fb0:	41000115 	stw	r4,4(r8)
     fb4:	d8c02015 	stw	r3,128(sp)
     fb8:	d8801f15 	stw	r2,124(sp)
     fbc:	010001c4 	movi	r4,7
     fc0:	20825416 	blt	r4,r2,1914 <___svfprintf_internal_r+0x11d0>
     fc4:	42000204 	addi	r8,r8,8
     fc8:	d9003017 	ldw	r4,192(sp)
     fcc:	00802004 	movi	r2,128
     fd0:	2081b926 	beq	r4,r2,16b8 <___svfprintf_internal_r+0xf74>
     fd4:	d9402a17 	ldw	r5,168(sp)
     fd8:	d8802b17 	ldw	r2,172(sp)
     fdc:	28adc83a 	sub	r22,r5,r2
     fe0:	05802f0e 	bge	zero,r22,10a0 <___svfprintf_internal_r+0x95c>
     fe4:	07000404 	movi	fp,16
     fe8:	d8801f17 	ldw	r2,124(sp)
     fec:	e583e20e 	bge	fp,r22,1f78 <___svfprintf_internal_r+0x1834>
     ff0:	01400074 	movhi	r5,1
     ff4:	2978d884 	addi	r5,r5,-7326
     ff8:	dc402a15 	stw	r17,168(sp)
     ffc:	d9402c15 	stw	r5,176(sp)
    1000:	b023883a 	mov	r17,r22
    1004:	050001c4 	movi	r20,7
    1008:	902d883a 	mov	r22,r18
    100c:	8025883a 	mov	r18,r16
    1010:	dc002d17 	ldw	r16,180(sp)
    1014:	00000306 	br	1024 <___svfprintf_internal_r+0x8e0>
    1018:	8c7ffc04 	addi	r17,r17,-16
    101c:	42000204 	addi	r8,r8,8
    1020:	e440110e 	bge	fp,r17,1068 <___svfprintf_internal_r+0x924>
    1024:	18c00404 	addi	r3,r3,16
    1028:	10800044 	addi	r2,r2,1
    102c:	45400015 	stw	r21,0(r8)
    1030:	47000115 	stw	fp,4(r8)
    1034:	d8c02015 	stw	r3,128(sp)
    1038:	d8801f15 	stw	r2,124(sp)
    103c:	a0bff60e 	bge	r20,r2,1018 <__alt_mem_VGA_Subsystem_Char_Buf_Subsystem_Onchip_SRAM+0xf7001018>
    1040:	d9801e04 	addi	r6,sp,120
    1044:	800b883a 	mov	r5,r16
    1048:	9809883a 	mov	r4,r19
    104c:	00060b80 	call	60b8 <__ssprint_r>
    1050:	103ea31e 	bne	r2,zero,ae0 <__alt_mem_VGA_Subsystem_Char_Buf_Subsystem_Onchip_SRAM+0xf7000ae0>
    1054:	8c7ffc04 	addi	r17,r17,-16
    1058:	d8c02017 	ldw	r3,128(sp)
    105c:	d8801f17 	ldw	r2,124(sp)
    1060:	da000404 	addi	r8,sp,16
    1064:	e47fef16 	blt	fp,r17,1024 <__alt_mem_VGA_Subsystem_Char_Buf_Subsystem_Onchip_SRAM+0xf7001024>
    1068:	9021883a 	mov	r16,r18
    106c:	b025883a 	mov	r18,r22
    1070:	882d883a 	mov	r22,r17
    1074:	dc402a17 	ldw	r17,168(sp)
    1078:	d9002c17 	ldw	r4,176(sp)
    107c:	1d87883a 	add	r3,r3,r22
    1080:	10800044 	addi	r2,r2,1
    1084:	41000015 	stw	r4,0(r8)
    1088:	45800115 	stw	r22,4(r8)
    108c:	d8c02015 	stw	r3,128(sp)
    1090:	d8801f15 	stw	r2,124(sp)
    1094:	010001c4 	movi	r4,7
    1098:	20820e16 	blt	r4,r2,18d4 <___svfprintf_internal_r+0x1190>
    109c:	42000204 	addi	r8,r8,8
    10a0:	9080400c 	andi	r2,r18,256
    10a4:	10013a1e 	bne	r2,zero,1590 <___svfprintf_internal_r+0xe4c>
    10a8:	d9402b17 	ldw	r5,172(sp)
    10ac:	d8801f17 	ldw	r2,124(sp)
    10b0:	44000015 	stw	r16,0(r8)
    10b4:	1947883a 	add	r3,r3,r5
    10b8:	10800044 	addi	r2,r2,1
    10bc:	41400115 	stw	r5,4(r8)
    10c0:	d8c02015 	stw	r3,128(sp)
    10c4:	d8801f15 	stw	r2,124(sp)
    10c8:	010001c4 	movi	r4,7
    10cc:	2081f316 	blt	r4,r2,189c <___svfprintf_internal_r+0x1158>
    10d0:	42000204 	addi	r8,r8,8
    10d4:	9480010c 	andi	r18,r18,4
    10d8:	90003226 	beq	r18,zero,11a4 <___svfprintf_internal_r+0xa60>
    10dc:	d9403117 	ldw	r5,196(sp)
    10e0:	d8802917 	ldw	r2,164(sp)
    10e4:	28a1c83a 	sub	r16,r5,r2
    10e8:	04002e0e 	bge	zero,r16,11a4 <___svfprintf_internal_r+0xa60>
    10ec:	04400404 	movi	r17,16
    10f0:	d8801f17 	ldw	r2,124(sp)
    10f4:	8c04db0e 	bge	r17,r16,2464 <___svfprintf_internal_r+0x1d20>
    10f8:	01400074 	movhi	r5,1
    10fc:	2978dc84 	addi	r5,r5,-7310
    1100:	d9403515 	stw	r5,212(sp)
    1104:	048001c4 	movi	r18,7
    1108:	dd002d17 	ldw	r20,180(sp)
    110c:	00000306 	br	111c <___svfprintf_internal_r+0x9d8>
    1110:	843ffc04 	addi	r16,r16,-16
    1114:	42000204 	addi	r8,r8,8
    1118:	8c00130e 	bge	r17,r16,1168 <___svfprintf_internal_r+0xa24>
    111c:	01000074 	movhi	r4,1
    1120:	18c00404 	addi	r3,r3,16
    1124:	10800044 	addi	r2,r2,1
    1128:	2138dc84 	addi	r4,r4,-7310
    112c:	41000015 	stw	r4,0(r8)
    1130:	44400115 	stw	r17,4(r8)
    1134:	d8c02015 	stw	r3,128(sp)
    1138:	d8801f15 	stw	r2,124(sp)
    113c:	90bff40e 	bge	r18,r2,1110 <__alt_mem_VGA_Subsystem_Char_Buf_Subsystem_Onchip_SRAM+0xf7001110>
    1140:	d9801e04 	addi	r6,sp,120
    1144:	a00b883a 	mov	r5,r20
    1148:	9809883a 	mov	r4,r19
    114c:	00060b80 	call	60b8 <__ssprint_r>
    1150:	103e631e 	bne	r2,zero,ae0 <__alt_mem_VGA_Subsystem_Char_Buf_Subsystem_Onchip_SRAM+0xf7000ae0>
    1154:	843ffc04 	addi	r16,r16,-16
    1158:	d8c02017 	ldw	r3,128(sp)
    115c:	d8801f17 	ldw	r2,124(sp)
    1160:	da000404 	addi	r8,sp,16
    1164:	8c3fed16 	blt	r17,r16,111c <__alt_mem_VGA_Subsystem_Char_Buf_Subsystem_Onchip_SRAM+0xf700111c>
    1168:	d9403517 	ldw	r5,212(sp)
    116c:	1c07883a 	add	r3,r3,r16
    1170:	10800044 	addi	r2,r2,1
    1174:	41400015 	stw	r5,0(r8)
    1178:	44000115 	stw	r16,4(r8)
    117c:	d8c02015 	stw	r3,128(sp)
    1180:	d8801f15 	stw	r2,124(sp)
    1184:	010001c4 	movi	r4,7
    1188:	2080060e 	bge	r4,r2,11a4 <___svfprintf_internal_r+0xa60>
    118c:	d9402d17 	ldw	r5,180(sp)
    1190:	d9801e04 	addi	r6,sp,120
    1194:	9809883a 	mov	r4,r19
    1198:	00060b80 	call	60b8 <__ssprint_r>
    119c:	103e501e 	bne	r2,zero,ae0 <__alt_mem_VGA_Subsystem_Char_Buf_Subsystem_Onchip_SRAM+0xf7000ae0>
    11a0:	d8c02017 	ldw	r3,128(sp)
    11a4:	d8803117 	ldw	r2,196(sp)
    11a8:	d9002917 	ldw	r4,164(sp)
    11ac:	1100010e 	bge	r2,r4,11b4 <___svfprintf_internal_r+0xa70>
    11b0:	2005883a 	mov	r2,r4
    11b4:	d9402f17 	ldw	r5,188(sp)
    11b8:	288b883a 	add	r5,r5,r2
    11bc:	d9402f15 	stw	r5,188(sp)
    11c0:	1801be1e 	bne	r3,zero,18bc <___svfprintf_internal_r+0x1178>
    11c4:	b8800007 	ldb	r2,0(r23)
    11c8:	d8001f15 	stw	zero,124(sp)
    11cc:	da000404 	addi	r8,sp,16
    11d0:	103d891e 	bne	r2,zero,7f8 <__alt_mem_VGA_Subsystem_Char_Buf_Subsystem_Onchip_SRAM+0xf70007f8>
    11d4:	b823883a 	mov	r17,r23
    11d8:	003d9f06 	br	858 <__alt_mem_VGA_Subsystem_Char_Buf_Subsystem_Onchip_SRAM+0xf7000858>
    11dc:	8025883a 	mov	r18,r16
    11e0:	dc002903 	ldbu	r16,164(sp)
    11e4:	e011883a 	mov	r8,fp
    11e8:	84003fcc 	andi	r16,r16,255
    11ec:	8005e61e 	bne	r16,zero,2988 <___svfprintf_internal_r+0x2244>
    11f0:	94800414 	ori	r18,r18,16
    11f4:	9080080c 	andi	r2,r18,32
    11f8:	10022026 	beq	r2,zero,1a7c <___svfprintf_internal_r+0x1338>
    11fc:	d9002e17 	ldw	r4,184(sp)
    1200:	d9402a17 	ldw	r5,168(sp)
    1204:	d8002785 	stb	zero,158(sp)
    1208:	20c00204 	addi	r3,r4,8
    120c:	25000017 	ldw	r20,0(r4)
    1210:	25800117 	ldw	r22,4(r4)
    1214:	2803ad16 	blt	r5,zero,20cc <___svfprintf_internal_r+0x1988>
    1218:	013fdfc4 	movi	r4,-129
    121c:	a584b03a 	or	r2,r20,r22
    1220:	d8c02e15 	stw	r3,184(sp)
    1224:	9124703a 	and	r18,r18,r4
    1228:	0039883a 	mov	fp,zero
    122c:	103eb01e 	bne	r2,zero,cf0 <__alt_mem_VGA_Subsystem_Char_Buf_Subsystem_Onchip_SRAM+0xf7000cf0>
    1230:	d8802a17 	ldw	r2,168(sp)
    1234:	1002e71e 	bne	r2,zero,1dd4 <___svfprintf_internal_r+0x1690>
    1238:	d8002a15 	stw	zero,168(sp)
    123c:	d8002b15 	stw	zero,172(sp)
    1240:	dc001e04 	addi	r16,sp,120
    1244:	003ef706 	br	e24 <__alt_mem_VGA_Subsystem_Char_Buf_Subsystem_Onchip_SRAM+0xf7000e24>
    1248:	8025883a 	mov	r18,r16
    124c:	dc002903 	ldbu	r16,164(sp)
    1250:	e011883a 	mov	r8,fp
    1254:	84003fcc 	andi	r16,r16,255
    1258:	8005c81e 	bne	r16,zero,297c <___svfprintf_internal_r+0x2238>
    125c:	01000074 	movhi	r4,1
    1260:	2138cc04 	addi	r4,r4,-7376
    1264:	d9003a15 	stw	r4,232(sp)
    1268:	9080080c 	andi	r2,r18,32
    126c:	10007226 	beq	r2,zero,1438 <___svfprintf_internal_r+0xcf4>
    1270:	d9402e17 	ldw	r5,184(sp)
    1274:	2d000017 	ldw	r20,0(r5)
    1278:	2d800117 	ldw	r22,4(r5)
    127c:	29400204 	addi	r5,r5,8
    1280:	d9402e15 	stw	r5,184(sp)
    1284:	9080004c 	andi	r2,r18,1
    1288:	1001aa26 	beq	r2,zero,1934 <___svfprintf_internal_r+0x11f0>
    128c:	a584b03a 	or	r2,r20,r22
    1290:	10032526 	beq	r2,zero,1f28 <___svfprintf_internal_r+0x17e4>
    1294:	d8c02a17 	ldw	r3,168(sp)
    1298:	00800c04 	movi	r2,48
    129c:	d8802705 	stb	r2,156(sp)
    12a0:	dc402745 	stb	r17,157(sp)
    12a4:	d8002785 	stb	zero,158(sp)
    12a8:	90800094 	ori	r2,r18,2
    12ac:	1804a316 	blt	r3,zero,253c <___svfprintf_internal_r+0x1df8>
    12b0:	00bfdfc4 	movi	r2,-129
    12b4:	90a4703a 	and	r18,r18,r2
    12b8:	94800094 	ori	r18,r18,2
    12bc:	0039883a 	mov	fp,zero
    12c0:	d9003a17 	ldw	r4,232(sp)
    12c4:	dc001e04 	addi	r16,sp,120
    12c8:	a08003cc 	andi	r2,r20,15
    12cc:	b006973a 	slli	r3,r22,28
    12d0:	2085883a 	add	r2,r4,r2
    12d4:	a028d13a 	srli	r20,r20,4
    12d8:	10800003 	ldbu	r2,0(r2)
    12dc:	b02cd13a 	srli	r22,r22,4
    12e0:	843fffc4 	addi	r16,r16,-1
    12e4:	1d28b03a 	or	r20,r3,r20
    12e8:	80800005 	stb	r2,0(r16)
    12ec:	a584b03a 	or	r2,r20,r22
    12f0:	103ff51e 	bne	r2,zero,12c8 <__alt_mem_VGA_Subsystem_Char_Buf_Subsystem_Onchip_SRAM+0xf70012c8>
    12f4:	d8c02817 	ldw	r3,160(sp)
    12f8:	1c07c83a 	sub	r3,r3,r16
    12fc:	d8c02b15 	stw	r3,172(sp)
    1300:	003ec806 	br	e24 <__alt_mem_VGA_Subsystem_Char_Buf_Subsystem_Onchip_SRAM+0xf7000e24>
    1304:	d8c02e17 	ldw	r3,184(sp)
    1308:	d9002e17 	ldw	r4,184(sp)
    130c:	8025883a 	mov	r18,r16
    1310:	18800017 	ldw	r2,0(r3)
    1314:	21000104 	addi	r4,r4,4
    1318:	00c00044 	movi	r3,1
    131c:	e011883a 	mov	r8,fp
    1320:	d8c02915 	stw	r3,164(sp)
    1324:	d8002785 	stb	zero,158(sp)
    1328:	d8801405 	stb	r2,80(sp)
    132c:	d9002e15 	stw	r4,184(sp)
    1330:	d8c02b15 	stw	r3,172(sp)
    1334:	d8002a15 	stw	zero,168(sp)
    1338:	d8003215 	stw	zero,200(sp)
    133c:	dc001404 	addi	r16,sp,80
    1340:	0039883a 	mov	fp,zero
    1344:	003ec406 	br	e58 <__alt_mem_VGA_Subsystem_Char_Buf_Subsystem_Onchip_SRAM+0xf7000e58>
    1348:	8025883a 	mov	r18,r16
    134c:	dc002903 	ldbu	r16,164(sp)
    1350:	e011883a 	mov	r8,fp
    1354:	84003fcc 	andi	r16,r16,255
    1358:	803e8726 	beq	r16,zero,d78 <__alt_mem_VGA_Subsystem_Char_Buf_Subsystem_Onchip_SRAM+0xf7000d78>
    135c:	d8c02b03 	ldbu	r3,172(sp)
    1360:	d8c02785 	stb	r3,158(sp)
    1364:	003e8406 	br	d78 <__alt_mem_VGA_Subsystem_Char_Buf_Subsystem_Onchip_SRAM+0xf7000d78>
    1368:	00c00044 	movi	r3,1
    136c:	d8c02905 	stb	r3,164(sp)
    1370:	00c00ac4 	movi	r3,43
    1374:	d8c02b05 	stb	r3,172(sp)
    1378:	bc400007 	ldb	r17,0(r23)
    137c:	003d4606 	br	898 <__alt_mem_VGA_Subsystem_Char_Buf_Subsystem_Onchip_SRAM+0xf7000898>
    1380:	84000814 	ori	r16,r16,32
    1384:	bc400007 	ldb	r17,0(r23)
    1388:	003d4306 	br	898 <__alt_mem_VGA_Subsystem_Char_Buf_Subsystem_Onchip_SRAM+0xf7000898>
    138c:	d8802e17 	ldw	r2,184(sp)
    1390:	8025883a 	mov	r18,r16
    1394:	d8002785 	stb	zero,158(sp)
    1398:	14000017 	ldw	r16,0(r2)
    139c:	e011883a 	mov	r8,fp
    13a0:	15000104 	addi	r20,r2,4
    13a4:	80042126 	beq	r16,zero,242c <___svfprintf_internal_r+0x1ce8>
    13a8:	d8c02a17 	ldw	r3,168(sp)
    13ac:	1803ee16 	blt	r3,zero,2368 <___svfprintf_internal_r+0x1c24>
    13b0:	180d883a 	mov	r6,r3
    13b4:	000b883a 	mov	r5,zero
    13b8:	8009883a 	mov	r4,r16
    13bc:	df003e15 	stw	fp,248(sp)
    13c0:	0004b980 	call	4b98 <memchr>
    13c4:	da003e17 	ldw	r8,248(sp)
    13c8:	10046a26 	beq	r2,zero,2574 <___svfprintf_internal_r+0x1e30>
    13cc:	1405c83a 	sub	r2,r2,r16
    13d0:	d8802b15 	stw	r2,172(sp)
    13d4:	1003ea16 	blt	r2,zero,2380 <___svfprintf_internal_r+0x1c3c>
    13d8:	df002783 	ldbu	fp,158(sp)
    13dc:	d8802915 	stw	r2,164(sp)
    13e0:	dd002e15 	stw	r20,184(sp)
    13e4:	d8002a15 	stw	zero,168(sp)
    13e8:	d8003215 	stw	zero,200(sp)
    13ec:	003e9306 	br	e3c <__alt_mem_VGA_Subsystem_Char_Buf_Subsystem_Onchip_SRAM+0xf7000e3c>
    13f0:	8025883a 	mov	r18,r16
    13f4:	dc002903 	ldbu	r16,164(sp)
    13f8:	e011883a 	mov	r8,fp
    13fc:	84003fcc 	andi	r16,r16,255
    1400:	803f7c26 	beq	r16,zero,11f4 <__alt_mem_VGA_Subsystem_Char_Buf_Subsystem_Onchip_SRAM+0xf70011f4>
    1404:	d8c02b03 	ldbu	r3,172(sp)
    1408:	d8c02785 	stb	r3,158(sp)
    140c:	003f7906 	br	11f4 <__alt_mem_VGA_Subsystem_Char_Buf_Subsystem_Onchip_SRAM+0xf70011f4>
    1410:	8025883a 	mov	r18,r16
    1414:	dc002903 	ldbu	r16,164(sp)
    1418:	e011883a 	mov	r8,fp
    141c:	84003fcc 	andi	r16,r16,255
    1420:	8005741e 	bne	r16,zero,29f4 <___svfprintf_internal_r+0x22b0>
    1424:	01000074 	movhi	r4,1
    1428:	2138d104 	addi	r4,r4,-7356
    142c:	d9003a15 	stw	r4,232(sp)
    1430:	9080080c 	andi	r2,r18,32
    1434:	103f8e1e 	bne	r2,zero,1270 <__alt_mem_VGA_Subsystem_Char_Buf_Subsystem_Onchip_SRAM+0xf7001270>
    1438:	9080040c 	andi	r2,r18,16
    143c:	1002a726 	beq	r2,zero,1edc <___svfprintf_internal_r+0x1798>
    1440:	d8802e17 	ldw	r2,184(sp)
    1444:	002d883a 	mov	r22,zero
    1448:	15000017 	ldw	r20,0(r2)
    144c:	10800104 	addi	r2,r2,4
    1450:	d8802e15 	stw	r2,184(sp)
    1454:	003f8b06 	br	1284 <__alt_mem_VGA_Subsystem_Char_Buf_Subsystem_Onchip_SRAM+0xf7001284>
    1458:	84000054 	ori	r16,r16,1
    145c:	bc400007 	ldb	r17,0(r23)
    1460:	003d0d06 	br	898 <__alt_mem_VGA_Subsystem_Char_Buf_Subsystem_Onchip_SRAM+0xf7000898>
    1464:	d8802b07 	ldb	r2,172(sp)
    1468:	1002a41e 	bne	r2,zero,1efc <___svfprintf_internal_r+0x17b8>
    146c:	00c00044 	movi	r3,1
    1470:	d8c02905 	stb	r3,164(sp)
    1474:	00c00804 	movi	r3,32
    1478:	d8c02b05 	stb	r3,172(sp)
    147c:	bc400007 	ldb	r17,0(r23)
    1480:	003d0506 	br	898 <__alt_mem_VGA_Subsystem_Char_Buf_Subsystem_Onchip_SRAM+0xf7000898>
    1484:	8025883a 	mov	r18,r16
    1488:	dc002903 	ldbu	r16,164(sp)
    148c:	e011883a 	mov	r8,fp
    1490:	84003fcc 	andi	r16,r16,255
    1494:	803e0626 	beq	r16,zero,cb0 <__alt_mem_VGA_Subsystem_Char_Buf_Subsystem_Onchip_SRAM+0xf7000cb0>
    1498:	d8c02b03 	ldbu	r3,172(sp)
    149c:	d8c02785 	stb	r3,158(sp)
    14a0:	003e0306 	br	cb0 <__alt_mem_VGA_Subsystem_Char_Buf_Subsystem_Onchip_SRAM+0xf7000cb0>
    14a4:	bc400007 	ldb	r17,0(r23)
    14a8:	00801b04 	movi	r2,108
    14ac:	88830a26 	beq	r17,r2,20d8 <___svfprintf_internal_r+0x1994>
    14b0:	84000414 	ori	r16,r16,16
    14b4:	003cf806 	br	898 <__alt_mem_VGA_Subsystem_Char_Buf_Subsystem_Onchip_SRAM+0xf7000898>
    14b8:	8025883a 	mov	r18,r16
    14bc:	dc002903 	ldbu	r16,164(sp)
    14c0:	e011883a 	mov	r8,fp
    14c4:	84003fcc 	andi	r16,r16,255
    14c8:	8005471e 	bne	r16,zero,29e8 <___svfprintf_internal_r+0x22a4>
    14cc:	9080080c 	andi	r2,r18,32
    14d0:	10028c26 	beq	r2,zero,1f04 <___svfprintf_internal_r+0x17c0>
    14d4:	d9002e17 	ldw	r4,184(sp)
    14d8:	d9402f17 	ldw	r5,188(sp)
    14dc:	20800017 	ldw	r2,0(r4)
    14e0:	2807d7fa 	srai	r3,r5,31
    14e4:	21000104 	addi	r4,r4,4
    14e8:	d9002e15 	stw	r4,184(sp)
    14ec:	11400015 	stw	r5,0(r2)
    14f0:	10c00115 	stw	r3,4(r2)
    14f4:	003cbe06 	br	7f0 <__alt_mem_VGA_Subsystem_Char_Buf_Subsystem_Onchip_SRAM+0xf70007f0>
    14f8:	84001014 	ori	r16,r16,64
    14fc:	bc400007 	ldb	r17,0(r23)
    1500:	003ce506 	br	898 <__alt_mem_VGA_Subsystem_Char_Buf_Subsystem_Onchip_SRAM+0xf7000898>
    1504:	01000074 	movhi	r4,1
    1508:	2138d104 	addi	r4,r4,-7356
    150c:	0039883a 	mov	fp,zero
    1510:	d9003a15 	stw	r4,232(sp)
    1514:	04401e04 	movi	r17,120
    1518:	003f6906 	br	12c0 <__alt_mem_VGA_Subsystem_Char_Buf_Subsystem_Onchip_SRAM+0xf70012c0>
    151c:	8025883a 	mov	r18,r16
    1520:	dc002903 	ldbu	r16,164(sp)
    1524:	e011883a 	mov	r8,fp
    1528:	84003fcc 	andi	r16,r16,255
    152c:	8005261e 	bne	r16,zero,29c8 <___svfprintf_internal_r+0x2284>
    1530:	883d6526 	beq	r17,zero,ac8 <__alt_mem_VGA_Subsystem_Char_Buf_Subsystem_Onchip_SRAM+0xf7000ac8>
    1534:	00c00044 	movi	r3,1
    1538:	d8c02915 	stw	r3,164(sp)
    153c:	dc401405 	stb	r17,80(sp)
    1540:	d8002785 	stb	zero,158(sp)
    1544:	003f7a06 	br	1330 <__alt_mem_VGA_Subsystem_Char_Buf_Subsystem_Onchip_SRAM+0xf7001330>
    1548:	01000074 	movhi	r4,1
    154c:	2138d104 	addi	r4,r4,-7356
    1550:	d9003a15 	stw	r4,232(sp)
    1554:	d8c02e15 	stw	r3,184(sp)
    1558:	1025883a 	mov	r18,r2
    155c:	04401e04 	movi	r17,120
    1560:	a584b03a 	or	r2,r20,r22
    1564:	1000fa1e 	bne	r2,zero,1950 <___svfprintf_internal_r+0x120c>
    1568:	0039883a 	mov	fp,zero
    156c:	00800084 	movi	r2,2
    1570:	10803fcc 	andi	r2,r2,255
    1574:	00c00044 	movi	r3,1
    1578:	10c21626 	beq	r2,r3,1dd4 <___svfprintf_internal_r+0x1690>
    157c:	00c00084 	movi	r3,2
    1580:	10fe0e1e 	bne	r2,r3,dbc <__alt_mem_VGA_Subsystem_Char_Buf_Subsystem_Onchip_SRAM+0xf7000dbc>
    1584:	003d4606 	br	aa0 <__alt_mem_VGA_Subsystem_Char_Buf_Subsystem_Onchip_SRAM+0xf7000aa0>
    1588:	d8c02017 	ldw	r3,128(sp)
    158c:	003e7306 	br	f5c <__alt_mem_VGA_Subsystem_Char_Buf_Subsystem_Onchip_SRAM+0xf7000f5c>
    1590:	00801944 	movi	r2,101
    1594:	14407c0e 	bge	r2,r17,1788 <___svfprintf_internal_r+0x1044>
    1598:	d9003617 	ldw	r4,216(sp)
    159c:	d9403717 	ldw	r5,220(sp)
    15a0:	000d883a 	mov	r6,zero
    15a4:	000f883a 	mov	r7,zero
    15a8:	d8c03d15 	stw	r3,244(sp)
    15ac:	da003e15 	stw	r8,248(sp)
    15b0:	000a3100 	call	a310 <__eqdf2>
    15b4:	d8c03d17 	ldw	r3,244(sp)
    15b8:	da003e17 	ldw	r8,248(sp)
    15bc:	1000f51e 	bne	r2,zero,1994 <___svfprintf_internal_r+0x1250>
    15c0:	d8801f17 	ldw	r2,124(sp)
    15c4:	01000074 	movhi	r4,1
    15c8:	2138d804 	addi	r4,r4,-7328
    15cc:	18c00044 	addi	r3,r3,1
    15d0:	10800044 	addi	r2,r2,1
    15d4:	41000015 	stw	r4,0(r8)
    15d8:	01000044 	movi	r4,1
    15dc:	41000115 	stw	r4,4(r8)
    15e0:	d8c02015 	stw	r3,128(sp)
    15e4:	d8801f15 	stw	r2,124(sp)
    15e8:	010001c4 	movi	r4,7
    15ec:	20826616 	blt	r4,r2,1f88 <___svfprintf_internal_r+0x1844>
    15f0:	42000204 	addi	r8,r8,8
    15f4:	d8802617 	ldw	r2,152(sp)
    15f8:	d9403317 	ldw	r5,204(sp)
    15fc:	11400216 	blt	r2,r5,1608 <___svfprintf_internal_r+0xec4>
    1600:	9080004c 	andi	r2,r18,1
    1604:	103eb326 	beq	r2,zero,10d4 <__alt_mem_VGA_Subsystem_Char_Buf_Subsystem_Onchip_SRAM+0xf70010d4>
    1608:	d8803817 	ldw	r2,224(sp)
    160c:	d9003417 	ldw	r4,208(sp)
    1610:	d9403817 	ldw	r5,224(sp)
    1614:	1887883a 	add	r3,r3,r2
    1618:	d8801f17 	ldw	r2,124(sp)
    161c:	41000015 	stw	r4,0(r8)
    1620:	41400115 	stw	r5,4(r8)
    1624:	10800044 	addi	r2,r2,1
    1628:	d8c02015 	stw	r3,128(sp)
    162c:	d8801f15 	stw	r2,124(sp)
    1630:	010001c4 	movi	r4,7
    1634:	2082af16 	blt	r4,r2,20f4 <___svfprintf_internal_r+0x19b0>
    1638:	42000204 	addi	r8,r8,8
    163c:	d8803317 	ldw	r2,204(sp)
    1640:	143fffc4 	addi	r16,r2,-1
    1644:	043ea30e 	bge	zero,r16,10d4 <__alt_mem_VGA_Subsystem_Char_Buf_Subsystem_Onchip_SRAM+0xf70010d4>
    1648:	04400404 	movi	r17,16
    164c:	d8801f17 	ldw	r2,124(sp)
    1650:	8c00860e 	bge	r17,r16,186c <___svfprintf_internal_r+0x1128>
    1654:	01400074 	movhi	r5,1
    1658:	2978d884 	addi	r5,r5,-7326
    165c:	d9402c15 	stw	r5,176(sp)
    1660:	058001c4 	movi	r22,7
    1664:	dd002d17 	ldw	r20,180(sp)
    1668:	00000306 	br	1678 <___svfprintf_internal_r+0xf34>
    166c:	42000204 	addi	r8,r8,8
    1670:	843ffc04 	addi	r16,r16,-16
    1674:	8c00800e 	bge	r17,r16,1878 <___svfprintf_internal_r+0x1134>
    1678:	18c00404 	addi	r3,r3,16
    167c:	10800044 	addi	r2,r2,1
    1680:	45400015 	stw	r21,0(r8)
    1684:	44400115 	stw	r17,4(r8)
    1688:	d8c02015 	stw	r3,128(sp)
    168c:	d8801f15 	stw	r2,124(sp)
    1690:	b0bff60e 	bge	r22,r2,166c <__alt_mem_VGA_Subsystem_Char_Buf_Subsystem_Onchip_SRAM+0xf700166c>
    1694:	d9801e04 	addi	r6,sp,120
    1698:	a00b883a 	mov	r5,r20
    169c:	9809883a 	mov	r4,r19
    16a0:	00060b80 	call	60b8 <__ssprint_r>
    16a4:	103d0e1e 	bne	r2,zero,ae0 <__alt_mem_VGA_Subsystem_Char_Buf_Subsystem_Onchip_SRAM+0xf7000ae0>
    16a8:	d8c02017 	ldw	r3,128(sp)
    16ac:	d8801f17 	ldw	r2,124(sp)
    16b0:	da000404 	addi	r8,sp,16
    16b4:	003fee06 	br	1670 <__alt_mem_VGA_Subsystem_Char_Buf_Subsystem_Onchip_SRAM+0xf7001670>
    16b8:	d9403117 	ldw	r5,196(sp)
    16bc:	d8802917 	ldw	r2,164(sp)
    16c0:	28adc83a 	sub	r22,r5,r2
    16c4:	05be430e 	bge	zero,r22,fd4 <__alt_mem_VGA_Subsystem_Char_Buf_Subsystem_Onchip_SRAM+0xf7000fd4>
    16c8:	07000404 	movi	fp,16
    16cc:	d8801f17 	ldw	r2,124(sp)
    16d0:	e583a20e 	bge	fp,r22,255c <___svfprintf_internal_r+0x1e18>
    16d4:	01400074 	movhi	r5,1
    16d8:	2978d884 	addi	r5,r5,-7326
    16dc:	dc403015 	stw	r17,192(sp)
    16e0:	d9402c15 	stw	r5,176(sp)
    16e4:	b023883a 	mov	r17,r22
    16e8:	050001c4 	movi	r20,7
    16ec:	902d883a 	mov	r22,r18
    16f0:	8025883a 	mov	r18,r16
    16f4:	dc002d17 	ldw	r16,180(sp)
    16f8:	00000306 	br	1708 <___svfprintf_internal_r+0xfc4>
    16fc:	8c7ffc04 	addi	r17,r17,-16
    1700:	42000204 	addi	r8,r8,8
    1704:	e440110e 	bge	fp,r17,174c <___svfprintf_internal_r+0x1008>
    1708:	18c00404 	addi	r3,r3,16
    170c:	10800044 	addi	r2,r2,1
    1710:	45400015 	stw	r21,0(r8)
    1714:	47000115 	stw	fp,4(r8)
    1718:	d8c02015 	stw	r3,128(sp)
    171c:	d8801f15 	stw	r2,124(sp)
    1720:	a0bff60e 	bge	r20,r2,16fc <__alt_mem_VGA_Subsystem_Char_Buf_Subsystem_Onchip_SRAM+0xf70016fc>
    1724:	d9801e04 	addi	r6,sp,120
    1728:	800b883a 	mov	r5,r16
    172c:	9809883a 	mov	r4,r19
    1730:	00060b80 	call	60b8 <__ssprint_r>
    1734:	103cea1e 	bne	r2,zero,ae0 <__alt_mem_VGA_Subsystem_Char_Buf_Subsystem_Onchip_SRAM+0xf7000ae0>
    1738:	8c7ffc04 	addi	r17,r17,-16
    173c:	d8c02017 	ldw	r3,128(sp)
    1740:	d8801f17 	ldw	r2,124(sp)
    1744:	da000404 	addi	r8,sp,16
    1748:	e47fef16 	blt	fp,r17,1708 <__alt_mem_VGA_Subsystem_Char_Buf_Subsystem_Onchip_SRAM+0xf7001708>
    174c:	9021883a 	mov	r16,r18
    1750:	b025883a 	mov	r18,r22
    1754:	882d883a 	mov	r22,r17
    1758:	dc403017 	ldw	r17,192(sp)
    175c:	d9002c17 	ldw	r4,176(sp)
    1760:	1d87883a 	add	r3,r3,r22
    1764:	10800044 	addi	r2,r2,1
    1768:	41000015 	stw	r4,0(r8)
    176c:	45800115 	stw	r22,4(r8)
    1770:	d8c02015 	stw	r3,128(sp)
    1774:	d8801f15 	stw	r2,124(sp)
    1778:	010001c4 	movi	r4,7
    177c:	20819a16 	blt	r4,r2,1de8 <___svfprintf_internal_r+0x16a4>
    1780:	42000204 	addi	r8,r8,8
    1784:	003e1306 	br	fd4 <__alt_mem_VGA_Subsystem_Char_Buf_Subsystem_Onchip_SRAM+0xf7000fd4>
    1788:	d9403317 	ldw	r5,204(sp)
    178c:	00800044 	movi	r2,1
    1790:	18c00044 	addi	r3,r3,1
    1794:	1141710e 	bge	r2,r5,1d5c <___svfprintf_internal_r+0x1618>
    1798:	dc401f17 	ldw	r17,124(sp)
    179c:	00800044 	movi	r2,1
    17a0:	40800115 	stw	r2,4(r8)
    17a4:	8c400044 	addi	r17,r17,1
    17a8:	44000015 	stw	r16,0(r8)
    17ac:	d8c02015 	stw	r3,128(sp)
    17b0:	dc401f15 	stw	r17,124(sp)
    17b4:	008001c4 	movi	r2,7
    17b8:	14417416 	blt	r2,r17,1d8c <___svfprintf_internal_r+0x1648>
    17bc:	42000204 	addi	r8,r8,8
    17c0:	d8803817 	ldw	r2,224(sp)
    17c4:	d9003417 	ldw	r4,208(sp)
    17c8:	8c400044 	addi	r17,r17,1
    17cc:	10c7883a 	add	r3,r2,r3
    17d0:	40800115 	stw	r2,4(r8)
    17d4:	41000015 	stw	r4,0(r8)
    17d8:	d8c02015 	stw	r3,128(sp)
    17dc:	dc401f15 	stw	r17,124(sp)
    17e0:	008001c4 	movi	r2,7
    17e4:	14417216 	blt	r2,r17,1db0 <___svfprintf_internal_r+0x166c>
    17e8:	45800204 	addi	r22,r8,8
    17ec:	d9003617 	ldw	r4,216(sp)
    17f0:	d9403717 	ldw	r5,220(sp)
    17f4:	000d883a 	mov	r6,zero
    17f8:	000f883a 	mov	r7,zero
    17fc:	d8c03d15 	stw	r3,244(sp)
    1800:	000a3100 	call	a310 <__eqdf2>
    1804:	d8c03d17 	ldw	r3,244(sp)
    1808:	1000b326 	beq	r2,zero,1ad8 <___svfprintf_internal_r+0x1394>
    180c:	d9403317 	ldw	r5,204(sp)
    1810:	84000044 	addi	r16,r16,1
    1814:	8c400044 	addi	r17,r17,1
    1818:	28bfffc4 	addi	r2,r5,-1
    181c:	1887883a 	add	r3,r3,r2
    1820:	b0800115 	stw	r2,4(r22)
    1824:	b4000015 	stw	r16,0(r22)
    1828:	d8c02015 	stw	r3,128(sp)
    182c:	dc401f15 	stw	r17,124(sp)
    1830:	008001c4 	movi	r2,7
    1834:	1440d216 	blt	r2,r17,1b80 <___svfprintf_internal_r+0x143c>
    1838:	b5800204 	addi	r22,r22,8
    183c:	d9003b17 	ldw	r4,236(sp)
    1840:	df0022c4 	addi	fp,sp,139
    1844:	8c400044 	addi	r17,r17,1
    1848:	20c7883a 	add	r3,r4,r3
    184c:	b7000015 	stw	fp,0(r22)
    1850:	b1000115 	stw	r4,4(r22)
    1854:	d8c02015 	stw	r3,128(sp)
    1858:	dc401f15 	stw	r17,124(sp)
    185c:	008001c4 	movi	r2,7
    1860:	14400e16 	blt	r2,r17,189c <___svfprintf_internal_r+0x1158>
    1864:	b2000204 	addi	r8,r22,8
    1868:	003e1a06 	br	10d4 <__alt_mem_VGA_Subsystem_Char_Buf_Subsystem_Onchip_SRAM+0xf70010d4>
    186c:	01000074 	movhi	r4,1
    1870:	2138d884 	addi	r4,r4,-7326
    1874:	d9002c15 	stw	r4,176(sp)
    1878:	d9002c17 	ldw	r4,176(sp)
    187c:	1c07883a 	add	r3,r3,r16
    1880:	44000115 	stw	r16,4(r8)
    1884:	41000015 	stw	r4,0(r8)
    1888:	10800044 	addi	r2,r2,1
    188c:	d8c02015 	stw	r3,128(sp)
    1890:	d8801f15 	stw	r2,124(sp)
    1894:	010001c4 	movi	r4,7
    1898:	20be0d0e 	bge	r4,r2,10d0 <__alt_mem_VGA_Subsystem_Char_Buf_Subsystem_Onchip_SRAM+0xf70010d0>
    189c:	d9402d17 	ldw	r5,180(sp)
    18a0:	d9801e04 	addi	r6,sp,120
    18a4:	9809883a 	mov	r4,r19
    18a8:	00060b80 	call	60b8 <__ssprint_r>
    18ac:	103c8c1e 	bne	r2,zero,ae0 <__alt_mem_VGA_Subsystem_Char_Buf_Subsystem_Onchip_SRAM+0xf7000ae0>
    18b0:	d8c02017 	ldw	r3,128(sp)
    18b4:	da000404 	addi	r8,sp,16
    18b8:	003e0606 	br	10d4 <__alt_mem_VGA_Subsystem_Char_Buf_Subsystem_Onchip_SRAM+0xf70010d4>
    18bc:	d9402d17 	ldw	r5,180(sp)
    18c0:	d9801e04 	addi	r6,sp,120
    18c4:	9809883a 	mov	r4,r19
    18c8:	00060b80 	call	60b8 <__ssprint_r>
    18cc:	103e3d26 	beq	r2,zero,11c4 <__alt_mem_VGA_Subsystem_Char_Buf_Subsystem_Onchip_SRAM+0xf70011c4>
    18d0:	003c8306 	br	ae0 <__alt_mem_VGA_Subsystem_Char_Buf_Subsystem_Onchip_SRAM+0xf7000ae0>
    18d4:	d9402d17 	ldw	r5,180(sp)
    18d8:	d9801e04 	addi	r6,sp,120
    18dc:	9809883a 	mov	r4,r19
    18e0:	00060b80 	call	60b8 <__ssprint_r>
    18e4:	103c7e1e 	bne	r2,zero,ae0 <__alt_mem_VGA_Subsystem_Char_Buf_Subsystem_Onchip_SRAM+0xf7000ae0>
    18e8:	d8c02017 	ldw	r3,128(sp)
    18ec:	da000404 	addi	r8,sp,16
    18f0:	003deb06 	br	10a0 <__alt_mem_VGA_Subsystem_Char_Buf_Subsystem_Onchip_SRAM+0xf70010a0>
    18f4:	d9402d17 	ldw	r5,180(sp)
    18f8:	d9801e04 	addi	r6,sp,120
    18fc:	9809883a 	mov	r4,r19
    1900:	00060b80 	call	60b8 <__ssprint_r>
    1904:	103c761e 	bne	r2,zero,ae0 <__alt_mem_VGA_Subsystem_Char_Buf_Subsystem_Onchip_SRAM+0xf7000ae0>
    1908:	d8c02017 	ldw	r3,128(sp)
    190c:	da000404 	addi	r8,sp,16
    1910:	003d9f06 	br	f90 <__alt_mem_VGA_Subsystem_Char_Buf_Subsystem_Onchip_SRAM+0xf7000f90>
    1914:	d9402d17 	ldw	r5,180(sp)
    1918:	d9801e04 	addi	r6,sp,120
    191c:	9809883a 	mov	r4,r19
    1920:	00060b80 	call	60b8 <__ssprint_r>
    1924:	103c6e1e 	bne	r2,zero,ae0 <__alt_mem_VGA_Subsystem_Char_Buf_Subsystem_Onchip_SRAM+0xf7000ae0>
    1928:	d8c02017 	ldw	r3,128(sp)
    192c:	da000404 	addi	r8,sp,16
    1930:	003da506 	br	fc8 <__alt_mem_VGA_Subsystem_Char_Buf_Subsystem_Onchip_SRAM+0xf7000fc8>
    1934:	d9402a17 	ldw	r5,168(sp)
    1938:	d8002785 	stb	zero,158(sp)
    193c:	283f0816 	blt	r5,zero,1560 <__alt_mem_VGA_Subsystem_Char_Buf_Subsystem_Onchip_SRAM+0xf7001560>
    1940:	00ffdfc4 	movi	r3,-129
    1944:	a584b03a 	or	r2,r20,r22
    1948:	90e4703a 	and	r18,r18,r3
    194c:	103c5126 	beq	r2,zero,a94 <__alt_mem_VGA_Subsystem_Char_Buf_Subsystem_Onchip_SRAM+0xf7000a94>
    1950:	0039883a 	mov	fp,zero
    1954:	003e5a06 	br	12c0 <__alt_mem_VGA_Subsystem_Char_Buf_Subsystem_Onchip_SRAM+0xf70012c0>
    1958:	9080040c 	andi	r2,r18,16
    195c:	10013d26 	beq	r2,zero,1e54 <___svfprintf_internal_r+0x1710>
    1960:	d8c02e17 	ldw	r3,184(sp)
    1964:	d9002a17 	ldw	r4,168(sp)
    1968:	d8002785 	stb	zero,158(sp)
    196c:	18800104 	addi	r2,r3,4
    1970:	1d000017 	ldw	r20,0(r3)
    1974:	002d883a 	mov	r22,zero
    1978:	20013f16 	blt	r4,zero,1e78 <___svfprintf_internal_r+0x1734>
    197c:	00ffdfc4 	movi	r3,-129
    1980:	d8802e15 	stw	r2,184(sp)
    1984:	90e4703a 	and	r18,r18,r3
    1988:	a03d0926 	beq	r20,zero,db0 <__alt_mem_VGA_Subsystem_Char_Buf_Subsystem_Onchip_SRAM+0xf7000db0>
    198c:	0039883a 	mov	fp,zero
    1990:	003d0c06 	br	dc4 <__alt_mem_VGA_Subsystem_Char_Buf_Subsystem_Onchip_SRAM+0xf7000dc4>
    1994:	dc402617 	ldw	r17,152(sp)
    1998:	0441830e 	bge	zero,r17,1fa8 <___svfprintf_internal_r+0x1864>
    199c:	dc403217 	ldw	r17,200(sp)
    19a0:	d8803317 	ldw	r2,204(sp)
    19a4:	1440010e 	bge	r2,r17,19ac <___svfprintf_internal_r+0x1268>
    19a8:	1023883a 	mov	r17,r2
    19ac:	04400a0e 	bge	zero,r17,19d8 <___svfprintf_internal_r+0x1294>
    19b0:	d8801f17 	ldw	r2,124(sp)
    19b4:	1c47883a 	add	r3,r3,r17
    19b8:	44000015 	stw	r16,0(r8)
    19bc:	10800044 	addi	r2,r2,1
    19c0:	44400115 	stw	r17,4(r8)
    19c4:	d8c02015 	stw	r3,128(sp)
    19c8:	d8801f15 	stw	r2,124(sp)
    19cc:	010001c4 	movi	r4,7
    19d0:	20827516 	blt	r4,r2,23a8 <___svfprintf_internal_r+0x1c64>
    19d4:	42000204 	addi	r8,r8,8
    19d8:	88027b16 	blt	r17,zero,23c8 <___svfprintf_internal_r+0x1c84>
    19dc:	d9003217 	ldw	r4,200(sp)
    19e0:	2463c83a 	sub	r17,r4,r17
    19e4:	0440990e 	bge	zero,r17,1c4c <___svfprintf_internal_r+0x1508>
    19e8:	05800404 	movi	r22,16
    19ec:	d8801f17 	ldw	r2,124(sp)
    19f0:	b441530e 	bge	r22,r17,1f40 <___svfprintf_internal_r+0x17fc>
    19f4:	01000074 	movhi	r4,1
    19f8:	2138d884 	addi	r4,r4,-7326
    19fc:	d9002c15 	stw	r4,176(sp)
    1a00:	070001c4 	movi	fp,7
    1a04:	dd002d17 	ldw	r20,180(sp)
    1a08:	00000306 	br	1a18 <___svfprintf_internal_r+0x12d4>
    1a0c:	42000204 	addi	r8,r8,8
    1a10:	8c7ffc04 	addi	r17,r17,-16
    1a14:	b4414d0e 	bge	r22,r17,1f4c <___svfprintf_internal_r+0x1808>
    1a18:	18c00404 	addi	r3,r3,16
    1a1c:	10800044 	addi	r2,r2,1
    1a20:	45400015 	stw	r21,0(r8)
    1a24:	45800115 	stw	r22,4(r8)
    1a28:	d8c02015 	stw	r3,128(sp)
    1a2c:	d8801f15 	stw	r2,124(sp)
    1a30:	e0bff60e 	bge	fp,r2,1a0c <__alt_mem_VGA_Subsystem_Char_Buf_Subsystem_Onchip_SRAM+0xf7001a0c>
    1a34:	d9801e04 	addi	r6,sp,120
    1a38:	a00b883a 	mov	r5,r20
    1a3c:	9809883a 	mov	r4,r19
    1a40:	00060b80 	call	60b8 <__ssprint_r>
    1a44:	103c261e 	bne	r2,zero,ae0 <__alt_mem_VGA_Subsystem_Char_Buf_Subsystem_Onchip_SRAM+0xf7000ae0>
    1a48:	d8c02017 	ldw	r3,128(sp)
    1a4c:	d8801f17 	ldw	r2,124(sp)
    1a50:	da000404 	addi	r8,sp,16
    1a54:	003fee06 	br	1a10 <__alt_mem_VGA_Subsystem_Char_Buf_Subsystem_Onchip_SRAM+0xf7001a10>
    1a58:	d9402d17 	ldw	r5,180(sp)
    1a5c:	d9801e04 	addi	r6,sp,120
    1a60:	9809883a 	mov	r4,r19
    1a64:	00060b80 	call	60b8 <__ssprint_r>
    1a68:	103c1d1e 	bne	r2,zero,ae0 <__alt_mem_VGA_Subsystem_Char_Buf_Subsystem_Onchip_SRAM+0xf7000ae0>
    1a6c:	d8c02017 	ldw	r3,128(sp)
    1a70:	df002787 	ldb	fp,158(sp)
    1a74:	da000404 	addi	r8,sp,16
    1a78:	003d3806 	br	f5c <__alt_mem_VGA_Subsystem_Char_Buf_Subsystem_Onchip_SRAM+0xf7000f5c>
    1a7c:	9080040c 	andi	r2,r18,16
    1a80:	10005c26 	beq	r2,zero,1bf4 <___svfprintf_internal_r+0x14b0>
    1a84:	d8c02e17 	ldw	r3,184(sp)
    1a88:	d9002a17 	ldw	r4,168(sp)
    1a8c:	d8002785 	stb	zero,158(sp)
    1a90:	18800104 	addi	r2,r3,4
    1a94:	1d000017 	ldw	r20,0(r3)
    1a98:	002d883a 	mov	r22,zero
    1a9c:	20005e16 	blt	r4,zero,1c18 <___svfprintf_internal_r+0x14d4>
    1aa0:	00ffdfc4 	movi	r3,-129
    1aa4:	d8802e15 	stw	r2,184(sp)
    1aa8:	90e4703a 	and	r18,r18,r3
    1aac:	0039883a 	mov	fp,zero
    1ab0:	a03ddf26 	beq	r20,zero,1230 <__alt_mem_VGA_Subsystem_Char_Buf_Subsystem_Onchip_SRAM+0xf7001230>
    1ab4:	00800244 	movi	r2,9
    1ab8:	153c8e36 	bltu	r2,r20,cf4 <__alt_mem_VGA_Subsystem_Char_Buf_Subsystem_Onchip_SRAM+0xf7000cf4>
    1abc:	a5000c04 	addi	r20,r20,48
    1ac0:	dc001dc4 	addi	r16,sp,119
    1ac4:	dd001dc5 	stb	r20,119(sp)
    1ac8:	d8c02817 	ldw	r3,160(sp)
    1acc:	1c07c83a 	sub	r3,r3,r16
    1ad0:	d8c02b15 	stw	r3,172(sp)
    1ad4:	003cd306 	br	e24 <__alt_mem_VGA_Subsystem_Char_Buf_Subsystem_Onchip_SRAM+0xf7000e24>
    1ad8:	d8803317 	ldw	r2,204(sp)
    1adc:	143fffc4 	addi	r16,r2,-1
    1ae0:	043f560e 	bge	zero,r16,183c <__alt_mem_VGA_Subsystem_Char_Buf_Subsystem_Onchip_SRAM+0xf700183c>
    1ae4:	07000404 	movi	fp,16
    1ae8:	e403530e 	bge	fp,r16,2838 <___svfprintf_internal_r+0x20f4>
    1aec:	01400074 	movhi	r5,1
    1af0:	2978d884 	addi	r5,r5,-7326
    1af4:	d9402c15 	stw	r5,176(sp)
    1af8:	01c001c4 	movi	r7,7
    1afc:	dd002d17 	ldw	r20,180(sp)
    1b00:	00000306 	br	1b10 <___svfprintf_internal_r+0x13cc>
    1b04:	843ffc04 	addi	r16,r16,-16
    1b08:	b5800204 	addi	r22,r22,8
    1b0c:	e400130e 	bge	fp,r16,1b5c <___svfprintf_internal_r+0x1418>
    1b10:	18c00404 	addi	r3,r3,16
    1b14:	8c400044 	addi	r17,r17,1
    1b18:	b5400015 	stw	r21,0(r22)
    1b1c:	b7000115 	stw	fp,4(r22)
    1b20:	d8c02015 	stw	r3,128(sp)
    1b24:	dc401f15 	stw	r17,124(sp)
    1b28:	3c7ff60e 	bge	r7,r17,1b04 <__alt_mem_VGA_Subsystem_Char_Buf_Subsystem_Onchip_SRAM+0xf7001b04>
    1b2c:	d9801e04 	addi	r6,sp,120
    1b30:	a00b883a 	mov	r5,r20
    1b34:	9809883a 	mov	r4,r19
    1b38:	d9c03d15 	stw	r7,244(sp)
    1b3c:	00060b80 	call	60b8 <__ssprint_r>
    1b40:	d9c03d17 	ldw	r7,244(sp)
    1b44:	103be61e 	bne	r2,zero,ae0 <__alt_mem_VGA_Subsystem_Char_Buf_Subsystem_Onchip_SRAM+0xf7000ae0>
    1b48:	843ffc04 	addi	r16,r16,-16
    1b4c:	d8c02017 	ldw	r3,128(sp)
    1b50:	dc401f17 	ldw	r17,124(sp)
    1b54:	dd800404 	addi	r22,sp,16
    1b58:	e43fed16 	blt	fp,r16,1b10 <__alt_mem_VGA_Subsystem_Char_Buf_Subsystem_Onchip_SRAM+0xf7001b10>
    1b5c:	d8802c17 	ldw	r2,176(sp)
    1b60:	1c07883a 	add	r3,r3,r16
    1b64:	8c400044 	addi	r17,r17,1
    1b68:	b0800015 	stw	r2,0(r22)
    1b6c:	b4000115 	stw	r16,4(r22)
    1b70:	d8c02015 	stw	r3,128(sp)
    1b74:	dc401f15 	stw	r17,124(sp)
    1b78:	008001c4 	movi	r2,7
    1b7c:	147f2e0e 	bge	r2,r17,1838 <__alt_mem_VGA_Subsystem_Char_Buf_Subsystem_Onchip_SRAM+0xf7001838>
    1b80:	d9402d17 	ldw	r5,180(sp)
    1b84:	d9801e04 	addi	r6,sp,120
    1b88:	9809883a 	mov	r4,r19
    1b8c:	00060b80 	call	60b8 <__ssprint_r>
    1b90:	103bd31e 	bne	r2,zero,ae0 <__alt_mem_VGA_Subsystem_Char_Buf_Subsystem_Onchip_SRAM+0xf7000ae0>
    1b94:	d8c02017 	ldw	r3,128(sp)
    1b98:	dc401f17 	ldw	r17,124(sp)
    1b9c:	dd800404 	addi	r22,sp,16
    1ba0:	003f2606 	br	183c <__alt_mem_VGA_Subsystem_Char_Buf_Subsystem_Onchip_SRAM+0xf700183c>
    1ba4:	9080040c 	andi	r2,r18,16
    1ba8:	1000c326 	beq	r2,zero,1eb8 <___svfprintf_internal_r+0x1774>
    1bac:	d9402e17 	ldw	r5,184(sp)
    1bb0:	2d000017 	ldw	r20,0(r5)
    1bb4:	29400104 	addi	r5,r5,4
    1bb8:	d9402e15 	stw	r5,184(sp)
    1bbc:	a02dd7fa 	srai	r22,r20,31
    1bc0:	b005883a 	mov	r2,r22
    1bc4:	103c430e 	bge	r2,zero,cd4 <__alt_mem_VGA_Subsystem_Char_Buf_Subsystem_Onchip_SRAM+0xf7000cd4>
    1bc8:	d9402a17 	ldw	r5,168(sp)
    1bcc:	0529c83a 	sub	r20,zero,r20
    1bd0:	07000b44 	movi	fp,45
    1bd4:	a004c03a 	cmpne	r2,r20,zero
    1bd8:	05adc83a 	sub	r22,zero,r22
    1bdc:	df002785 	stb	fp,158(sp)
    1be0:	b0adc83a 	sub	r22,r22,r2
    1be4:	28022e16 	blt	r5,zero,24a0 <___svfprintf_internal_r+0x1d5c>
    1be8:	00bfdfc4 	movi	r2,-129
    1bec:	90a4703a 	and	r18,r18,r2
    1bf0:	003c3f06 	br	cf0 <__alt_mem_VGA_Subsystem_Char_Buf_Subsystem_Onchip_SRAM+0xf7000cf0>
    1bf4:	9080100c 	andi	r2,r18,64
    1bf8:	d8002785 	stb	zero,158(sp)
    1bfc:	10012526 	beq	r2,zero,2094 <___svfprintf_internal_r+0x1950>
    1c00:	d9402e17 	ldw	r5,184(sp)
    1c04:	d8c02a17 	ldw	r3,168(sp)
    1c08:	002d883a 	mov	r22,zero
    1c0c:	28800104 	addi	r2,r5,4
    1c10:	2d00000b 	ldhu	r20,0(r5)
    1c14:	183fa20e 	bge	r3,zero,1aa0 <__alt_mem_VGA_Subsystem_Char_Buf_Subsystem_Onchip_SRAM+0xf7001aa0>
    1c18:	d8802e15 	stw	r2,184(sp)
    1c1c:	0039883a 	mov	fp,zero
    1c20:	a584b03a 	or	r2,r20,r22
    1c24:	103c321e 	bne	r2,zero,cf0 <__alt_mem_VGA_Subsystem_Char_Buf_Subsystem_Onchip_SRAM+0xf7000cf0>
    1c28:	00800044 	movi	r2,1
    1c2c:	003e5006 	br	1570 <__alt_mem_VGA_Subsystem_Char_Buf_Subsystem_Onchip_SRAM+0xf7001570>
    1c30:	d9402d17 	ldw	r5,180(sp)
    1c34:	d9801e04 	addi	r6,sp,120
    1c38:	9809883a 	mov	r4,r19
    1c3c:	00060b80 	call	60b8 <__ssprint_r>
    1c40:	103ba71e 	bne	r2,zero,ae0 <__alt_mem_VGA_Subsystem_Char_Buf_Subsystem_Onchip_SRAM+0xf7000ae0>
    1c44:	d8c02017 	ldw	r3,128(sp)
    1c48:	da000404 	addi	r8,sp,16
    1c4c:	d9003217 	ldw	r4,200(sp)
    1c50:	d8802617 	ldw	r2,152(sp)
    1c54:	d9403317 	ldw	r5,204(sp)
    1c58:	8123883a 	add	r17,r16,r4
    1c5c:	11400216 	blt	r2,r5,1c68 <___svfprintf_internal_r+0x1524>
    1c60:	9100004c 	andi	r4,r18,1
    1c64:	20000d26 	beq	r4,zero,1c9c <___svfprintf_internal_r+0x1558>
    1c68:	d9003817 	ldw	r4,224(sp)
    1c6c:	d9403417 	ldw	r5,208(sp)
    1c70:	1907883a 	add	r3,r3,r4
    1c74:	d9001f17 	ldw	r4,124(sp)
    1c78:	41400015 	stw	r5,0(r8)
    1c7c:	d9403817 	ldw	r5,224(sp)
    1c80:	21000044 	addi	r4,r4,1
    1c84:	d8c02015 	stw	r3,128(sp)
    1c88:	41400115 	stw	r5,4(r8)
    1c8c:	d9001f15 	stw	r4,124(sp)
    1c90:	014001c4 	movi	r5,7
    1c94:	2901dc16 	blt	r5,r4,2408 <___svfprintf_internal_r+0x1cc4>
    1c98:	42000204 	addi	r8,r8,8
    1c9c:	d9003317 	ldw	r4,204(sp)
    1ca0:	8121883a 	add	r16,r16,r4
    1ca4:	2085c83a 	sub	r2,r4,r2
    1ca8:	8461c83a 	sub	r16,r16,r17
    1cac:	1400010e 	bge	r2,r16,1cb4 <___svfprintf_internal_r+0x1570>
    1cb0:	1021883a 	mov	r16,r2
    1cb4:	04000a0e 	bge	zero,r16,1ce0 <___svfprintf_internal_r+0x159c>
    1cb8:	d9001f17 	ldw	r4,124(sp)
    1cbc:	1c07883a 	add	r3,r3,r16
    1cc0:	44400015 	stw	r17,0(r8)
    1cc4:	21000044 	addi	r4,r4,1
    1cc8:	44000115 	stw	r16,4(r8)
    1ccc:	d8c02015 	stw	r3,128(sp)
    1cd0:	d9001f15 	stw	r4,124(sp)
    1cd4:	014001c4 	movi	r5,7
    1cd8:	2901e616 	blt	r5,r4,2474 <___svfprintf_internal_r+0x1d30>
    1cdc:	42000204 	addi	r8,r8,8
    1ce0:	8001f616 	blt	r16,zero,24bc <___svfprintf_internal_r+0x1d78>
    1ce4:	1421c83a 	sub	r16,r2,r16
    1ce8:	043cfa0e 	bge	zero,r16,10d4 <__alt_mem_VGA_Subsystem_Char_Buf_Subsystem_Onchip_SRAM+0xf70010d4>
    1cec:	04400404 	movi	r17,16
    1cf0:	d8801f17 	ldw	r2,124(sp)
    1cf4:	8c3edd0e 	bge	r17,r16,186c <__alt_mem_VGA_Subsystem_Char_Buf_Subsystem_Onchip_SRAM+0xf700186c>
    1cf8:	01400074 	movhi	r5,1
    1cfc:	2978d884 	addi	r5,r5,-7326
    1d00:	d9402c15 	stw	r5,176(sp)
    1d04:	058001c4 	movi	r22,7
    1d08:	dd002d17 	ldw	r20,180(sp)
    1d0c:	00000306 	br	1d1c <___svfprintf_internal_r+0x15d8>
    1d10:	42000204 	addi	r8,r8,8
    1d14:	843ffc04 	addi	r16,r16,-16
    1d18:	8c3ed70e 	bge	r17,r16,1878 <__alt_mem_VGA_Subsystem_Char_Buf_Subsystem_Onchip_SRAM+0xf7001878>
    1d1c:	18c00404 	addi	r3,r3,16
    1d20:	10800044 	addi	r2,r2,1
    1d24:	45400015 	stw	r21,0(r8)
    1d28:	44400115 	stw	r17,4(r8)
    1d2c:	d8c02015 	stw	r3,128(sp)
    1d30:	d8801f15 	stw	r2,124(sp)
    1d34:	b0bff60e 	bge	r22,r2,1d10 <__alt_mem_VGA_Subsystem_Char_Buf_Subsystem_Onchip_SRAM+0xf7001d10>
    1d38:	d9801e04 	addi	r6,sp,120
    1d3c:	a00b883a 	mov	r5,r20
    1d40:	9809883a 	mov	r4,r19
    1d44:	00060b80 	call	60b8 <__ssprint_r>
    1d48:	103b651e 	bne	r2,zero,ae0 <__alt_mem_VGA_Subsystem_Char_Buf_Subsystem_Onchip_SRAM+0xf7000ae0>
    1d4c:	d8c02017 	ldw	r3,128(sp)
    1d50:	d8801f17 	ldw	r2,124(sp)
    1d54:	da000404 	addi	r8,sp,16
    1d58:	003fee06 	br	1d14 <__alt_mem_VGA_Subsystem_Char_Buf_Subsystem_Onchip_SRAM+0xf7001d14>
    1d5c:	9088703a 	and	r4,r18,r2
    1d60:	203e8d1e 	bne	r4,zero,1798 <__alt_mem_VGA_Subsystem_Char_Buf_Subsystem_Onchip_SRAM+0xf7001798>
    1d64:	dc401f17 	ldw	r17,124(sp)
    1d68:	40800115 	stw	r2,4(r8)
    1d6c:	44000015 	stw	r16,0(r8)
    1d70:	8c400044 	addi	r17,r17,1
    1d74:	d8c02015 	stw	r3,128(sp)
    1d78:	dc401f15 	stw	r17,124(sp)
    1d7c:	008001c4 	movi	r2,7
    1d80:	147f7f16 	blt	r2,r17,1b80 <__alt_mem_VGA_Subsystem_Char_Buf_Subsystem_Onchip_SRAM+0xf7001b80>
    1d84:	45800204 	addi	r22,r8,8
    1d88:	003eac06 	br	183c <__alt_mem_VGA_Subsystem_Char_Buf_Subsystem_Onchip_SRAM+0xf700183c>
    1d8c:	d9402d17 	ldw	r5,180(sp)
    1d90:	d9801e04 	addi	r6,sp,120
    1d94:	9809883a 	mov	r4,r19
    1d98:	00060b80 	call	60b8 <__ssprint_r>
    1d9c:	103b501e 	bne	r2,zero,ae0 <__alt_mem_VGA_Subsystem_Char_Buf_Subsystem_Onchip_SRAM+0xf7000ae0>
    1da0:	d8c02017 	ldw	r3,128(sp)
    1da4:	dc401f17 	ldw	r17,124(sp)
    1da8:	da000404 	addi	r8,sp,16
    1dac:	003e8406 	br	17c0 <__alt_mem_VGA_Subsystem_Char_Buf_Subsystem_Onchip_SRAM+0xf70017c0>
    1db0:	d9402d17 	ldw	r5,180(sp)
    1db4:	d9801e04 	addi	r6,sp,120
    1db8:	9809883a 	mov	r4,r19
    1dbc:	00060b80 	call	60b8 <__ssprint_r>
    1dc0:	103b471e 	bne	r2,zero,ae0 <__alt_mem_VGA_Subsystem_Char_Buf_Subsystem_Onchip_SRAM+0xf7000ae0>
    1dc4:	d8c02017 	ldw	r3,128(sp)
    1dc8:	dc401f17 	ldw	r17,124(sp)
    1dcc:	dd800404 	addi	r22,sp,16
    1dd0:	003e8606 	br	17ec <__alt_mem_VGA_Subsystem_Char_Buf_Subsystem_Onchip_SRAM+0xf70017ec>
    1dd4:	0029883a 	mov	r20,zero
    1dd8:	a5000c04 	addi	r20,r20,48
    1ddc:	dc001dc4 	addi	r16,sp,119
    1de0:	dd001dc5 	stb	r20,119(sp)
    1de4:	003f3806 	br	1ac8 <__alt_mem_VGA_Subsystem_Char_Buf_Subsystem_Onchip_SRAM+0xf7001ac8>
    1de8:	d9402d17 	ldw	r5,180(sp)
    1dec:	d9801e04 	addi	r6,sp,120
    1df0:	9809883a 	mov	r4,r19
    1df4:	00060b80 	call	60b8 <__ssprint_r>
    1df8:	103b391e 	bne	r2,zero,ae0 <__alt_mem_VGA_Subsystem_Char_Buf_Subsystem_Onchip_SRAM+0xf7000ae0>
    1dfc:	d8c02017 	ldw	r3,128(sp)
    1e00:	da000404 	addi	r8,sp,16
    1e04:	003c7306 	br	fd4 <__alt_mem_VGA_Subsystem_Char_Buf_Subsystem_Onchip_SRAM+0xf7000fd4>
    1e08:	d9003617 	ldw	r4,216(sp)
    1e0c:	d9403717 	ldw	r5,220(sp)
    1e10:	da003e15 	stw	r8,248(sp)
    1e14:	0005e7c0 	call	5e7c <__fpclassifyd>
    1e18:	da003e17 	ldw	r8,248(sp)
    1e1c:	1000bd1e 	bne	r2,zero,2114 <___svfprintf_internal_r+0x19d0>
    1e20:	008011c4 	movi	r2,71
    1e24:	14411e0e 	bge	r2,r17,22a0 <___svfprintf_internal_r+0x1b5c>
    1e28:	04000074 	movhi	r16,1
    1e2c:	8438cb04 	addi	r16,r16,-7380
    1e30:	00c000c4 	movi	r3,3
    1e34:	00bfdfc4 	movi	r2,-129
    1e38:	d8c02915 	stw	r3,164(sp)
    1e3c:	90a4703a 	and	r18,r18,r2
    1e40:	df002783 	ldbu	fp,158(sp)
    1e44:	d8c02b15 	stw	r3,172(sp)
    1e48:	d8002a15 	stw	zero,168(sp)
    1e4c:	d8003215 	stw	zero,200(sp)
    1e50:	003bfa06 	br	e3c <__alt_mem_VGA_Subsystem_Char_Buf_Subsystem_Onchip_SRAM+0xf7000e3c>
    1e54:	9080100c 	andi	r2,r18,64
    1e58:	d8002785 	stb	zero,158(sp)
    1e5c:	10009426 	beq	r2,zero,20b0 <___svfprintf_internal_r+0x196c>
    1e60:	d9402e17 	ldw	r5,184(sp)
    1e64:	d8c02a17 	ldw	r3,168(sp)
    1e68:	002d883a 	mov	r22,zero
    1e6c:	28800104 	addi	r2,r5,4
    1e70:	2d00000b 	ldhu	r20,0(r5)
    1e74:	183ec10e 	bge	r3,zero,197c <__alt_mem_VGA_Subsystem_Char_Buf_Subsystem_Onchip_SRAM+0xf700197c>
    1e78:	a586b03a 	or	r3,r20,r22
    1e7c:	d8802e15 	stw	r2,184(sp)
    1e80:	183ec21e 	bne	r3,zero,198c <__alt_mem_VGA_Subsystem_Char_Buf_Subsystem_Onchip_SRAM+0xf700198c>
    1e84:	0039883a 	mov	fp,zero
    1e88:	0005883a 	mov	r2,zero
    1e8c:	003db806 	br	1570 <__alt_mem_VGA_Subsystem_Char_Buf_Subsystem_Onchip_SRAM+0xf7001570>
    1e90:	d8c02e17 	ldw	r3,184(sp)
    1e94:	d9002e17 	ldw	r4,184(sp)
    1e98:	d9402e17 	ldw	r5,184(sp)
    1e9c:	18c00017 	ldw	r3,0(r3)
    1ea0:	21000117 	ldw	r4,4(r4)
    1ea4:	29400204 	addi	r5,r5,8
    1ea8:	d8c03615 	stw	r3,216(sp)
    1eac:	d9003715 	stw	r4,220(sp)
    1eb0:	d9402e15 	stw	r5,184(sp)
    1eb4:	003b5a06 	br	c20 <__alt_mem_VGA_Subsystem_Char_Buf_Subsystem_Onchip_SRAM+0xf7000c20>
    1eb8:	9080100c 	andi	r2,r18,64
    1ebc:	10010726 	beq	r2,zero,22dc <___svfprintf_internal_r+0x1b98>
    1ec0:	d8802e17 	ldw	r2,184(sp)
    1ec4:	1500000f 	ldh	r20,0(r2)
    1ec8:	10800104 	addi	r2,r2,4
    1ecc:	d8802e15 	stw	r2,184(sp)
    1ed0:	a02dd7fa 	srai	r22,r20,31
    1ed4:	b005883a 	mov	r2,r22
    1ed8:	003b7d06 	br	cd0 <__alt_mem_VGA_Subsystem_Char_Buf_Subsystem_Onchip_SRAM+0xf7000cd0>
    1edc:	9080100c 	andi	r2,r18,64
    1ee0:	10010526 	beq	r2,zero,22f8 <___svfprintf_internal_r+0x1bb4>
    1ee4:	d8c02e17 	ldw	r3,184(sp)
    1ee8:	002d883a 	mov	r22,zero
    1eec:	1d00000b 	ldhu	r20,0(r3)
    1ef0:	18c00104 	addi	r3,r3,4
    1ef4:	d8c02e15 	stw	r3,184(sp)
    1ef8:	003ce206 	br	1284 <__alt_mem_VGA_Subsystem_Char_Buf_Subsystem_Onchip_SRAM+0xf7001284>
    1efc:	bc400007 	ldb	r17,0(r23)
    1f00:	003a6506 	br	898 <__alt_mem_VGA_Subsystem_Char_Buf_Subsystem_Onchip_SRAM+0xf7000898>
    1f04:	9080040c 	andi	r2,r18,16
    1f08:	10010126 	beq	r2,zero,2310 <___svfprintf_internal_r+0x1bcc>
    1f0c:	d8c02e17 	ldw	r3,184(sp)
    1f10:	d9002f17 	ldw	r4,188(sp)
    1f14:	18800017 	ldw	r2,0(r3)
    1f18:	18c00104 	addi	r3,r3,4
    1f1c:	d8c02e15 	stw	r3,184(sp)
    1f20:	11000015 	stw	r4,0(r2)
    1f24:	003a3206 	br	7f0 <__alt_mem_VGA_Subsystem_Char_Buf_Subsystem_Onchip_SRAM+0xf70007f0>
    1f28:	d9002a17 	ldw	r4,168(sp)
    1f2c:	d8002785 	stb	zero,158(sp)
    1f30:	203d8d16 	blt	r4,zero,1568 <__alt_mem_VGA_Subsystem_Char_Buf_Subsystem_Onchip_SRAM+0xf7001568>
    1f34:	00bfdfc4 	movi	r2,-129
    1f38:	90a4703a 	and	r18,r18,r2
    1f3c:	003ad506 	br	a94 <__alt_mem_VGA_Subsystem_Char_Buf_Subsystem_Onchip_SRAM+0xf7000a94>
    1f40:	01400074 	movhi	r5,1
    1f44:	2978d884 	addi	r5,r5,-7326
    1f48:	d9402c15 	stw	r5,176(sp)
    1f4c:	d9402c17 	ldw	r5,176(sp)
    1f50:	1c47883a 	add	r3,r3,r17
    1f54:	10800044 	addi	r2,r2,1
    1f58:	41400015 	stw	r5,0(r8)
    1f5c:	44400115 	stw	r17,4(r8)
    1f60:	d8c02015 	stw	r3,128(sp)
    1f64:	d8801f15 	stw	r2,124(sp)
    1f68:	010001c4 	movi	r4,7
    1f6c:	20bf3016 	blt	r4,r2,1c30 <__alt_mem_VGA_Subsystem_Char_Buf_Subsystem_Onchip_SRAM+0xf7001c30>
    1f70:	42000204 	addi	r8,r8,8
    1f74:	003f3506 	br	1c4c <__alt_mem_VGA_Subsystem_Char_Buf_Subsystem_Onchip_SRAM+0xf7001c4c>
    1f78:	01000074 	movhi	r4,1
    1f7c:	2138d884 	addi	r4,r4,-7326
    1f80:	d9002c15 	stw	r4,176(sp)
    1f84:	003c3c06 	br	1078 <__alt_mem_VGA_Subsystem_Char_Buf_Subsystem_Onchip_SRAM+0xf7001078>
    1f88:	d9402d17 	ldw	r5,180(sp)
    1f8c:	d9801e04 	addi	r6,sp,120
    1f90:	9809883a 	mov	r4,r19
    1f94:	00060b80 	call	60b8 <__ssprint_r>
    1f98:	103ad11e 	bne	r2,zero,ae0 <__alt_mem_VGA_Subsystem_Char_Buf_Subsystem_Onchip_SRAM+0xf7000ae0>
    1f9c:	d8c02017 	ldw	r3,128(sp)
    1fa0:	da000404 	addi	r8,sp,16
    1fa4:	003d9306 	br	15f4 <__alt_mem_VGA_Subsystem_Char_Buf_Subsystem_Onchip_SRAM+0xf70015f4>
    1fa8:	d8801f17 	ldw	r2,124(sp)
    1fac:	01400074 	movhi	r5,1
    1fb0:	01000044 	movi	r4,1
    1fb4:	18c00044 	addi	r3,r3,1
    1fb8:	10800044 	addi	r2,r2,1
    1fbc:	2978d804 	addi	r5,r5,-7328
    1fc0:	41000115 	stw	r4,4(r8)
    1fc4:	41400015 	stw	r5,0(r8)
    1fc8:	d8c02015 	stw	r3,128(sp)
    1fcc:	d8801f15 	stw	r2,124(sp)
    1fd0:	010001c4 	movi	r4,7
    1fd4:	2080b516 	blt	r4,r2,22ac <___svfprintf_internal_r+0x1b68>
    1fd8:	42000204 	addi	r8,r8,8
    1fdc:	8800041e 	bne	r17,zero,1ff0 <___svfprintf_internal_r+0x18ac>
    1fe0:	d8803317 	ldw	r2,204(sp)
    1fe4:	1000021e 	bne	r2,zero,1ff0 <___svfprintf_internal_r+0x18ac>
    1fe8:	9080004c 	andi	r2,r18,1
    1fec:	103c3926 	beq	r2,zero,10d4 <__alt_mem_VGA_Subsystem_Char_Buf_Subsystem_Onchip_SRAM+0xf70010d4>
    1ff0:	d9003817 	ldw	r4,224(sp)
    1ff4:	d8801f17 	ldw	r2,124(sp)
    1ff8:	d9403417 	ldw	r5,208(sp)
    1ffc:	20c7883a 	add	r3,r4,r3
    2000:	10800044 	addi	r2,r2,1
    2004:	41000115 	stw	r4,4(r8)
    2008:	41400015 	stw	r5,0(r8)
    200c:	d8c02015 	stw	r3,128(sp)
    2010:	d8801f15 	stw	r2,124(sp)
    2014:	010001c4 	movi	r4,7
    2018:	20818016 	blt	r4,r2,261c <___svfprintf_internal_r+0x1ed8>
    201c:	42000204 	addi	r8,r8,8
    2020:	0463c83a 	sub	r17,zero,r17
    2024:	0440cb0e 	bge	zero,r17,2354 <___svfprintf_internal_r+0x1c10>
    2028:	05800404 	movi	r22,16
    202c:	b440e80e 	bge	r22,r17,23d0 <___svfprintf_internal_r+0x1c8c>
    2030:	01400074 	movhi	r5,1
    2034:	2978d884 	addi	r5,r5,-7326
    2038:	d9402c15 	stw	r5,176(sp)
    203c:	070001c4 	movi	fp,7
    2040:	dd002d17 	ldw	r20,180(sp)
    2044:	00000306 	br	2054 <___svfprintf_internal_r+0x1910>
    2048:	42000204 	addi	r8,r8,8
    204c:	8c7ffc04 	addi	r17,r17,-16
    2050:	b440e20e 	bge	r22,r17,23dc <___svfprintf_internal_r+0x1c98>
    2054:	18c00404 	addi	r3,r3,16
    2058:	10800044 	addi	r2,r2,1
    205c:	45400015 	stw	r21,0(r8)
    2060:	45800115 	stw	r22,4(r8)
    2064:	d8c02015 	stw	r3,128(sp)
    2068:	d8801f15 	stw	r2,124(sp)
    206c:	e0bff60e 	bge	fp,r2,2048 <__alt_mem_VGA_Subsystem_Char_Buf_Subsystem_Onchip_SRAM+0xf7002048>
    2070:	d9801e04 	addi	r6,sp,120
    2074:	a00b883a 	mov	r5,r20
    2078:	9809883a 	mov	r4,r19
    207c:	00060b80 	call	60b8 <__ssprint_r>
    2080:	103a971e 	bne	r2,zero,ae0 <__alt_mem_VGA_Subsystem_Char_Buf_Subsystem_Onchip_SRAM+0xf7000ae0>
    2084:	d8c02017 	ldw	r3,128(sp)
    2088:	d8801f17 	ldw	r2,124(sp)
    208c:	da000404 	addi	r8,sp,16
    2090:	003fee06 	br	204c <__alt_mem_VGA_Subsystem_Char_Buf_Subsystem_Onchip_SRAM+0xf700204c>
    2094:	d9002e17 	ldw	r4,184(sp)
    2098:	d9402a17 	ldw	r5,168(sp)
    209c:	002d883a 	mov	r22,zero
    20a0:	20800104 	addi	r2,r4,4
    20a4:	25000017 	ldw	r20,0(r4)
    20a8:	283e7d0e 	bge	r5,zero,1aa0 <__alt_mem_VGA_Subsystem_Char_Buf_Subsystem_Onchip_SRAM+0xf7001aa0>
    20ac:	003eda06 	br	1c18 <__alt_mem_VGA_Subsystem_Char_Buf_Subsystem_Onchip_SRAM+0xf7001c18>
    20b0:	d9002e17 	ldw	r4,184(sp)
    20b4:	d9402a17 	ldw	r5,168(sp)
    20b8:	002d883a 	mov	r22,zero
    20bc:	20800104 	addi	r2,r4,4
    20c0:	25000017 	ldw	r20,0(r4)
    20c4:	283e2d0e 	bge	r5,zero,197c <__alt_mem_VGA_Subsystem_Char_Buf_Subsystem_Onchip_SRAM+0xf700197c>
    20c8:	003f6b06 	br	1e78 <__alt_mem_VGA_Subsystem_Char_Buf_Subsystem_Onchip_SRAM+0xf7001e78>
    20cc:	d8c02e15 	stw	r3,184(sp)
    20d0:	0039883a 	mov	fp,zero
    20d4:	003ed206 	br	1c20 <__alt_mem_VGA_Subsystem_Char_Buf_Subsystem_Onchip_SRAM+0xf7001c20>
    20d8:	bc400043 	ldbu	r17,1(r23)
    20dc:	84000814 	ori	r16,r16,32
    20e0:	bdc00044 	addi	r23,r23,1
    20e4:	8c403fcc 	andi	r17,r17,255
    20e8:	8c40201c 	xori	r17,r17,128
    20ec:	8c7fe004 	addi	r17,r17,-128
    20f0:	0039e906 	br	898 <__alt_mem_VGA_Subsystem_Char_Buf_Subsystem_Onchip_SRAM+0xf7000898>
    20f4:	d9402d17 	ldw	r5,180(sp)
    20f8:	d9801e04 	addi	r6,sp,120
    20fc:	9809883a 	mov	r4,r19
    2100:	00060b80 	call	60b8 <__ssprint_r>
    2104:	103a761e 	bne	r2,zero,ae0 <__alt_mem_VGA_Subsystem_Char_Buf_Subsystem_Onchip_SRAM+0xf7000ae0>
    2108:	d8c02017 	ldw	r3,128(sp)
    210c:	da000404 	addi	r8,sp,16
    2110:	003d4a06 	br	163c <__alt_mem_VGA_Subsystem_Char_Buf_Subsystem_Onchip_SRAM+0xf700163c>
    2114:	d9002a17 	ldw	r4,168(sp)
    2118:	05bff7c4 	movi	r22,-33
    211c:	00bfffc4 	movi	r2,-1
    2120:	8dac703a 	and	r22,r17,r22
    2124:	20806a26 	beq	r4,r2,22d0 <___svfprintf_internal_r+0x1b8c>
    2128:	008011c4 	movi	r2,71
    212c:	b0813726 	beq	r22,r2,260c <___svfprintf_internal_r+0x1ec8>
    2130:	d9003717 	ldw	r4,220(sp)
    2134:	90c04014 	ori	r3,r18,256
    2138:	d8c02c15 	stw	r3,176(sp)
    213c:	20015d16 	blt	r4,zero,26b4 <___svfprintf_internal_r+0x1f70>
    2140:	dd003717 	ldw	r20,220(sp)
    2144:	d8002905 	stb	zero,164(sp)
    2148:	00801984 	movi	r2,102
    214c:	88814026 	beq	r17,r2,2650 <___svfprintf_internal_r+0x1f0c>
    2150:	00801184 	movi	r2,70
    2154:	88817126 	beq	r17,r2,271c <___svfprintf_internal_r+0x1fd8>
    2158:	00801144 	movi	r2,69
    215c:	b0816226 	beq	r22,r2,26e8 <___svfprintf_internal_r+0x1fa4>
    2160:	d8c02a17 	ldw	r3,168(sp)
    2164:	d8802104 	addi	r2,sp,132
    2168:	d8800315 	stw	r2,12(sp)
    216c:	d9403617 	ldw	r5,216(sp)
    2170:	d8802504 	addi	r2,sp,148
    2174:	d8800215 	stw	r2,8(sp)
    2178:	d8802604 	addi	r2,sp,152
    217c:	d8c00015 	stw	r3,0(sp)
    2180:	d8800115 	stw	r2,4(sp)
    2184:	01c00084 	movi	r7,2
    2188:	a00d883a 	mov	r6,r20
    218c:	9809883a 	mov	r4,r19
    2190:	d8c03d15 	stw	r3,244(sp)
    2194:	da003e15 	stw	r8,248(sp)
    2198:	0002c280 	call	2c28 <_dtoa_r>
    219c:	1021883a 	mov	r16,r2
    21a0:	008019c4 	movi	r2,103
    21a4:	d8c03d17 	ldw	r3,244(sp)
    21a8:	da003e17 	ldw	r8,248(sp)
    21ac:	8880e726 	beq	r17,r2,254c <___svfprintf_internal_r+0x1e08>
    21b0:	008011c4 	movi	r2,71
    21b4:	8880d426 	beq	r17,r2,2508 <___svfprintf_internal_r+0x1dc4>
    21b8:	80f9883a 	add	fp,r16,r3
    21bc:	d9003617 	ldw	r4,216(sp)
    21c0:	000d883a 	mov	r6,zero
    21c4:	000f883a 	mov	r7,zero
    21c8:	a00b883a 	mov	r5,r20
    21cc:	da003e15 	stw	r8,248(sp)
    21d0:	000a3100 	call	a310 <__eqdf2>
    21d4:	da003e17 	ldw	r8,248(sp)
    21d8:	1000e426 	beq	r2,zero,256c <___svfprintf_internal_r+0x1e28>
    21dc:	d8802117 	ldw	r2,132(sp)
    21e0:	1700062e 	bgeu	r2,fp,21fc <___svfprintf_internal_r+0x1ab8>
    21e4:	01000c04 	movi	r4,48
    21e8:	10c00044 	addi	r3,r2,1
    21ec:	d8c02115 	stw	r3,132(sp)
    21f0:	11000005 	stb	r4,0(r2)
    21f4:	d8802117 	ldw	r2,132(sp)
    21f8:	173ffb36 	bltu	r2,fp,21e8 <__alt_mem_VGA_Subsystem_Char_Buf_Subsystem_Onchip_SRAM+0xf70021e8>
    21fc:	1405c83a 	sub	r2,r2,r16
    2200:	d8803315 	stw	r2,204(sp)
    2204:	008011c4 	movi	r2,71
    2208:	b080c526 	beq	r22,r2,2520 <___svfprintf_internal_r+0x1ddc>
    220c:	00801944 	movi	r2,101
    2210:	1441d80e 	bge	r2,r17,2974 <___svfprintf_internal_r+0x2230>
    2214:	d8c02617 	ldw	r3,152(sp)
    2218:	00801984 	movi	r2,102
    221c:	d8c03215 	stw	r3,200(sp)
    2220:	88813426 	beq	r17,r2,26f4 <___svfprintf_internal_r+0x1fb0>
    2224:	d8c03217 	ldw	r3,200(sp)
    2228:	d9003317 	ldw	r4,204(sp)
    222c:	19012516 	blt	r3,r4,26c4 <___svfprintf_internal_r+0x1f80>
    2230:	9480004c 	andi	r18,r18,1
    2234:	9001841e 	bne	r18,zero,2848 <___svfprintf_internal_r+0x2104>
    2238:	1805883a 	mov	r2,r3
    223c:	1801cb16 	blt	r3,zero,296c <___svfprintf_internal_r+0x2228>
    2240:	d8c03217 	ldw	r3,200(sp)
    2244:	044019c4 	movi	r17,103
    2248:	d8c02b15 	stw	r3,172(sp)
    224c:	df002907 	ldb	fp,164(sp)
    2250:	e000a61e 	bne	fp,zero,24ec <___svfprintf_internal_r+0x1da8>
    2254:	df002783 	ldbu	fp,158(sp)
    2258:	d8802915 	stw	r2,164(sp)
    225c:	dc802c17 	ldw	r18,176(sp)
    2260:	d8002a15 	stw	zero,168(sp)
    2264:	003af506 	br	e3c <__alt_mem_VGA_Subsystem_Char_Buf_Subsystem_Onchip_SRAM+0xf7000e3c>
    2268:	04000074 	movhi	r16,1
    226c:	8438c804 	addi	r16,r16,-7392
    2270:	003a7e06 	br	c6c <__alt_mem_VGA_Subsystem_Char_Buf_Subsystem_Onchip_SRAM+0xf7000c6c>
    2274:	d9003917 	ldw	r4,228(sp)
    2278:	04001004 	movi	r16,64
    227c:	800b883a 	mov	r5,r16
    2280:	000438c0 	call	438c <_malloc_r>
    2284:	d9002d17 	ldw	r4,180(sp)
    2288:	20800015 	stw	r2,0(r4)
    228c:	20800415 	stw	r2,16(r4)
    2290:	1001d026 	beq	r2,zero,29d4 <___svfprintf_internal_r+0x2290>
    2294:	d8802d17 	ldw	r2,180(sp)
    2298:	14000515 	stw	r16,20(r2)
    229c:	00394406 	br	7b0 <__alt_mem_VGA_Subsystem_Char_Buf_Subsystem_Onchip_SRAM+0xf70007b0>
    22a0:	04000074 	movhi	r16,1
    22a4:	8438ca04 	addi	r16,r16,-7384
    22a8:	003ee106 	br	1e30 <__alt_mem_VGA_Subsystem_Char_Buf_Subsystem_Onchip_SRAM+0xf7001e30>
    22ac:	d9402d17 	ldw	r5,180(sp)
    22b0:	d9801e04 	addi	r6,sp,120
    22b4:	9809883a 	mov	r4,r19
    22b8:	00060b80 	call	60b8 <__ssprint_r>
    22bc:	103a081e 	bne	r2,zero,ae0 <__alt_mem_VGA_Subsystem_Char_Buf_Subsystem_Onchip_SRAM+0xf7000ae0>
    22c0:	dc402617 	ldw	r17,152(sp)
    22c4:	d8c02017 	ldw	r3,128(sp)
    22c8:	da000404 	addi	r8,sp,16
    22cc:	003f4306 	br	1fdc <__alt_mem_VGA_Subsystem_Char_Buf_Subsystem_Onchip_SRAM+0xf7001fdc>
    22d0:	01400184 	movi	r5,6
    22d4:	d9402a15 	stw	r5,168(sp)
    22d8:	003f9506 	br	2130 <__alt_mem_VGA_Subsystem_Char_Buf_Subsystem_Onchip_SRAM+0xf7002130>
    22dc:	d8c02e17 	ldw	r3,184(sp)
    22e0:	1d000017 	ldw	r20,0(r3)
    22e4:	18c00104 	addi	r3,r3,4
    22e8:	d8c02e15 	stw	r3,184(sp)
    22ec:	a02dd7fa 	srai	r22,r20,31
    22f0:	b005883a 	mov	r2,r22
    22f4:	003a7606 	br	cd0 <__alt_mem_VGA_Subsystem_Char_Buf_Subsystem_Onchip_SRAM+0xf7000cd0>
    22f8:	d9002e17 	ldw	r4,184(sp)
    22fc:	002d883a 	mov	r22,zero
    2300:	25000017 	ldw	r20,0(r4)
    2304:	21000104 	addi	r4,r4,4
    2308:	d9002e15 	stw	r4,184(sp)
    230c:	003bdd06 	br	1284 <__alt_mem_VGA_Subsystem_Char_Buf_Subsystem_Onchip_SRAM+0xf7001284>
    2310:	9480100c 	andi	r18,r18,64
    2314:	90006e26 	beq	r18,zero,24d0 <___svfprintf_internal_r+0x1d8c>
    2318:	d9402e17 	ldw	r5,184(sp)
    231c:	d8c02f17 	ldw	r3,188(sp)
    2320:	28800017 	ldw	r2,0(r5)
    2324:	29400104 	addi	r5,r5,4
    2328:	d9402e15 	stw	r5,184(sp)
    232c:	10c0000d 	sth	r3,0(r2)
    2330:	00392f06 	br	7f0 <__alt_mem_VGA_Subsystem_Char_Buf_Subsystem_Onchip_SRAM+0xf70007f0>
    2334:	d9402d17 	ldw	r5,180(sp)
    2338:	d9801e04 	addi	r6,sp,120
    233c:	9809883a 	mov	r4,r19
    2340:	00060b80 	call	60b8 <__ssprint_r>
    2344:	1039e61e 	bne	r2,zero,ae0 <__alt_mem_VGA_Subsystem_Char_Buf_Subsystem_Onchip_SRAM+0xf7000ae0>
    2348:	d8c02017 	ldw	r3,128(sp)
    234c:	d8801f17 	ldw	r2,124(sp)
    2350:	da000404 	addi	r8,sp,16
    2354:	d9403317 	ldw	r5,204(sp)
    2358:	10800044 	addi	r2,r2,1
    235c:	44000015 	stw	r16,0(r8)
    2360:	28c7883a 	add	r3,r5,r3
    2364:	003b5506 	br	10bc <__alt_mem_VGA_Subsystem_Char_Buf_Subsystem_Onchip_SRAM+0xf70010bc>
    2368:	8009883a 	mov	r4,r16
    236c:	df003e15 	stw	fp,248(sp)
    2370:	00060200 	call	6020 <strlen>
    2374:	d8802b15 	stw	r2,172(sp)
    2378:	da003e17 	ldw	r8,248(sp)
    237c:	103c160e 	bge	r2,zero,13d8 <__alt_mem_VGA_Subsystem_Char_Buf_Subsystem_Onchip_SRAM+0xf70013d8>
    2380:	0005883a 	mov	r2,zero
    2384:	003c1406 	br	13d8 <__alt_mem_VGA_Subsystem_Char_Buf_Subsystem_Onchip_SRAM+0xf70013d8>
    2388:	00bfffc4 	movi	r2,-1
    238c:	0039d906 	br	af4 <__alt_mem_VGA_Subsystem_Char_Buf_Subsystem_Onchip_SRAM+0xf7000af4>
    2390:	01000074 	movhi	r4,1
    2394:	2138dc84 	addi	r4,r4,-7310
    2398:	d9003515 	stw	r4,212(sp)
    239c:	003ae406 	br	f30 <__alt_mem_VGA_Subsystem_Char_Buf_Subsystem_Onchip_SRAM+0xf7000f30>
    23a0:	013fffc4 	movi	r4,-1
    23a4:	0039fa06 	br	b90 <__alt_mem_VGA_Subsystem_Char_Buf_Subsystem_Onchip_SRAM+0xf7000b90>
    23a8:	d9402d17 	ldw	r5,180(sp)
    23ac:	d9801e04 	addi	r6,sp,120
    23b0:	9809883a 	mov	r4,r19
    23b4:	00060b80 	call	60b8 <__ssprint_r>
    23b8:	1039c91e 	bne	r2,zero,ae0 <__alt_mem_VGA_Subsystem_Char_Buf_Subsystem_Onchip_SRAM+0xf7000ae0>
    23bc:	d8c02017 	ldw	r3,128(sp)
    23c0:	da000404 	addi	r8,sp,16
    23c4:	003d8406 	br	19d8 <__alt_mem_VGA_Subsystem_Char_Buf_Subsystem_Onchip_SRAM+0xf70019d8>
    23c8:	0023883a 	mov	r17,zero
    23cc:	003d8306 	br	19dc <__alt_mem_VGA_Subsystem_Char_Buf_Subsystem_Onchip_SRAM+0xf70019dc>
    23d0:	01000074 	movhi	r4,1
    23d4:	2138d884 	addi	r4,r4,-7326
    23d8:	d9002c15 	stw	r4,176(sp)
    23dc:	d9002c17 	ldw	r4,176(sp)
    23e0:	1c47883a 	add	r3,r3,r17
    23e4:	10800044 	addi	r2,r2,1
    23e8:	41000015 	stw	r4,0(r8)
    23ec:	44400115 	stw	r17,4(r8)
    23f0:	d8c02015 	stw	r3,128(sp)
    23f4:	d8801f15 	stw	r2,124(sp)
    23f8:	010001c4 	movi	r4,7
    23fc:	20bfcd16 	blt	r4,r2,2334 <__alt_mem_VGA_Subsystem_Char_Buf_Subsystem_Onchip_SRAM+0xf7002334>
    2400:	42000204 	addi	r8,r8,8
    2404:	003fd306 	br	2354 <__alt_mem_VGA_Subsystem_Char_Buf_Subsystem_Onchip_SRAM+0xf7002354>
    2408:	d9402d17 	ldw	r5,180(sp)
    240c:	d9801e04 	addi	r6,sp,120
    2410:	9809883a 	mov	r4,r19
    2414:	00060b80 	call	60b8 <__ssprint_r>
    2418:	1039b11e 	bne	r2,zero,ae0 <__alt_mem_VGA_Subsystem_Char_Buf_Subsystem_Onchip_SRAM+0xf7000ae0>
    241c:	d8802617 	ldw	r2,152(sp)
    2420:	d8c02017 	ldw	r3,128(sp)
    2424:	da000404 	addi	r8,sp,16
    2428:	003e1c06 	br	1c9c <__alt_mem_VGA_Subsystem_Char_Buf_Subsystem_Onchip_SRAM+0xf7001c9c>
    242c:	d8802a17 	ldw	r2,168(sp)
    2430:	00c00184 	movi	r3,6
    2434:	1880012e 	bgeu	r3,r2,243c <___svfprintf_internal_r+0x1cf8>
    2438:	1805883a 	mov	r2,r3
    243c:	d8802b15 	stw	r2,172(sp)
    2440:	1000f316 	blt	r2,zero,2810 <___svfprintf_internal_r+0x20cc>
    2444:	04000074 	movhi	r16,1
    2448:	d8802915 	stw	r2,164(sp)
    244c:	dd002e15 	stw	r20,184(sp)
    2450:	d8002a15 	stw	zero,168(sp)
    2454:	d8003215 	stw	zero,200(sp)
    2458:	8438d604 	addi	r16,r16,-7336
    245c:	0039883a 	mov	fp,zero
    2460:	003a7d06 	br	e58 <__alt_mem_VGA_Subsystem_Char_Buf_Subsystem_Onchip_SRAM+0xf7000e58>
    2464:	01000074 	movhi	r4,1
    2468:	2138dc84 	addi	r4,r4,-7310
    246c:	d9003515 	stw	r4,212(sp)
    2470:	003b3d06 	br	1168 <__alt_mem_VGA_Subsystem_Char_Buf_Subsystem_Onchip_SRAM+0xf7001168>
    2474:	d9402d17 	ldw	r5,180(sp)
    2478:	d9801e04 	addi	r6,sp,120
    247c:	9809883a 	mov	r4,r19
    2480:	00060b80 	call	60b8 <__ssprint_r>
    2484:	1039961e 	bne	r2,zero,ae0 <__alt_mem_VGA_Subsystem_Char_Buf_Subsystem_Onchip_SRAM+0xf7000ae0>
    2488:	d8802617 	ldw	r2,152(sp)
    248c:	d9403317 	ldw	r5,204(sp)
    2490:	d8c02017 	ldw	r3,128(sp)
    2494:	da000404 	addi	r8,sp,16
    2498:	2885c83a 	sub	r2,r5,r2
    249c:	003e1006 	br	1ce0 <__alt_mem_VGA_Subsystem_Char_Buf_Subsystem_Onchip_SRAM+0xf7001ce0>
    24a0:	00800044 	movi	r2,1
    24a4:	10803fcc 	andi	r2,r2,255
    24a8:	00c00044 	movi	r3,1
    24ac:	10fa1026 	beq	r2,r3,cf0 <__alt_mem_VGA_Subsystem_Char_Buf_Subsystem_Onchip_SRAM+0xf7000cf0>
    24b0:	00c00084 	movi	r3,2
    24b4:	10fb8226 	beq	r2,r3,12c0 <__alt_mem_VGA_Subsystem_Char_Buf_Subsystem_Onchip_SRAM+0xf70012c0>
    24b8:	003a4206 	br	dc4 <__alt_mem_VGA_Subsystem_Char_Buf_Subsystem_Onchip_SRAM+0xf7000dc4>
    24bc:	0021883a 	mov	r16,zero
    24c0:	003e0806 	br	1ce4 <__alt_mem_VGA_Subsystem_Char_Buf_Subsystem_Onchip_SRAM+0xf7001ce4>
    24c4:	07000b44 	movi	fp,45
    24c8:	df002785 	stb	fp,158(sp)
    24cc:	0039e306 	br	c5c <__alt_mem_VGA_Subsystem_Char_Buf_Subsystem_Onchip_SRAM+0xf7000c5c>
    24d0:	d9002e17 	ldw	r4,184(sp)
    24d4:	d9402f17 	ldw	r5,188(sp)
    24d8:	20800017 	ldw	r2,0(r4)
    24dc:	21000104 	addi	r4,r4,4
    24e0:	d9002e15 	stw	r4,184(sp)
    24e4:	11400015 	stw	r5,0(r2)
    24e8:	0038c106 	br	7f0 <__alt_mem_VGA_Subsystem_Char_Buf_Subsystem_Onchip_SRAM+0xf70007f0>
    24ec:	00c00b44 	movi	r3,45
    24f0:	d8c02785 	stb	r3,158(sp)
    24f4:	d8802915 	stw	r2,164(sp)
    24f8:	dc802c17 	ldw	r18,176(sp)
    24fc:	d8002a15 	stw	zero,168(sp)
    2500:	07000b44 	movi	fp,45
    2504:	003a5106 	br	e4c <__alt_mem_VGA_Subsystem_Char_Buf_Subsystem_Onchip_SRAM+0xf7000e4c>
    2508:	9080004c 	andi	r2,r18,1
    250c:	1000941e 	bne	r2,zero,2760 <___svfprintf_internal_r+0x201c>
    2510:	d8802117 	ldw	r2,132(sp)
    2514:	1405c83a 	sub	r2,r2,r16
    2518:	d8803315 	stw	r2,204(sp)
    251c:	b441151e 	bne	r22,r17,2974 <___svfprintf_internal_r+0x2230>
    2520:	dd802617 	ldw	r22,152(sp)
    2524:	00bfff44 	movi	r2,-3
    2528:	b0801a16 	blt	r22,r2,2594 <___svfprintf_internal_r+0x1e50>
    252c:	d9402a17 	ldw	r5,168(sp)
    2530:	2d801816 	blt	r5,r22,2594 <___svfprintf_internal_r+0x1e50>
    2534:	dd803215 	stw	r22,200(sp)
    2538:	003f3a06 	br	2224 <__alt_mem_VGA_Subsystem_Char_Buf_Subsystem_Onchip_SRAM+0xf7002224>
    253c:	1025883a 	mov	r18,r2
    2540:	0039883a 	mov	fp,zero
    2544:	00800084 	movi	r2,2
    2548:	003fd606 	br	24a4 <__alt_mem_VGA_Subsystem_Char_Buf_Subsystem_Onchip_SRAM+0xf70024a4>
    254c:	9080004c 	andi	r2,r18,1
    2550:	103f191e 	bne	r2,zero,21b8 <__alt_mem_VGA_Subsystem_Char_Buf_Subsystem_Onchip_SRAM+0xf70021b8>
    2554:	d8802117 	ldw	r2,132(sp)
    2558:	003f2806 	br	21fc <__alt_mem_VGA_Subsystem_Char_Buf_Subsystem_Onchip_SRAM+0xf70021fc>
    255c:	01000074 	movhi	r4,1
    2560:	2138d884 	addi	r4,r4,-7326
    2564:	d9002c15 	stw	r4,176(sp)
    2568:	003c7c06 	br	175c <__alt_mem_VGA_Subsystem_Char_Buf_Subsystem_Onchip_SRAM+0xf700175c>
    256c:	e005883a 	mov	r2,fp
    2570:	003f2206 	br	21fc <__alt_mem_VGA_Subsystem_Char_Buf_Subsystem_Onchip_SRAM+0xf70021fc>
    2574:	d9002a17 	ldw	r4,168(sp)
    2578:	df002783 	ldbu	fp,158(sp)
    257c:	dd002e15 	stw	r20,184(sp)
    2580:	d9002915 	stw	r4,164(sp)
    2584:	d9002b15 	stw	r4,172(sp)
    2588:	d8002a15 	stw	zero,168(sp)
    258c:	d8003215 	stw	zero,200(sp)
    2590:	003a2a06 	br	e3c <__alt_mem_VGA_Subsystem_Char_Buf_Subsystem_Onchip_SRAM+0xf7000e3c>
    2594:	8c7fff84 	addi	r17,r17,-2
    2598:	b5bfffc4 	addi	r22,r22,-1
    259c:	dd802615 	stw	r22,152(sp)
    25a0:	dc4022c5 	stb	r17,139(sp)
    25a4:	b000c316 	blt	r22,zero,28b4 <___svfprintf_internal_r+0x2170>
    25a8:	00800ac4 	movi	r2,43
    25ac:	d8802305 	stb	r2,140(sp)
    25b0:	00800244 	movi	r2,9
    25b4:	15806e16 	blt	r2,r22,2770 <___svfprintf_internal_r+0x202c>
    25b8:	00800c04 	movi	r2,48
    25bc:	b5800c04 	addi	r22,r22,48
    25c0:	d8802345 	stb	r2,141(sp)
    25c4:	dd802385 	stb	r22,142(sp)
    25c8:	d88023c4 	addi	r2,sp,143
    25cc:	df0022c4 	addi	fp,sp,139
    25d0:	d8c03317 	ldw	r3,204(sp)
    25d4:	1739c83a 	sub	fp,r2,fp
    25d8:	d9003317 	ldw	r4,204(sp)
    25dc:	e0c7883a 	add	r3,fp,r3
    25e0:	df003b15 	stw	fp,236(sp)
    25e4:	d8c02b15 	stw	r3,172(sp)
    25e8:	00800044 	movi	r2,1
    25ec:	1100b70e 	bge	r2,r4,28cc <___svfprintf_internal_r+0x2188>
    25f0:	d8c02b17 	ldw	r3,172(sp)
    25f4:	18c00044 	addi	r3,r3,1
    25f8:	d8c02b15 	stw	r3,172(sp)
    25fc:	1805883a 	mov	r2,r3
    2600:	1800b016 	blt	r3,zero,28c4 <___svfprintf_internal_r+0x2180>
    2604:	d8003215 	stw	zero,200(sp)
    2608:	003f1006 	br	224c <__alt_mem_VGA_Subsystem_Char_Buf_Subsystem_Onchip_SRAM+0xf700224c>
    260c:	d8802a17 	ldw	r2,168(sp)
    2610:	103ec71e 	bne	r2,zero,2130 <__alt_mem_VGA_Subsystem_Char_Buf_Subsystem_Onchip_SRAM+0xf7002130>
    2614:	dc002a15 	stw	r16,168(sp)
    2618:	003ec506 	br	2130 <__alt_mem_VGA_Subsystem_Char_Buf_Subsystem_Onchip_SRAM+0xf7002130>
    261c:	d9402d17 	ldw	r5,180(sp)
    2620:	d9801e04 	addi	r6,sp,120
    2624:	9809883a 	mov	r4,r19
    2628:	00060b80 	call	60b8 <__ssprint_r>
    262c:	10392c1e 	bne	r2,zero,ae0 <__alt_mem_VGA_Subsystem_Char_Buf_Subsystem_Onchip_SRAM+0xf7000ae0>
    2630:	dc402617 	ldw	r17,152(sp)
    2634:	d8c02017 	ldw	r3,128(sp)
    2638:	d8801f17 	ldw	r2,124(sp)
    263c:	da000404 	addi	r8,sp,16
    2640:	003e7706 	br	2020 <__alt_mem_VGA_Subsystem_Char_Buf_Subsystem_Onchip_SRAM+0xf7002020>
    2644:	182f883a 	mov	r23,r3
    2648:	d8002a15 	stw	zero,168(sp)
    264c:	00389306 	br	89c <__alt_mem_VGA_Subsystem_Char_Buf_Subsystem_Onchip_SRAM+0xf700089c>
    2650:	d8c02a17 	ldw	r3,168(sp)
    2654:	d8802104 	addi	r2,sp,132
    2658:	d8800315 	stw	r2,12(sp)
    265c:	d9403617 	ldw	r5,216(sp)
    2660:	d8802504 	addi	r2,sp,148
    2664:	d8800215 	stw	r2,8(sp)
    2668:	d8802604 	addi	r2,sp,152
    266c:	d8c00015 	stw	r3,0(sp)
    2670:	9809883a 	mov	r4,r19
    2674:	d8800115 	stw	r2,4(sp)
    2678:	01c000c4 	movi	r7,3
    267c:	a00d883a 	mov	r6,r20
    2680:	da003e15 	stw	r8,248(sp)
    2684:	0002c280 	call	2c28 <_dtoa_r>
    2688:	d9002a17 	ldw	r4,168(sp)
    268c:	da003e17 	ldw	r8,248(sp)
    2690:	1021883a 	mov	r16,r2
    2694:	1139883a 	add	fp,r2,r4
    2698:	2007883a 	mov	r3,r4
    269c:	81000007 	ldb	r4,0(r16)
    26a0:	00800c04 	movi	r2,48
    26a4:	20806f26 	beq	r4,r2,2864 <___svfprintf_internal_r+0x2120>
    26a8:	d8c02617 	ldw	r3,152(sp)
    26ac:	e0f9883a 	add	fp,fp,r3
    26b0:	003ec206 	br	21bc <__alt_mem_VGA_Subsystem_Char_Buf_Subsystem_Onchip_SRAM+0xf70021bc>
    26b4:	00c00b44 	movi	r3,45
    26b8:	2520003c 	xorhi	r20,r4,32768
    26bc:	d8c02905 	stb	r3,164(sp)
    26c0:	003ea106 	br	2148 <__alt_mem_VGA_Subsystem_Char_Buf_Subsystem_Onchip_SRAM+0xf7002148>
    26c4:	d8c03217 	ldw	r3,200(sp)
    26c8:	00c0890e 	bge	zero,r3,28f0 <___svfprintf_internal_r+0x21ac>
    26cc:	00800044 	movi	r2,1
    26d0:	d9003317 	ldw	r4,204(sp)
    26d4:	1105883a 	add	r2,r2,r4
    26d8:	d8802b15 	stw	r2,172(sp)
    26dc:	10005f16 	blt	r2,zero,285c <___svfprintf_internal_r+0x2118>
    26e0:	044019c4 	movi	r17,103
    26e4:	003ed906 	br	224c <__alt_mem_VGA_Subsystem_Char_Buf_Subsystem_Onchip_SRAM+0xf700224c>
    26e8:	d9002a17 	ldw	r4,168(sp)
    26ec:	20c00044 	addi	r3,r4,1
    26f0:	003e9c06 	br	2164 <__alt_mem_VGA_Subsystem_Char_Buf_Subsystem_Onchip_SRAM+0xf7002164>
    26f4:	d9002a17 	ldw	r4,168(sp)
    26f8:	00c0680e 	bge	zero,r3,289c <___svfprintf_internal_r+0x2158>
    26fc:	2000461e 	bne	r4,zero,2818 <___svfprintf_internal_r+0x20d4>
    2700:	9480004c 	andi	r18,r18,1
    2704:	9000441e 	bne	r18,zero,2818 <___svfprintf_internal_r+0x20d4>
    2708:	1805883a 	mov	r2,r3
    270c:	1800a116 	blt	r3,zero,2994 <___svfprintf_internal_r+0x2250>
    2710:	d8c03217 	ldw	r3,200(sp)
    2714:	d8c02b15 	stw	r3,172(sp)
    2718:	003ecc06 	br	224c <__alt_mem_VGA_Subsystem_Char_Buf_Subsystem_Onchip_SRAM+0xf700224c>
    271c:	d9402a17 	ldw	r5,168(sp)
    2720:	d8802104 	addi	r2,sp,132
    2724:	d8800315 	stw	r2,12(sp)
    2728:	d9400015 	stw	r5,0(sp)
    272c:	d8802504 	addi	r2,sp,148
    2730:	d9403617 	ldw	r5,216(sp)
    2734:	d8800215 	stw	r2,8(sp)
    2738:	d8802604 	addi	r2,sp,152
    273c:	d8800115 	stw	r2,4(sp)
    2740:	01c000c4 	movi	r7,3
    2744:	a00d883a 	mov	r6,r20
    2748:	9809883a 	mov	r4,r19
    274c:	da003e15 	stw	r8,248(sp)
    2750:	0002c280 	call	2c28 <_dtoa_r>
    2754:	d8c02a17 	ldw	r3,168(sp)
    2758:	da003e17 	ldw	r8,248(sp)
    275c:	1021883a 	mov	r16,r2
    2760:	00801184 	movi	r2,70
    2764:	80f9883a 	add	fp,r16,r3
    2768:	88bfcc26 	beq	r17,r2,269c <__alt_mem_VGA_Subsystem_Char_Buf_Subsystem_Onchip_SRAM+0xf700269c>
    276c:	003e9306 	br	21bc <__alt_mem_VGA_Subsystem_Char_Buf_Subsystem_Onchip_SRAM+0xf70021bc>
    2770:	df0022c4 	addi	fp,sp,139
    2774:	dc002a15 	stw	r16,168(sp)
    2778:	9829883a 	mov	r20,r19
    277c:	e021883a 	mov	r16,fp
    2780:	4027883a 	mov	r19,r8
    2784:	b009883a 	mov	r4,r22
    2788:	01400284 	movi	r5,10
    278c:	0008f640 	call	8f64 <__modsi3>
    2790:	10800c04 	addi	r2,r2,48
    2794:	843fffc4 	addi	r16,r16,-1
    2798:	b009883a 	mov	r4,r22
    279c:	01400284 	movi	r5,10
    27a0:	80800005 	stb	r2,0(r16)
    27a4:	0008ee00 	call	8ee0 <__divsi3>
    27a8:	102d883a 	mov	r22,r2
    27ac:	00800244 	movi	r2,9
    27b0:	15bff416 	blt	r2,r22,2784 <__alt_mem_VGA_Subsystem_Char_Buf_Subsystem_Onchip_SRAM+0xf7002784>
    27b4:	9811883a 	mov	r8,r19
    27b8:	b0800c04 	addi	r2,r22,48
    27bc:	a027883a 	mov	r19,r20
    27c0:	8029883a 	mov	r20,r16
    27c4:	a17fffc4 	addi	r5,r20,-1
    27c8:	a0bfffc5 	stb	r2,-1(r20)
    27cc:	dc002a17 	ldw	r16,168(sp)
    27d0:	2f00782e 	bgeu	r5,fp,29b4 <___svfprintf_internal_r+0x2270>
    27d4:	d9c02384 	addi	r7,sp,142
    27d8:	3d0fc83a 	sub	r7,r7,r20
    27dc:	d9002344 	addi	r4,sp,141
    27e0:	e1cf883a 	add	r7,fp,r7
    27e4:	00000106 	br	27ec <___svfprintf_internal_r+0x20a8>
    27e8:	28800003 	ldbu	r2,0(r5)
    27ec:	20800005 	stb	r2,0(r4)
    27f0:	21000044 	addi	r4,r4,1
    27f4:	29400044 	addi	r5,r5,1
    27f8:	21fffb1e 	bne	r4,r7,27e8 <__alt_mem_VGA_Subsystem_Char_Buf_Subsystem_Onchip_SRAM+0xf70027e8>
    27fc:	d8802304 	addi	r2,sp,140
    2800:	1505c83a 	sub	r2,r2,r20
    2804:	d8c02344 	addi	r3,sp,141
    2808:	1885883a 	add	r2,r3,r2
    280c:	003f7006 	br	25d0 <__alt_mem_VGA_Subsystem_Char_Buf_Subsystem_Onchip_SRAM+0xf70025d0>
    2810:	0005883a 	mov	r2,zero
    2814:	003f0b06 	br	2444 <__alt_mem_VGA_Subsystem_Char_Buf_Subsystem_Onchip_SRAM+0xf7002444>
    2818:	d9002a17 	ldw	r4,168(sp)
    281c:	d8c03217 	ldw	r3,200(sp)
    2820:	20800044 	addi	r2,r4,1
    2824:	1885883a 	add	r2,r3,r2
    2828:	d8802b15 	stw	r2,172(sp)
    282c:	103e870e 	bge	r2,zero,224c <__alt_mem_VGA_Subsystem_Char_Buf_Subsystem_Onchip_SRAM+0xf700224c>
    2830:	0005883a 	mov	r2,zero
    2834:	003e8506 	br	224c <__alt_mem_VGA_Subsystem_Char_Buf_Subsystem_Onchip_SRAM+0xf700224c>
    2838:	01000074 	movhi	r4,1
    283c:	2138d884 	addi	r4,r4,-7326
    2840:	d9002c15 	stw	r4,176(sp)
    2844:	003cc506 	br	1b5c <__alt_mem_VGA_Subsystem_Char_Buf_Subsystem_Onchip_SRAM+0xf7001b5c>
    2848:	d8c03217 	ldw	r3,200(sp)
    284c:	18c00044 	addi	r3,r3,1
    2850:	d8c02b15 	stw	r3,172(sp)
    2854:	1805883a 	mov	r2,r3
    2858:	183fa10e 	bge	r3,zero,26e0 <__alt_mem_VGA_Subsystem_Char_Buf_Subsystem_Onchip_SRAM+0xf70026e0>
    285c:	0005883a 	mov	r2,zero
    2860:	003f9f06 	br	26e0 <__alt_mem_VGA_Subsystem_Char_Buf_Subsystem_Onchip_SRAM+0xf70026e0>
    2864:	d9003617 	ldw	r4,216(sp)
    2868:	000d883a 	mov	r6,zero
    286c:	000f883a 	mov	r7,zero
    2870:	a00b883a 	mov	r5,r20
    2874:	d8c03d15 	stw	r3,244(sp)
    2878:	da003e15 	stw	r8,248(sp)
    287c:	000a3100 	call	a310 <__eqdf2>
    2880:	d8c03d17 	ldw	r3,244(sp)
    2884:	da003e17 	ldw	r8,248(sp)
    2888:	103f8726 	beq	r2,zero,26a8 <__alt_mem_VGA_Subsystem_Char_Buf_Subsystem_Onchip_SRAM+0xf70026a8>
    288c:	00800044 	movi	r2,1
    2890:	10c7c83a 	sub	r3,r2,r3
    2894:	d8c02615 	stw	r3,152(sp)
    2898:	003f8406 	br	26ac <__alt_mem_VGA_Subsystem_Char_Buf_Subsystem_Onchip_SRAM+0xf70026ac>
    289c:	20000e1e 	bne	r4,zero,28d8 <___svfprintf_internal_r+0x2194>
    28a0:	9480004c 	andi	r18,r18,1
    28a4:	90000c1e 	bne	r18,zero,28d8 <___svfprintf_internal_r+0x2194>
    28a8:	00800044 	movi	r2,1
    28ac:	d8802b15 	stw	r2,172(sp)
    28b0:	003e6606 	br	224c <__alt_mem_VGA_Subsystem_Char_Buf_Subsystem_Onchip_SRAM+0xf700224c>
    28b4:	00800b44 	movi	r2,45
    28b8:	05adc83a 	sub	r22,zero,r22
    28bc:	d8802305 	stb	r2,140(sp)
    28c0:	003f3b06 	br	25b0 <__alt_mem_VGA_Subsystem_Char_Buf_Subsystem_Onchip_SRAM+0xf70025b0>
    28c4:	0005883a 	mov	r2,zero
    28c8:	003f4e06 	br	2604 <__alt_mem_VGA_Subsystem_Char_Buf_Subsystem_Onchip_SRAM+0xf7002604>
    28cc:	90a4703a 	and	r18,r18,r2
    28d0:	903f4a26 	beq	r18,zero,25fc <__alt_mem_VGA_Subsystem_Char_Buf_Subsystem_Onchip_SRAM+0xf70025fc>
    28d4:	003f4606 	br	25f0 <__alt_mem_VGA_Subsystem_Char_Buf_Subsystem_Onchip_SRAM+0xf70025f0>
    28d8:	d8c02a17 	ldw	r3,168(sp)
    28dc:	18c00084 	addi	r3,r3,2
    28e0:	d8c02b15 	stw	r3,172(sp)
    28e4:	1805883a 	mov	r2,r3
    28e8:	183e580e 	bge	r3,zero,224c <__alt_mem_VGA_Subsystem_Char_Buf_Subsystem_Onchip_SRAM+0xf700224c>
    28ec:	003fd006 	br	2830 <__alt_mem_VGA_Subsystem_Char_Buf_Subsystem_Onchip_SRAM+0xf7002830>
    28f0:	00800084 	movi	r2,2
    28f4:	10c5c83a 	sub	r2,r2,r3
    28f8:	003f7506 	br	26d0 <__alt_mem_VGA_Subsystem_Char_Buf_Subsystem_Onchip_SRAM+0xf70026d0>
    28fc:	d9402e17 	ldw	r5,184(sp)
    2900:	d9002e17 	ldw	r4,184(sp)
    2904:	bc400043 	ldbu	r17,1(r23)
    2908:	29400017 	ldw	r5,0(r5)
    290c:	20800104 	addi	r2,r4,4
    2910:	d8802e15 	stw	r2,184(sp)
    2914:	d9402a15 	stw	r5,168(sp)
    2918:	182f883a 	mov	r23,r3
    291c:	283df10e 	bge	r5,zero,20e4 <__alt_mem_VGA_Subsystem_Char_Buf_Subsystem_Onchip_SRAM+0xf70020e4>
    2920:	8c403fcc 	andi	r17,r17,255
    2924:	017fffc4 	movi	r5,-1
    2928:	8c40201c 	xori	r17,r17,128
    292c:	d9402a15 	stw	r5,168(sp)
    2930:	8c7fe004 	addi	r17,r17,-128
    2934:	0037d806 	br	898 <__alt_mem_VGA_Subsystem_Char_Buf_Subsystem_Onchip_SRAM+0xf7000898>
    2938:	9080004c 	andi	r2,r18,1
    293c:	0039883a 	mov	fp,zero
    2940:	10000726 	beq	r2,zero,2960 <___svfprintf_internal_r+0x221c>
    2944:	d8c02817 	ldw	r3,160(sp)
    2948:	dc001dc4 	addi	r16,sp,119
    294c:	00800c04 	movi	r2,48
    2950:	1c07c83a 	sub	r3,r3,r16
    2954:	d8801dc5 	stb	r2,119(sp)
    2958:	d8c02b15 	stw	r3,172(sp)
    295c:	00393106 	br	e24 <__alt_mem_VGA_Subsystem_Char_Buf_Subsystem_Onchip_SRAM+0xf7000e24>
    2960:	d8002b15 	stw	zero,172(sp)
    2964:	dc001e04 	addi	r16,sp,120
    2968:	00392e06 	br	e24 <__alt_mem_VGA_Subsystem_Char_Buf_Subsystem_Onchip_SRAM+0xf7000e24>
    296c:	0005883a 	mov	r2,zero
    2970:	003e3306 	br	2240 <__alt_mem_VGA_Subsystem_Char_Buf_Subsystem_Onchip_SRAM+0xf7002240>
    2974:	dd802617 	ldw	r22,152(sp)
    2978:	003f0706 	br	2598 <__alt_mem_VGA_Subsystem_Char_Buf_Subsystem_Onchip_SRAM+0xf7002598>
    297c:	d8c02b03 	ldbu	r3,172(sp)
    2980:	d8c02785 	stb	r3,158(sp)
    2984:	003a3506 	br	125c <__alt_mem_VGA_Subsystem_Char_Buf_Subsystem_Onchip_SRAM+0xf700125c>
    2988:	d8c02b03 	ldbu	r3,172(sp)
    298c:	d8c02785 	stb	r3,158(sp)
    2990:	003a1706 	br	11f0 <__alt_mem_VGA_Subsystem_Char_Buf_Subsystem_Onchip_SRAM+0xf70011f0>
    2994:	0005883a 	mov	r2,zero
    2998:	003f5d06 	br	2710 <__alt_mem_VGA_Subsystem_Char_Buf_Subsystem_Onchip_SRAM+0xf7002710>
    299c:	d8c02b03 	ldbu	r3,172(sp)
    29a0:	d8c02785 	stb	r3,158(sp)
    29a4:	0038f306 	br	d74 <__alt_mem_VGA_Subsystem_Char_Buf_Subsystem_Onchip_SRAM+0xf7000d74>
    29a8:	d8c02b03 	ldbu	r3,172(sp)
    29ac:	d8c02785 	stb	r3,158(sp)
    29b0:	0038be06 	br	cac <__alt_mem_VGA_Subsystem_Char_Buf_Subsystem_Onchip_SRAM+0xf7000cac>
    29b4:	d8802344 	addi	r2,sp,141
    29b8:	003f0506 	br	25d0 <__alt_mem_VGA_Subsystem_Char_Buf_Subsystem_Onchip_SRAM+0xf70025d0>
    29bc:	d8c02b03 	ldbu	r3,172(sp)
    29c0:	d8c02785 	stb	r3,158(sp)
    29c4:	00388b06 	br	bf4 <__alt_mem_VGA_Subsystem_Char_Buf_Subsystem_Onchip_SRAM+0xf7000bf4>
    29c8:	d8c02b03 	ldbu	r3,172(sp)
    29cc:	d8c02785 	stb	r3,158(sp)
    29d0:	003ad706 	br	1530 <__alt_mem_VGA_Subsystem_Char_Buf_Subsystem_Onchip_SRAM+0xf7001530>
    29d4:	d9403917 	ldw	r5,228(sp)
    29d8:	00800304 	movi	r2,12
    29dc:	28800015 	stw	r2,0(r5)
    29e0:	00bfffc4 	movi	r2,-1
    29e4:	00384306 	br	af4 <__alt_mem_VGA_Subsystem_Char_Buf_Subsystem_Onchip_SRAM+0xf7000af4>
    29e8:	d8c02b03 	ldbu	r3,172(sp)
    29ec:	d8c02785 	stb	r3,158(sp)
    29f0:	003ab606 	br	14cc <__alt_mem_VGA_Subsystem_Char_Buf_Subsystem_Onchip_SRAM+0xf70014cc>
    29f4:	d8c02b03 	ldbu	r3,172(sp)
    29f8:	d8c02785 	stb	r3,158(sp)
    29fc:	003a8906 	br	1424 <__alt_mem_VGA_Subsystem_Char_Buf_Subsystem_Onchip_SRAM+0xf7001424>

00002a00 <quorem>:
    2a00:	defff204 	addi	sp,sp,-56
    2a04:	ddc00b15 	stw	r23,44(sp)
    2a08:	20800417 	ldw	r2,16(r4)
    2a0c:	2dc00417 	ldw	r23,16(r5)
    2a10:	dfc00d15 	stw	ra,52(sp)
    2a14:	df000c15 	stw	fp,48(sp)
    2a18:	dd800a15 	stw	r22,40(sp)
    2a1c:	dd400915 	stw	r21,36(sp)
    2a20:	dd000815 	stw	r20,32(sp)
    2a24:	dcc00715 	stw	r19,28(sp)
    2a28:	dc800615 	stw	r18,24(sp)
    2a2c:	dc400515 	stw	r17,20(sp)
    2a30:	dc000415 	stw	r16,16(sp)
    2a34:	15c07a16 	blt	r2,r23,2c20 <quorem+0x220>
    2a38:	bdffffc4 	addi	r23,r23,-1
    2a3c:	bde9883a 	add	r20,r23,r23
    2a40:	28c00504 	addi	r3,r5,20
    2a44:	a529883a 	add	r20,r20,r20
    2a48:	1d39883a 	add	fp,r3,r20
    2a4c:	24c00504 	addi	r19,r4,20
    2a50:	d9400215 	stw	r5,8(sp)
    2a54:	9d29883a 	add	r20,r19,r20
    2a58:	e1400017 	ldw	r5,0(fp)
    2a5c:	d9000015 	stw	r4,0(sp)
    2a60:	a1000017 	ldw	r4,0(r20)
    2a64:	29400044 	addi	r5,r5,1
    2a68:	d8c00115 	stw	r3,4(sp)
    2a6c:	dd000315 	stw	r20,12(sp)
    2a70:	0008fd80 	call	8fd8 <__udivsi3>
    2a74:	1025883a 	mov	r18,r2
    2a78:	10003026 	beq	r2,zero,2b3c <quorem+0x13c>
    2a7c:	dc400117 	ldw	r17,4(sp)
    2a80:	9829883a 	mov	r20,r19
    2a84:	002d883a 	mov	r22,zero
    2a88:	0021883a 	mov	r16,zero
    2a8c:	8d400017 	ldw	r21,0(r17)
    2a90:	900b883a 	mov	r5,r18
    2a94:	8c400104 	addi	r17,r17,4
    2a98:	a93fffcc 	andi	r4,r21,65535
    2a9c:	00005600 	call	560 <__mulsi3>
    2aa0:	a808d43a 	srli	r4,r21,16
    2aa4:	900b883a 	mov	r5,r18
    2aa8:	15ad883a 	add	r22,r2,r22
    2aac:	00005600 	call	560 <__mulsi3>
    2ab0:	a1000017 	ldw	r4,0(r20)
    2ab4:	b00cd43a 	srli	r6,r22,16
    2ab8:	b0ffffcc 	andi	r3,r22,65535
    2abc:	217fffcc 	andi	r5,r4,65535
    2ac0:	2c21883a 	add	r16,r5,r16
    2ac4:	80c7c83a 	sub	r3,r16,r3
    2ac8:	2008d43a 	srli	r4,r4,16
    2acc:	1185883a 	add	r2,r2,r6
    2ad0:	1821d43a 	srai	r16,r3,16
    2ad4:	117fffcc 	andi	r5,r2,65535
    2ad8:	2149c83a 	sub	r4,r4,r5
    2adc:	2421883a 	add	r16,r4,r16
    2ae0:	8008943a 	slli	r4,r16,16
    2ae4:	18ffffcc 	andi	r3,r3,65535
    2ae8:	102cd43a 	srli	r22,r2,16
    2aec:	20c8b03a 	or	r4,r4,r3
    2af0:	a1000015 	stw	r4,0(r20)
    2af4:	8021d43a 	srai	r16,r16,16
    2af8:	a5000104 	addi	r20,r20,4
    2afc:	e47fe32e 	bgeu	fp,r17,2a8c <__alt_mem_VGA_Subsystem_Char_Buf_Subsystem_Onchip_SRAM+0xf7002a8c>
    2b00:	d8c00317 	ldw	r3,12(sp)
    2b04:	18800017 	ldw	r2,0(r3)
    2b08:	10000c1e 	bne	r2,zero,2b3c <quorem+0x13c>
    2b0c:	18bfff04 	addi	r2,r3,-4
    2b10:	9880082e 	bgeu	r19,r2,2b34 <quorem+0x134>
    2b14:	18ffff17 	ldw	r3,-4(r3)
    2b18:	18000326 	beq	r3,zero,2b28 <quorem+0x128>
    2b1c:	00000506 	br	2b34 <quorem+0x134>
    2b20:	10c00017 	ldw	r3,0(r2)
    2b24:	1800031e 	bne	r3,zero,2b34 <quorem+0x134>
    2b28:	10bfff04 	addi	r2,r2,-4
    2b2c:	bdffffc4 	addi	r23,r23,-1
    2b30:	98bffb36 	bltu	r19,r2,2b20 <__alt_mem_VGA_Subsystem_Char_Buf_Subsystem_Onchip_SRAM+0xf7002b20>
    2b34:	d8c00017 	ldw	r3,0(sp)
    2b38:	1dc00415 	stw	r23,16(r3)
    2b3c:	d9400217 	ldw	r5,8(sp)
    2b40:	d9000017 	ldw	r4,0(sp)
    2b44:	00057480 	call	5748 <__mcmp>
    2b48:	10002816 	blt	r2,zero,2bec <quorem+0x1ec>
    2b4c:	dc400117 	ldw	r17,4(sp)
    2b50:	94800044 	addi	r18,r18,1
    2b54:	980d883a 	mov	r6,r19
    2b58:	0007883a 	mov	r3,zero
    2b5c:	31000017 	ldw	r4,0(r6)
    2b60:	89400017 	ldw	r5,0(r17)
    2b64:	31800104 	addi	r6,r6,4
    2b68:	20bfffcc 	andi	r2,r4,65535
    2b6c:	10c7883a 	add	r3,r2,r3
    2b70:	28bfffcc 	andi	r2,r5,65535
    2b74:	1885c83a 	sub	r2,r3,r2
    2b78:	280ad43a 	srli	r5,r5,16
    2b7c:	2008d43a 	srli	r4,r4,16
    2b80:	1007d43a 	srai	r3,r2,16
    2b84:	10bfffcc 	andi	r2,r2,65535
    2b88:	2149c83a 	sub	r4,r4,r5
    2b8c:	20c9883a 	add	r4,r4,r3
    2b90:	200a943a 	slli	r5,r4,16
    2b94:	8c400104 	addi	r17,r17,4
    2b98:	2007d43a 	srai	r3,r4,16
    2b9c:	2884b03a 	or	r2,r5,r2
    2ba0:	30bfff15 	stw	r2,-4(r6)
    2ba4:	e47fed2e 	bgeu	fp,r17,2b5c <__alt_mem_VGA_Subsystem_Char_Buf_Subsystem_Onchip_SRAM+0xf7002b5c>
    2ba8:	bdc5883a 	add	r2,r23,r23
    2bac:	1085883a 	add	r2,r2,r2
    2bb0:	9887883a 	add	r3,r19,r2
    2bb4:	18800017 	ldw	r2,0(r3)
    2bb8:	10000c1e 	bne	r2,zero,2bec <quorem+0x1ec>
    2bbc:	18bfff04 	addi	r2,r3,-4
    2bc0:	9880082e 	bgeu	r19,r2,2be4 <quorem+0x1e4>
    2bc4:	18ffff17 	ldw	r3,-4(r3)
    2bc8:	18000326 	beq	r3,zero,2bd8 <quorem+0x1d8>
    2bcc:	00000506 	br	2be4 <quorem+0x1e4>
    2bd0:	10c00017 	ldw	r3,0(r2)
    2bd4:	1800031e 	bne	r3,zero,2be4 <quorem+0x1e4>
    2bd8:	10bfff04 	addi	r2,r2,-4
    2bdc:	bdffffc4 	addi	r23,r23,-1
    2be0:	98bffb36 	bltu	r19,r2,2bd0 <__alt_mem_VGA_Subsystem_Char_Buf_Subsystem_Onchip_SRAM+0xf7002bd0>
    2be4:	d8c00017 	ldw	r3,0(sp)
    2be8:	1dc00415 	stw	r23,16(r3)
    2bec:	9005883a 	mov	r2,r18
    2bf0:	dfc00d17 	ldw	ra,52(sp)
    2bf4:	df000c17 	ldw	fp,48(sp)
    2bf8:	ddc00b17 	ldw	r23,44(sp)
    2bfc:	dd800a17 	ldw	r22,40(sp)
    2c00:	dd400917 	ldw	r21,36(sp)
    2c04:	dd000817 	ldw	r20,32(sp)
    2c08:	dcc00717 	ldw	r19,28(sp)
    2c0c:	dc800617 	ldw	r18,24(sp)
    2c10:	dc400517 	ldw	r17,20(sp)
    2c14:	dc000417 	ldw	r16,16(sp)
    2c18:	dec00e04 	addi	sp,sp,56
    2c1c:	f800283a 	ret
    2c20:	0005883a 	mov	r2,zero
    2c24:	003ff206 	br	2bf0 <__alt_mem_VGA_Subsystem_Char_Buf_Subsystem_Onchip_SRAM+0xf7002bf0>

00002c28 <_dtoa_r>:
    2c28:	20801017 	ldw	r2,64(r4)
    2c2c:	deffde04 	addi	sp,sp,-136
    2c30:	df002015 	stw	fp,128(sp)
    2c34:	dcc01b15 	stw	r19,108(sp)
    2c38:	dc801a15 	stw	r18,104(sp)
    2c3c:	dc401915 	stw	r17,100(sp)
    2c40:	dc001815 	stw	r16,96(sp)
    2c44:	dfc02115 	stw	ra,132(sp)
    2c48:	ddc01f15 	stw	r23,124(sp)
    2c4c:	dd801e15 	stw	r22,120(sp)
    2c50:	dd401d15 	stw	r21,116(sp)
    2c54:	dd001c15 	stw	r20,112(sp)
    2c58:	d9c00315 	stw	r7,12(sp)
    2c5c:	2039883a 	mov	fp,r4
    2c60:	3023883a 	mov	r17,r6
    2c64:	2825883a 	mov	r18,r5
    2c68:	dc002417 	ldw	r16,144(sp)
    2c6c:	3027883a 	mov	r19,r6
    2c70:	10000826 	beq	r2,zero,2c94 <_dtoa_r+0x6c>
    2c74:	21801117 	ldw	r6,68(r4)
    2c78:	00c00044 	movi	r3,1
    2c7c:	100b883a 	mov	r5,r2
    2c80:	1986983a 	sll	r3,r3,r6
    2c84:	11800115 	stw	r6,4(r2)
    2c88:	10c00215 	stw	r3,8(r2)
    2c8c:	0004e6c0 	call	4e6c <_Bfree>
    2c90:	e0001015 	stw	zero,64(fp)
    2c94:	88002e16 	blt	r17,zero,2d50 <_dtoa_r+0x128>
    2c98:	80000015 	stw	zero,0(r16)
    2c9c:	889ffc2c 	andhi	r2,r17,32752
    2ca0:	00dffc34 	movhi	r3,32752
    2ca4:	10c01c26 	beq	r2,r3,2d18 <_dtoa_r+0xf0>
    2ca8:	000d883a 	mov	r6,zero
    2cac:	000f883a 	mov	r7,zero
    2cb0:	9009883a 	mov	r4,r18
    2cb4:	980b883a 	mov	r5,r19
    2cb8:	000a3100 	call	a310 <__eqdf2>
    2cbc:	10002b1e 	bne	r2,zero,2d6c <_dtoa_r+0x144>
    2cc0:	d9c02317 	ldw	r7,140(sp)
    2cc4:	00800044 	movi	r2,1
    2cc8:	38800015 	stw	r2,0(r7)
    2ccc:	d8802517 	ldw	r2,148(sp)
    2cd0:	10019e26 	beq	r2,zero,334c <_dtoa_r+0x724>
    2cd4:	d8c02517 	ldw	r3,148(sp)
    2cd8:	00800074 	movhi	r2,1
    2cdc:	10b8d844 	addi	r2,r2,-7327
    2ce0:	18800015 	stw	r2,0(r3)
    2ce4:	10bfffc4 	addi	r2,r2,-1
    2ce8:	dfc02117 	ldw	ra,132(sp)
    2cec:	df002017 	ldw	fp,128(sp)
    2cf0:	ddc01f17 	ldw	r23,124(sp)
    2cf4:	dd801e17 	ldw	r22,120(sp)
    2cf8:	dd401d17 	ldw	r21,116(sp)
    2cfc:	dd001c17 	ldw	r20,112(sp)
    2d00:	dcc01b17 	ldw	r19,108(sp)
    2d04:	dc801a17 	ldw	r18,104(sp)
    2d08:	dc401917 	ldw	r17,100(sp)
    2d0c:	dc001817 	ldw	r16,96(sp)
    2d10:	dec02204 	addi	sp,sp,136
    2d14:	f800283a 	ret
    2d18:	d8c02317 	ldw	r3,140(sp)
    2d1c:	0089c3c4 	movi	r2,9999
    2d20:	18800015 	stw	r2,0(r3)
    2d24:	90017726 	beq	r18,zero,3304 <_dtoa_r+0x6dc>
    2d28:	00800074 	movhi	r2,1
    2d2c:	10b8e404 	addi	r2,r2,-7280
    2d30:	d9002517 	ldw	r4,148(sp)
    2d34:	203fec26 	beq	r4,zero,2ce8 <__alt_mem_VGA_Subsystem_Char_Buf_Subsystem_Onchip_SRAM+0xf7002ce8>
    2d38:	10c000c7 	ldb	r3,3(r2)
    2d3c:	1801781e 	bne	r3,zero,3320 <_dtoa_r+0x6f8>
    2d40:	10c000c4 	addi	r3,r2,3
    2d44:	d9802517 	ldw	r6,148(sp)
    2d48:	30c00015 	stw	r3,0(r6)
    2d4c:	003fe606 	br	2ce8 <__alt_mem_VGA_Subsystem_Char_Buf_Subsystem_Onchip_SRAM+0xf7002ce8>
    2d50:	04e00034 	movhi	r19,32768
    2d54:	9cffffc4 	addi	r19,r19,-1
    2d58:	00800044 	movi	r2,1
    2d5c:	8ce6703a 	and	r19,r17,r19
    2d60:	80800015 	stw	r2,0(r16)
    2d64:	9823883a 	mov	r17,r19
    2d68:	003fcc06 	br	2c9c <__alt_mem_VGA_Subsystem_Char_Buf_Subsystem_Onchip_SRAM+0xf7002c9c>
    2d6c:	d8800204 	addi	r2,sp,8
    2d70:	d8800015 	stw	r2,0(sp)
    2d74:	d9c00104 	addi	r7,sp,4
    2d78:	900b883a 	mov	r5,r18
    2d7c:	980d883a 	mov	r6,r19
    2d80:	e009883a 	mov	r4,fp
    2d84:	8820d53a 	srli	r16,r17,20
    2d88:	0005b140 	call	5b14 <__d2b>
    2d8c:	d8800915 	stw	r2,36(sp)
    2d90:	8001651e 	bne	r16,zero,3328 <_dtoa_r+0x700>
    2d94:	dd800217 	ldw	r22,8(sp)
    2d98:	dc000117 	ldw	r16,4(sp)
    2d9c:	00800804 	movi	r2,32
    2da0:	b421883a 	add	r16,r22,r16
    2da4:	80c10c84 	addi	r3,r16,1074
    2da8:	10c2d10e 	bge	r2,r3,38f0 <_dtoa_r+0xcc8>
    2dac:	00801004 	movi	r2,64
    2db0:	81010484 	addi	r4,r16,1042
    2db4:	10c7c83a 	sub	r3,r2,r3
    2db8:	9108d83a 	srl	r4,r18,r4
    2dbc:	88e2983a 	sll	r17,r17,r3
    2dc0:	2448b03a 	or	r4,r4,r17
    2dc4:	000b82c0 	call	b82c <__floatunsidf>
    2dc8:	017f8434 	movhi	r5,65040
    2dcc:	01800044 	movi	r6,1
    2dd0:	1009883a 	mov	r4,r2
    2dd4:	194b883a 	add	r5,r3,r5
    2dd8:	843fffc4 	addi	r16,r16,-1
    2ddc:	d9801115 	stw	r6,68(sp)
    2de0:	000d883a 	mov	r6,zero
    2de4:	01cffe34 	movhi	r7,16376
    2de8:	000add40 	call	add4 <__subdf3>
    2dec:	0198dbf4 	movhi	r6,25455
    2df0:	01cff4f4 	movhi	r7,16339
    2df4:	3190d844 	addi	r6,r6,17249
    2df8:	39e1e9c4 	addi	r7,r7,-30809
    2dfc:	1009883a 	mov	r4,r2
    2e00:	180b883a 	mov	r5,r3
    2e04:	000a5680 	call	a568 <__muldf3>
    2e08:	01a2d874 	movhi	r6,35681
    2e0c:	01cff1f4 	movhi	r7,16327
    2e10:	31b22cc4 	addi	r6,r6,-14157
    2e14:	39e28a04 	addi	r7,r7,-30168
    2e18:	180b883a 	mov	r5,r3
    2e1c:	1009883a 	mov	r4,r2
    2e20:	00090940 	call	9094 <__adddf3>
    2e24:	8009883a 	mov	r4,r16
    2e28:	1029883a 	mov	r20,r2
    2e2c:	1823883a 	mov	r17,r3
    2e30:	000b7500 	call	b750 <__floatsidf>
    2e34:	019427f4 	movhi	r6,20639
    2e38:	01cff4f4 	movhi	r7,16339
    2e3c:	319e7ec4 	addi	r6,r6,31227
    2e40:	39d104c4 	addi	r7,r7,17427
    2e44:	1009883a 	mov	r4,r2
    2e48:	180b883a 	mov	r5,r3
    2e4c:	000a5680 	call	a568 <__muldf3>
    2e50:	100d883a 	mov	r6,r2
    2e54:	180f883a 	mov	r7,r3
    2e58:	a009883a 	mov	r4,r20
    2e5c:	880b883a 	mov	r5,r17
    2e60:	00090940 	call	9094 <__adddf3>
    2e64:	1009883a 	mov	r4,r2
    2e68:	180b883a 	mov	r5,r3
    2e6c:	1029883a 	mov	r20,r2
    2e70:	1823883a 	mov	r17,r3
    2e74:	000b6d00 	call	b6d0 <__fixdfsi>
    2e78:	000d883a 	mov	r6,zero
    2e7c:	000f883a 	mov	r7,zero
    2e80:	a009883a 	mov	r4,r20
    2e84:	880b883a 	mov	r5,r17
    2e88:	d8800515 	stw	r2,20(sp)
    2e8c:	000a4740 	call	a474 <__ledf2>
    2e90:	10028716 	blt	r2,zero,38b0 <_dtoa_r+0xc88>
    2e94:	d8c00517 	ldw	r3,20(sp)
    2e98:	00800584 	movi	r2,22
    2e9c:	10c27536 	bltu	r2,r3,3874 <_dtoa_r+0xc4c>
    2ea0:	180490fa 	slli	r2,r3,3
    2ea4:	00c00074 	movhi	r3,1
    2ea8:	18f90004 	addi	r3,r3,-7168
    2eac:	1885883a 	add	r2,r3,r2
    2eb0:	11000017 	ldw	r4,0(r2)
    2eb4:	11400117 	ldw	r5,4(r2)
    2eb8:	900d883a 	mov	r6,r18
    2ebc:	980f883a 	mov	r7,r19
    2ec0:	000a3980 	call	a398 <__gedf2>
    2ec4:	00828d0e 	bge	zero,r2,38fc <_dtoa_r+0xcd4>
    2ec8:	d9000517 	ldw	r4,20(sp)
    2ecc:	d8000e15 	stw	zero,56(sp)
    2ed0:	213fffc4 	addi	r4,r4,-1
    2ed4:	d9000515 	stw	r4,20(sp)
    2ed8:	b42dc83a 	sub	r22,r22,r16
    2edc:	b5bfffc4 	addi	r22,r22,-1
    2ee0:	b0026f16 	blt	r22,zero,38a0 <_dtoa_r+0xc78>
    2ee4:	d8000815 	stw	zero,32(sp)
    2ee8:	d9c00517 	ldw	r7,20(sp)
    2eec:	38026416 	blt	r7,zero,3880 <_dtoa_r+0xc58>
    2ef0:	b1ed883a 	add	r22,r22,r7
    2ef4:	d9c00d15 	stw	r7,52(sp)
    2ef8:	d8000a15 	stw	zero,40(sp)
    2efc:	d9800317 	ldw	r6,12(sp)
    2f00:	00800244 	movi	r2,9
    2f04:	11811436 	bltu	r2,r6,3358 <_dtoa_r+0x730>
    2f08:	00800144 	movi	r2,5
    2f0c:	1184e10e 	bge	r2,r6,4294 <_dtoa_r+0x166c>
    2f10:	31bfff04 	addi	r6,r6,-4
    2f14:	d9800315 	stw	r6,12(sp)
    2f18:	0023883a 	mov	r17,zero
    2f1c:	d9800317 	ldw	r6,12(sp)
    2f20:	008000c4 	movi	r2,3
    2f24:	30836726 	beq	r6,r2,3cc4 <_dtoa_r+0x109c>
    2f28:	1183410e 	bge	r2,r6,3c30 <_dtoa_r+0x1008>
    2f2c:	d9c00317 	ldw	r7,12(sp)
    2f30:	00800104 	movi	r2,4
    2f34:	38827c26 	beq	r7,r2,3928 <_dtoa_r+0xd00>
    2f38:	00800144 	movi	r2,5
    2f3c:	3884c41e 	bne	r7,r2,4250 <_dtoa_r+0x1628>
    2f40:	00800044 	movi	r2,1
    2f44:	d8800b15 	stw	r2,44(sp)
    2f48:	d8c00517 	ldw	r3,20(sp)
    2f4c:	d9002217 	ldw	r4,136(sp)
    2f50:	1907883a 	add	r3,r3,r4
    2f54:	19800044 	addi	r6,r3,1
    2f58:	d8c00c15 	stw	r3,48(sp)
    2f5c:	d9800615 	stw	r6,24(sp)
    2f60:	0183a40e 	bge	zero,r6,3df4 <_dtoa_r+0x11cc>
    2f64:	d9800617 	ldw	r6,24(sp)
    2f68:	3021883a 	mov	r16,r6
    2f6c:	e0001115 	stw	zero,68(fp)
    2f70:	008005c4 	movi	r2,23
    2f74:	1184c92e 	bgeu	r2,r6,429c <_dtoa_r+0x1674>
    2f78:	00c00044 	movi	r3,1
    2f7c:	00800104 	movi	r2,4
    2f80:	1085883a 	add	r2,r2,r2
    2f84:	11000504 	addi	r4,r2,20
    2f88:	180b883a 	mov	r5,r3
    2f8c:	18c00044 	addi	r3,r3,1
    2f90:	313ffb2e 	bgeu	r6,r4,2f80 <__alt_mem_VGA_Subsystem_Char_Buf_Subsystem_Onchip_SRAM+0xf7002f80>
    2f94:	e1401115 	stw	r5,68(fp)
    2f98:	e009883a 	mov	r4,fp
    2f9c:	0004dc40 	call	4dc4 <_Balloc>
    2fa0:	d8800715 	stw	r2,28(sp)
    2fa4:	e0801015 	stw	r2,64(fp)
    2fa8:	00800384 	movi	r2,14
    2fac:	1400f736 	bltu	r2,r16,338c <_dtoa_r+0x764>
    2fb0:	8800f626 	beq	r17,zero,338c <_dtoa_r+0x764>
    2fb4:	d9c00517 	ldw	r7,20(sp)
    2fb8:	01c39a0e 	bge	zero,r7,3e24 <_dtoa_r+0x11fc>
    2fbc:	388003cc 	andi	r2,r7,15
    2fc0:	100490fa 	slli	r2,r2,3
    2fc4:	382bd13a 	srai	r21,r7,4
    2fc8:	00c00074 	movhi	r3,1
    2fcc:	18f90004 	addi	r3,r3,-7168
    2fd0:	1885883a 	add	r2,r3,r2
    2fd4:	a8c0040c 	andi	r3,r21,16
    2fd8:	12400017 	ldw	r9,0(r2)
    2fdc:	12000117 	ldw	r8,4(r2)
    2fe0:	18037926 	beq	r3,zero,3dc8 <_dtoa_r+0x11a0>
    2fe4:	00800074 	movhi	r2,1
    2fe8:	10b8f604 	addi	r2,r2,-7208
    2fec:	11800817 	ldw	r6,32(r2)
    2ff0:	11c00917 	ldw	r7,36(r2)
    2ff4:	9009883a 	mov	r4,r18
    2ff8:	980b883a 	mov	r5,r19
    2ffc:	da001715 	stw	r8,92(sp)
    3000:	da401615 	stw	r9,88(sp)
    3004:	00099400 	call	9940 <__divdf3>
    3008:	da001717 	ldw	r8,92(sp)
    300c:	da401617 	ldw	r9,88(sp)
    3010:	ad4003cc 	andi	r21,r21,15
    3014:	040000c4 	movi	r16,3
    3018:	1023883a 	mov	r17,r2
    301c:	1829883a 	mov	r20,r3
    3020:	a8001126 	beq	r21,zero,3068 <_dtoa_r+0x440>
    3024:	05c00074 	movhi	r23,1
    3028:	bdf8f604 	addi	r23,r23,-7208
    302c:	4805883a 	mov	r2,r9
    3030:	4007883a 	mov	r3,r8
    3034:	a980004c 	andi	r6,r21,1
    3038:	1009883a 	mov	r4,r2
    303c:	a82bd07a 	srai	r21,r21,1
    3040:	180b883a 	mov	r5,r3
    3044:	30000426 	beq	r6,zero,3058 <_dtoa_r+0x430>
    3048:	b9800017 	ldw	r6,0(r23)
    304c:	b9c00117 	ldw	r7,4(r23)
    3050:	84000044 	addi	r16,r16,1
    3054:	000a5680 	call	a568 <__muldf3>
    3058:	bdc00204 	addi	r23,r23,8
    305c:	a83ff51e 	bne	r21,zero,3034 <__alt_mem_VGA_Subsystem_Char_Buf_Subsystem_Onchip_SRAM+0xf7003034>
    3060:	1013883a 	mov	r9,r2
    3064:	1811883a 	mov	r8,r3
    3068:	480d883a 	mov	r6,r9
    306c:	400f883a 	mov	r7,r8
    3070:	8809883a 	mov	r4,r17
    3074:	a00b883a 	mov	r5,r20
    3078:	00099400 	call	9940 <__divdf3>
    307c:	d8800f15 	stw	r2,60(sp)
    3080:	d8c01015 	stw	r3,64(sp)
    3084:	d8c00e17 	ldw	r3,56(sp)
    3088:	18000626 	beq	r3,zero,30a4 <_dtoa_r+0x47c>
    308c:	d9000f17 	ldw	r4,60(sp)
    3090:	d9401017 	ldw	r5,64(sp)
    3094:	000d883a 	mov	r6,zero
    3098:	01cffc34 	movhi	r7,16368
    309c:	000a4740 	call	a474 <__ledf2>
    30a0:	10040b16 	blt	r2,zero,40d0 <_dtoa_r+0x14a8>
    30a4:	8009883a 	mov	r4,r16
    30a8:	000b7500 	call	b750 <__floatsidf>
    30ac:	d9800f17 	ldw	r6,60(sp)
    30b0:	d9c01017 	ldw	r7,64(sp)
    30b4:	1009883a 	mov	r4,r2
    30b8:	180b883a 	mov	r5,r3
    30bc:	000a5680 	call	a568 <__muldf3>
    30c0:	000d883a 	mov	r6,zero
    30c4:	01d00734 	movhi	r7,16412
    30c8:	1009883a 	mov	r4,r2
    30cc:	180b883a 	mov	r5,r3
    30d0:	00090940 	call	9094 <__adddf3>
    30d4:	1021883a 	mov	r16,r2
    30d8:	d8800617 	ldw	r2,24(sp)
    30dc:	047f3034 	movhi	r17,64704
    30e0:	1c63883a 	add	r17,r3,r17
    30e4:	10031826 	beq	r2,zero,3d48 <_dtoa_r+0x1120>
    30e8:	d8c00517 	ldw	r3,20(sp)
    30ec:	db000617 	ldw	r12,24(sp)
    30f0:	d8c01315 	stw	r3,76(sp)
    30f4:	d9000b17 	ldw	r4,44(sp)
    30f8:	20038f26 	beq	r4,zero,3f38 <_dtoa_r+0x1310>
    30fc:	60bfffc4 	addi	r2,r12,-1
    3100:	100490fa 	slli	r2,r2,3
    3104:	00c00074 	movhi	r3,1
    3108:	18f90004 	addi	r3,r3,-7168
    310c:	1885883a 	add	r2,r3,r2
    3110:	11800017 	ldw	r6,0(r2)
    3114:	11c00117 	ldw	r7,4(r2)
    3118:	d8800717 	ldw	r2,28(sp)
    311c:	0009883a 	mov	r4,zero
    3120:	014ff834 	movhi	r5,16352
    3124:	db001615 	stw	r12,88(sp)
    3128:	15c00044 	addi	r23,r2,1
    312c:	00099400 	call	9940 <__divdf3>
    3130:	800d883a 	mov	r6,r16
    3134:	880f883a 	mov	r7,r17
    3138:	1009883a 	mov	r4,r2
    313c:	180b883a 	mov	r5,r3
    3140:	000add40 	call	add4 <__subdf3>
    3144:	d9401017 	ldw	r5,64(sp)
    3148:	d9000f17 	ldw	r4,60(sp)
    314c:	102b883a 	mov	r21,r2
    3150:	d8c01215 	stw	r3,72(sp)
    3154:	000b6d00 	call	b6d0 <__fixdfsi>
    3158:	1009883a 	mov	r4,r2
    315c:	1029883a 	mov	r20,r2
    3160:	000b7500 	call	b750 <__floatsidf>
    3164:	d9000f17 	ldw	r4,60(sp)
    3168:	d9401017 	ldw	r5,64(sp)
    316c:	100d883a 	mov	r6,r2
    3170:	180f883a 	mov	r7,r3
    3174:	000add40 	call	add4 <__subdf3>
    3178:	1823883a 	mov	r17,r3
    317c:	d8c00717 	ldw	r3,28(sp)
    3180:	d9401217 	ldw	r5,72(sp)
    3184:	a2000c04 	addi	r8,r20,48
    3188:	1021883a 	mov	r16,r2
    318c:	1a000005 	stb	r8,0(r3)
    3190:	800d883a 	mov	r6,r16
    3194:	880f883a 	mov	r7,r17
    3198:	a809883a 	mov	r4,r21
    319c:	4029883a 	mov	r20,r8
    31a0:	000a3980 	call	a398 <__gedf2>
    31a4:	00841d16 	blt	zero,r2,421c <_dtoa_r+0x15f4>
    31a8:	800d883a 	mov	r6,r16
    31ac:	880f883a 	mov	r7,r17
    31b0:	0009883a 	mov	r4,zero
    31b4:	014ffc34 	movhi	r5,16368
    31b8:	000add40 	call	add4 <__subdf3>
    31bc:	d9401217 	ldw	r5,72(sp)
    31c0:	100d883a 	mov	r6,r2
    31c4:	180f883a 	mov	r7,r3
    31c8:	a809883a 	mov	r4,r21
    31cc:	000a3980 	call	a398 <__gedf2>
    31d0:	db001617 	ldw	r12,88(sp)
    31d4:	00840e16 	blt	zero,r2,4210 <_dtoa_r+0x15e8>
    31d8:	00800044 	movi	r2,1
    31dc:	13006b0e 	bge	r2,r12,338c <_dtoa_r+0x764>
    31e0:	d9000717 	ldw	r4,28(sp)
    31e4:	dd800f15 	stw	r22,60(sp)
    31e8:	dcc01015 	stw	r19,64(sp)
    31ec:	2319883a 	add	r12,r4,r12
    31f0:	dcc01217 	ldw	r19,72(sp)
    31f4:	602d883a 	mov	r22,r12
    31f8:	dc801215 	stw	r18,72(sp)
    31fc:	b825883a 	mov	r18,r23
    3200:	00000906 	br	3228 <_dtoa_r+0x600>
    3204:	000add40 	call	add4 <__subdf3>
    3208:	a80d883a 	mov	r6,r21
    320c:	980f883a 	mov	r7,r19
    3210:	1009883a 	mov	r4,r2
    3214:	180b883a 	mov	r5,r3
    3218:	000a4740 	call	a474 <__ledf2>
    321c:	1003e816 	blt	r2,zero,41c0 <_dtoa_r+0x1598>
    3220:	b825883a 	mov	r18,r23
    3224:	bd83e926 	beq	r23,r22,41cc <_dtoa_r+0x15a4>
    3228:	a809883a 	mov	r4,r21
    322c:	980b883a 	mov	r5,r19
    3230:	000d883a 	mov	r6,zero
    3234:	01d00934 	movhi	r7,16420
    3238:	000a5680 	call	a568 <__muldf3>
    323c:	000d883a 	mov	r6,zero
    3240:	01d00934 	movhi	r7,16420
    3244:	8009883a 	mov	r4,r16
    3248:	880b883a 	mov	r5,r17
    324c:	102b883a 	mov	r21,r2
    3250:	1827883a 	mov	r19,r3
    3254:	000a5680 	call	a568 <__muldf3>
    3258:	180b883a 	mov	r5,r3
    325c:	1009883a 	mov	r4,r2
    3260:	1821883a 	mov	r16,r3
    3264:	1023883a 	mov	r17,r2
    3268:	000b6d00 	call	b6d0 <__fixdfsi>
    326c:	1009883a 	mov	r4,r2
    3270:	1029883a 	mov	r20,r2
    3274:	000b7500 	call	b750 <__floatsidf>
    3278:	8809883a 	mov	r4,r17
    327c:	800b883a 	mov	r5,r16
    3280:	100d883a 	mov	r6,r2
    3284:	180f883a 	mov	r7,r3
    3288:	000add40 	call	add4 <__subdf3>
    328c:	a5000c04 	addi	r20,r20,48
    3290:	a80d883a 	mov	r6,r21
    3294:	980f883a 	mov	r7,r19
    3298:	1009883a 	mov	r4,r2
    329c:	180b883a 	mov	r5,r3
    32a0:	95000005 	stb	r20,0(r18)
    32a4:	1021883a 	mov	r16,r2
    32a8:	1823883a 	mov	r17,r3
    32ac:	000a4740 	call	a474 <__ledf2>
    32b0:	bdc00044 	addi	r23,r23,1
    32b4:	800d883a 	mov	r6,r16
    32b8:	880f883a 	mov	r7,r17
    32bc:	0009883a 	mov	r4,zero
    32c0:	014ffc34 	movhi	r5,16368
    32c4:	103fcf0e 	bge	r2,zero,3204 <__alt_mem_VGA_Subsystem_Char_Buf_Subsystem_Onchip_SRAM+0xf7003204>
    32c8:	d8c01317 	ldw	r3,76(sp)
    32cc:	d8c00515 	stw	r3,20(sp)
    32d0:	d9400917 	ldw	r5,36(sp)
    32d4:	e009883a 	mov	r4,fp
    32d8:	0004e6c0 	call	4e6c <_Bfree>
    32dc:	d9000517 	ldw	r4,20(sp)
    32e0:	d9802317 	ldw	r6,140(sp)
    32e4:	d9c02517 	ldw	r7,148(sp)
    32e8:	b8000005 	stb	zero,0(r23)
    32ec:	20800044 	addi	r2,r4,1
    32f0:	30800015 	stw	r2,0(r6)
    32f4:	3802aa26 	beq	r7,zero,3da0 <_dtoa_r+0x1178>
    32f8:	3dc00015 	stw	r23,0(r7)
    32fc:	d8800717 	ldw	r2,28(sp)
    3300:	003e7906 	br	2ce8 <__alt_mem_VGA_Subsystem_Char_Buf_Subsystem_Onchip_SRAM+0xf7002ce8>
    3304:	00800434 	movhi	r2,16
    3308:	10bfffc4 	addi	r2,r2,-1
    330c:	88a2703a 	and	r17,r17,r2
    3310:	883e851e 	bne	r17,zero,2d28 <__alt_mem_VGA_Subsystem_Char_Buf_Subsystem_Onchip_SRAM+0xf7002d28>
    3314:	00800074 	movhi	r2,1
    3318:	10b8e104 	addi	r2,r2,-7292
    331c:	003e8406 	br	2d30 <__alt_mem_VGA_Subsystem_Char_Buf_Subsystem_Onchip_SRAM+0xf7002d30>
    3320:	10c00204 	addi	r3,r2,8
    3324:	003e8706 	br	2d44 <__alt_mem_VGA_Subsystem_Char_Buf_Subsystem_Onchip_SRAM+0xf7002d44>
    3328:	01400434 	movhi	r5,16
    332c:	297fffc4 	addi	r5,r5,-1
    3330:	994a703a 	and	r5,r19,r5
    3334:	9009883a 	mov	r4,r18
    3338:	843f0044 	addi	r16,r16,-1023
    333c:	294ffc34 	orhi	r5,r5,16368
    3340:	dd800217 	ldw	r22,8(sp)
    3344:	d8001115 	stw	zero,68(sp)
    3348:	003ea506 	br	2de0 <__alt_mem_VGA_Subsystem_Char_Buf_Subsystem_Onchip_SRAM+0xf7002de0>
    334c:	00800074 	movhi	r2,1
    3350:	10b8d804 	addi	r2,r2,-7328
    3354:	003e6406 	br	2ce8 <__alt_mem_VGA_Subsystem_Char_Buf_Subsystem_Onchip_SRAM+0xf7002ce8>
    3358:	e0001115 	stw	zero,68(fp)
    335c:	000b883a 	mov	r5,zero
    3360:	e009883a 	mov	r4,fp
    3364:	0004dc40 	call	4dc4 <_Balloc>
    3368:	01bfffc4 	movi	r6,-1
    336c:	01c00044 	movi	r7,1
    3370:	d8800715 	stw	r2,28(sp)
    3374:	d9800c15 	stw	r6,48(sp)
    3378:	e0801015 	stw	r2,64(fp)
    337c:	d8000315 	stw	zero,12(sp)
    3380:	d9c00b15 	stw	r7,44(sp)
    3384:	d9800615 	stw	r6,24(sp)
    3388:	d8002215 	stw	zero,136(sp)
    338c:	d8800117 	ldw	r2,4(sp)
    3390:	10008916 	blt	r2,zero,35b8 <_dtoa_r+0x990>
    3394:	d9000517 	ldw	r4,20(sp)
    3398:	00c00384 	movi	r3,14
    339c:	19008616 	blt	r3,r4,35b8 <_dtoa_r+0x990>
    33a0:	200490fa 	slli	r2,r4,3
    33a4:	00c00074 	movhi	r3,1
    33a8:	d9802217 	ldw	r6,136(sp)
    33ac:	18f90004 	addi	r3,r3,-7168
    33b0:	1885883a 	add	r2,r3,r2
    33b4:	14000017 	ldw	r16,0(r2)
    33b8:	14400117 	ldw	r17,4(r2)
    33bc:	30016316 	blt	r6,zero,394c <_dtoa_r+0xd24>
    33c0:	800d883a 	mov	r6,r16
    33c4:	880f883a 	mov	r7,r17
    33c8:	9009883a 	mov	r4,r18
    33cc:	980b883a 	mov	r5,r19
    33d0:	00099400 	call	9940 <__divdf3>
    33d4:	180b883a 	mov	r5,r3
    33d8:	1009883a 	mov	r4,r2
    33dc:	000b6d00 	call	b6d0 <__fixdfsi>
    33e0:	1009883a 	mov	r4,r2
    33e4:	102b883a 	mov	r21,r2
    33e8:	000b7500 	call	b750 <__floatsidf>
    33ec:	800d883a 	mov	r6,r16
    33f0:	880f883a 	mov	r7,r17
    33f4:	1009883a 	mov	r4,r2
    33f8:	180b883a 	mov	r5,r3
    33fc:	000a5680 	call	a568 <__muldf3>
    3400:	100d883a 	mov	r6,r2
    3404:	180f883a 	mov	r7,r3
    3408:	9009883a 	mov	r4,r18
    340c:	980b883a 	mov	r5,r19
    3410:	000add40 	call	add4 <__subdf3>
    3414:	d9c00717 	ldw	r7,28(sp)
    3418:	1009883a 	mov	r4,r2
    341c:	a8800c04 	addi	r2,r21,48
    3420:	38800005 	stb	r2,0(r7)
    3424:	3dc00044 	addi	r23,r7,1
    3428:	d9c00617 	ldw	r7,24(sp)
    342c:	01800044 	movi	r6,1
    3430:	180b883a 	mov	r5,r3
    3434:	2005883a 	mov	r2,r4
    3438:	39803826 	beq	r7,r6,351c <_dtoa_r+0x8f4>
    343c:	000d883a 	mov	r6,zero
    3440:	01d00934 	movhi	r7,16420
    3444:	000a5680 	call	a568 <__muldf3>
    3448:	000d883a 	mov	r6,zero
    344c:	000f883a 	mov	r7,zero
    3450:	1009883a 	mov	r4,r2
    3454:	180b883a 	mov	r5,r3
    3458:	1025883a 	mov	r18,r2
    345c:	1827883a 	mov	r19,r3
    3460:	000a3100 	call	a310 <__eqdf2>
    3464:	103f9a26 	beq	r2,zero,32d0 <__alt_mem_VGA_Subsystem_Char_Buf_Subsystem_Onchip_SRAM+0xf70032d0>
    3468:	d9c00617 	ldw	r7,24(sp)
    346c:	d8c00717 	ldw	r3,28(sp)
    3470:	b829883a 	mov	r20,r23
    3474:	38bfffc4 	addi	r2,r7,-1
    3478:	18ad883a 	add	r22,r3,r2
    347c:	00000a06 	br	34a8 <_dtoa_r+0x880>
    3480:	000a5680 	call	a568 <__muldf3>
    3484:	000d883a 	mov	r6,zero
    3488:	000f883a 	mov	r7,zero
    348c:	1009883a 	mov	r4,r2
    3490:	180b883a 	mov	r5,r3
    3494:	1025883a 	mov	r18,r2
    3498:	1827883a 	mov	r19,r3
    349c:	b829883a 	mov	r20,r23
    34a0:	000a3100 	call	a310 <__eqdf2>
    34a4:	103f8a26 	beq	r2,zero,32d0 <__alt_mem_VGA_Subsystem_Char_Buf_Subsystem_Onchip_SRAM+0xf70032d0>
    34a8:	800d883a 	mov	r6,r16
    34ac:	880f883a 	mov	r7,r17
    34b0:	9009883a 	mov	r4,r18
    34b4:	980b883a 	mov	r5,r19
    34b8:	00099400 	call	9940 <__divdf3>
    34bc:	180b883a 	mov	r5,r3
    34c0:	1009883a 	mov	r4,r2
    34c4:	000b6d00 	call	b6d0 <__fixdfsi>
    34c8:	1009883a 	mov	r4,r2
    34cc:	102b883a 	mov	r21,r2
    34d0:	000b7500 	call	b750 <__floatsidf>
    34d4:	800d883a 	mov	r6,r16
    34d8:	880f883a 	mov	r7,r17
    34dc:	1009883a 	mov	r4,r2
    34e0:	180b883a 	mov	r5,r3
    34e4:	000a5680 	call	a568 <__muldf3>
    34e8:	100d883a 	mov	r6,r2
    34ec:	180f883a 	mov	r7,r3
    34f0:	9009883a 	mov	r4,r18
    34f4:	980b883a 	mov	r5,r19
    34f8:	000add40 	call	add4 <__subdf3>
    34fc:	aa000c04 	addi	r8,r21,48
    3500:	a2000005 	stb	r8,0(r20)
    3504:	000d883a 	mov	r6,zero
    3508:	01d00934 	movhi	r7,16420
    350c:	1009883a 	mov	r4,r2
    3510:	180b883a 	mov	r5,r3
    3514:	a5c00044 	addi	r23,r20,1
    3518:	b53fd91e 	bne	r22,r20,3480 <__alt_mem_VGA_Subsystem_Char_Buf_Subsystem_Onchip_SRAM+0xf7003480>
    351c:	100d883a 	mov	r6,r2
    3520:	180f883a 	mov	r7,r3
    3524:	1009883a 	mov	r4,r2
    3528:	180b883a 	mov	r5,r3
    352c:	00090940 	call	9094 <__adddf3>
    3530:	100d883a 	mov	r6,r2
    3534:	180f883a 	mov	r7,r3
    3538:	8009883a 	mov	r4,r16
    353c:	880b883a 	mov	r5,r17
    3540:	1027883a 	mov	r19,r2
    3544:	1825883a 	mov	r18,r3
    3548:	000a4740 	call	a474 <__ledf2>
    354c:	10000816 	blt	r2,zero,3570 <_dtoa_r+0x948>
    3550:	980d883a 	mov	r6,r19
    3554:	900f883a 	mov	r7,r18
    3558:	8009883a 	mov	r4,r16
    355c:	880b883a 	mov	r5,r17
    3560:	000a3100 	call	a310 <__eqdf2>
    3564:	103f5a1e 	bne	r2,zero,32d0 <__alt_mem_VGA_Subsystem_Char_Buf_Subsystem_Onchip_SRAM+0xf70032d0>
    3568:	ad40004c 	andi	r21,r21,1
    356c:	a83f5826 	beq	r21,zero,32d0 <__alt_mem_VGA_Subsystem_Char_Buf_Subsystem_Onchip_SRAM+0xf70032d0>
    3570:	bd3fffc3 	ldbu	r20,-1(r23)
    3574:	b8bfffc4 	addi	r2,r23,-1
    3578:	1007883a 	mov	r3,r2
    357c:	01400e44 	movi	r5,57
    3580:	d9800717 	ldw	r6,28(sp)
    3584:	00000506 	br	359c <_dtoa_r+0x974>
    3588:	18ffffc4 	addi	r3,r3,-1
    358c:	11824726 	beq	r2,r6,3eac <_dtoa_r+0x1284>
    3590:	1d000003 	ldbu	r20,0(r3)
    3594:	102f883a 	mov	r23,r2
    3598:	10bfffc4 	addi	r2,r2,-1
    359c:	a1003fcc 	andi	r4,r20,255
    35a0:	2100201c 	xori	r4,r4,128
    35a4:	213fe004 	addi	r4,r4,-128
    35a8:	217ff726 	beq	r4,r5,3588 <__alt_mem_VGA_Subsystem_Char_Buf_Subsystem_Onchip_SRAM+0xf7003588>
    35ac:	a2000044 	addi	r8,r20,1
    35b0:	12000005 	stb	r8,0(r2)
    35b4:	003f4606 	br	32d0 <__alt_mem_VGA_Subsystem_Char_Buf_Subsystem_Onchip_SRAM+0xf70032d0>
    35b8:	d9000b17 	ldw	r4,44(sp)
    35bc:	2000c826 	beq	r4,zero,38e0 <_dtoa_r+0xcb8>
    35c0:	d9800317 	ldw	r6,12(sp)
    35c4:	00c00044 	movi	r3,1
    35c8:	1980f90e 	bge	r3,r6,39b0 <_dtoa_r+0xd88>
    35cc:	d8800617 	ldw	r2,24(sp)
    35d0:	d8c00a17 	ldw	r3,40(sp)
    35d4:	157fffc4 	addi	r21,r2,-1
    35d8:	1d41f316 	blt	r3,r21,3da8 <_dtoa_r+0x1180>
    35dc:	1d6bc83a 	sub	r21,r3,r21
    35e0:	d9c00617 	ldw	r7,24(sp)
    35e4:	3802aa16 	blt	r7,zero,4090 <_dtoa_r+0x1468>
    35e8:	dd000817 	ldw	r20,32(sp)
    35ec:	d8800617 	ldw	r2,24(sp)
    35f0:	d8c00817 	ldw	r3,32(sp)
    35f4:	01400044 	movi	r5,1
    35f8:	e009883a 	mov	r4,fp
    35fc:	1887883a 	add	r3,r3,r2
    3600:	d8c00815 	stw	r3,32(sp)
    3604:	b0ad883a 	add	r22,r22,r2
    3608:	00051f80 	call	51f8 <__i2b>
    360c:	1023883a 	mov	r17,r2
    3610:	a0000826 	beq	r20,zero,3634 <_dtoa_r+0xa0c>
    3614:	0580070e 	bge	zero,r22,3634 <_dtoa_r+0xa0c>
    3618:	a005883a 	mov	r2,r20
    361c:	b500b916 	blt	r22,r20,3904 <_dtoa_r+0xcdc>
    3620:	d9000817 	ldw	r4,32(sp)
    3624:	a0a9c83a 	sub	r20,r20,r2
    3628:	b0adc83a 	sub	r22,r22,r2
    362c:	2089c83a 	sub	r4,r4,r2
    3630:	d9000815 	stw	r4,32(sp)
    3634:	d9800a17 	ldw	r6,40(sp)
    3638:	0181810e 	bge	zero,r6,3c40 <_dtoa_r+0x1018>
    363c:	d9c00b17 	ldw	r7,44(sp)
    3640:	3800b326 	beq	r7,zero,3910 <_dtoa_r+0xce8>
    3644:	a800b226 	beq	r21,zero,3910 <_dtoa_r+0xce8>
    3648:	880b883a 	mov	r5,r17
    364c:	a80d883a 	mov	r6,r21
    3650:	e009883a 	mov	r4,fp
    3654:	00054c00 	call	54c0 <__pow5mult>
    3658:	d9800917 	ldw	r6,36(sp)
    365c:	100b883a 	mov	r5,r2
    3660:	e009883a 	mov	r4,fp
    3664:	1023883a 	mov	r17,r2
    3668:	00052340 	call	5234 <__multiply>
    366c:	1021883a 	mov	r16,r2
    3670:	d8800a17 	ldw	r2,40(sp)
    3674:	d9400917 	ldw	r5,36(sp)
    3678:	e009883a 	mov	r4,fp
    367c:	1545c83a 	sub	r2,r2,r21
    3680:	d8800a15 	stw	r2,40(sp)
    3684:	0004e6c0 	call	4e6c <_Bfree>
    3688:	d8c00a17 	ldw	r3,40(sp)
    368c:	18009f1e 	bne	r3,zero,390c <_dtoa_r+0xce4>
    3690:	05c00044 	movi	r23,1
    3694:	e009883a 	mov	r4,fp
    3698:	b80b883a 	mov	r5,r23
    369c:	00051f80 	call	51f8 <__i2b>
    36a0:	d9000d17 	ldw	r4,52(sp)
    36a4:	102b883a 	mov	r21,r2
    36a8:	2000ce26 	beq	r4,zero,39e4 <_dtoa_r+0xdbc>
    36ac:	200d883a 	mov	r6,r4
    36b0:	100b883a 	mov	r5,r2
    36b4:	e009883a 	mov	r4,fp
    36b8:	00054c00 	call	54c0 <__pow5mult>
    36bc:	d9800317 	ldw	r6,12(sp)
    36c0:	102b883a 	mov	r21,r2
    36c4:	b981810e 	bge	r23,r6,3ccc <_dtoa_r+0x10a4>
    36c8:	0027883a 	mov	r19,zero
    36cc:	a8800417 	ldw	r2,16(r21)
    36d0:	05c00804 	movi	r23,32
    36d4:	10800104 	addi	r2,r2,4
    36d8:	1085883a 	add	r2,r2,r2
    36dc:	1085883a 	add	r2,r2,r2
    36e0:	a885883a 	add	r2,r21,r2
    36e4:	11000017 	ldw	r4,0(r2)
    36e8:	00050e00 	call	50e0 <__hi0bits>
    36ec:	b885c83a 	sub	r2,r23,r2
    36f0:	1585883a 	add	r2,r2,r22
    36f4:	108007cc 	andi	r2,r2,31
    36f8:	1000b326 	beq	r2,zero,39c8 <_dtoa_r+0xda0>
    36fc:	00c00804 	movi	r3,32
    3700:	1887c83a 	sub	r3,r3,r2
    3704:	01000104 	movi	r4,4
    3708:	20c2cd0e 	bge	r4,r3,4240 <_dtoa_r+0x1618>
    370c:	00c00704 	movi	r3,28
    3710:	1885c83a 	sub	r2,r3,r2
    3714:	d8c00817 	ldw	r3,32(sp)
    3718:	a0a9883a 	add	r20,r20,r2
    371c:	b0ad883a 	add	r22,r22,r2
    3720:	1887883a 	add	r3,r3,r2
    3724:	d8c00815 	stw	r3,32(sp)
    3728:	d9800817 	ldw	r6,32(sp)
    372c:	0180040e 	bge	zero,r6,3740 <_dtoa_r+0xb18>
    3730:	800b883a 	mov	r5,r16
    3734:	e009883a 	mov	r4,fp
    3738:	00056000 	call	5600 <__lshift>
    373c:	1021883a 	mov	r16,r2
    3740:	0580050e 	bge	zero,r22,3758 <_dtoa_r+0xb30>
    3744:	a80b883a 	mov	r5,r21
    3748:	b00d883a 	mov	r6,r22
    374c:	e009883a 	mov	r4,fp
    3750:	00056000 	call	5600 <__lshift>
    3754:	102b883a 	mov	r21,r2
    3758:	d9c00e17 	ldw	r7,56(sp)
    375c:	3801211e 	bne	r7,zero,3be4 <_dtoa_r+0xfbc>
    3760:	d9800617 	ldw	r6,24(sp)
    3764:	0181380e 	bge	zero,r6,3c48 <_dtoa_r+0x1020>
    3768:	d8c00b17 	ldw	r3,44(sp)
    376c:	1800ab1e 	bne	r3,zero,3a1c <_dtoa_r+0xdf4>
    3770:	dc800717 	ldw	r18,28(sp)
    3774:	dcc00617 	ldw	r19,24(sp)
    3778:	9029883a 	mov	r20,r18
    377c:	00000206 	br	3788 <_dtoa_r+0xb60>
    3780:	0004e940 	call	4e94 <__multadd>
    3784:	1021883a 	mov	r16,r2
    3788:	a80b883a 	mov	r5,r21
    378c:	8009883a 	mov	r4,r16
    3790:	0002a000 	call	2a00 <quorem>
    3794:	10800c04 	addi	r2,r2,48
    3798:	90800005 	stb	r2,0(r18)
    379c:	94800044 	addi	r18,r18,1
    37a0:	9507c83a 	sub	r3,r18,r20
    37a4:	000f883a 	mov	r7,zero
    37a8:	01800284 	movi	r6,10
    37ac:	800b883a 	mov	r5,r16
    37b0:	e009883a 	mov	r4,fp
    37b4:	1cfff216 	blt	r3,r19,3780 <__alt_mem_VGA_Subsystem_Char_Buf_Subsystem_Onchip_SRAM+0xf7003780>
    37b8:	1011883a 	mov	r8,r2
    37bc:	d8800617 	ldw	r2,24(sp)
    37c0:	0082370e 	bge	zero,r2,40a0 <_dtoa_r+0x1478>
    37c4:	d9000717 	ldw	r4,28(sp)
    37c8:	0025883a 	mov	r18,zero
    37cc:	20af883a 	add	r23,r4,r2
    37d0:	01800044 	movi	r6,1
    37d4:	800b883a 	mov	r5,r16
    37d8:	e009883a 	mov	r4,fp
    37dc:	da001715 	stw	r8,92(sp)
    37e0:	00056000 	call	5600 <__lshift>
    37e4:	a80b883a 	mov	r5,r21
    37e8:	1009883a 	mov	r4,r2
    37ec:	d8800915 	stw	r2,36(sp)
    37f0:	00057480 	call	5748 <__mcmp>
    37f4:	da001717 	ldw	r8,92(sp)
    37f8:	0081800e 	bge	zero,r2,3dfc <_dtoa_r+0x11d4>
    37fc:	b93fffc3 	ldbu	r4,-1(r23)
    3800:	b8bfffc4 	addi	r2,r23,-1
    3804:	1007883a 	mov	r3,r2
    3808:	01800e44 	movi	r6,57
    380c:	d9c00717 	ldw	r7,28(sp)
    3810:	00000506 	br	3828 <_dtoa_r+0xc00>
    3814:	18ffffc4 	addi	r3,r3,-1
    3818:	11c12326 	beq	r2,r7,3ca8 <_dtoa_r+0x1080>
    381c:	19000003 	ldbu	r4,0(r3)
    3820:	102f883a 	mov	r23,r2
    3824:	10bfffc4 	addi	r2,r2,-1
    3828:	21403fcc 	andi	r5,r4,255
    382c:	2940201c 	xori	r5,r5,128
    3830:	297fe004 	addi	r5,r5,-128
    3834:	29bff726 	beq	r5,r6,3814 <__alt_mem_VGA_Subsystem_Char_Buf_Subsystem_Onchip_SRAM+0xf7003814>
    3838:	21000044 	addi	r4,r4,1
    383c:	11000005 	stb	r4,0(r2)
    3840:	a80b883a 	mov	r5,r21
    3844:	e009883a 	mov	r4,fp
    3848:	0004e6c0 	call	4e6c <_Bfree>
    384c:	883ea026 	beq	r17,zero,32d0 <__alt_mem_VGA_Subsystem_Char_Buf_Subsystem_Onchip_SRAM+0xf70032d0>
    3850:	90000426 	beq	r18,zero,3864 <_dtoa_r+0xc3c>
    3854:	94400326 	beq	r18,r17,3864 <_dtoa_r+0xc3c>
    3858:	900b883a 	mov	r5,r18
    385c:	e009883a 	mov	r4,fp
    3860:	0004e6c0 	call	4e6c <_Bfree>
    3864:	880b883a 	mov	r5,r17
    3868:	e009883a 	mov	r4,fp
    386c:	0004e6c0 	call	4e6c <_Bfree>
    3870:	003e9706 	br	32d0 <__alt_mem_VGA_Subsystem_Char_Buf_Subsystem_Onchip_SRAM+0xf70032d0>
    3874:	01800044 	movi	r6,1
    3878:	d9800e15 	stw	r6,56(sp)
    387c:	003d9606 	br	2ed8 <__alt_mem_VGA_Subsystem_Char_Buf_Subsystem_Onchip_SRAM+0xf7002ed8>
    3880:	d8800817 	ldw	r2,32(sp)
    3884:	d8c00517 	ldw	r3,20(sp)
    3888:	d8000d15 	stw	zero,52(sp)
    388c:	10c5c83a 	sub	r2,r2,r3
    3890:	00c9c83a 	sub	r4,zero,r3
    3894:	d8800815 	stw	r2,32(sp)
    3898:	d9000a15 	stw	r4,40(sp)
    389c:	003d9706 	br	2efc <__alt_mem_VGA_Subsystem_Char_Buf_Subsystem_Onchip_SRAM+0xf7002efc>
    38a0:	05adc83a 	sub	r22,zero,r22
    38a4:	dd800815 	stw	r22,32(sp)
    38a8:	002d883a 	mov	r22,zero
    38ac:	003d8e06 	br	2ee8 <__alt_mem_VGA_Subsystem_Char_Buf_Subsystem_Onchip_SRAM+0xf7002ee8>
    38b0:	d9000517 	ldw	r4,20(sp)
    38b4:	000b7500 	call	b750 <__floatsidf>
    38b8:	100d883a 	mov	r6,r2
    38bc:	180f883a 	mov	r7,r3
    38c0:	a009883a 	mov	r4,r20
    38c4:	880b883a 	mov	r5,r17
    38c8:	000a3100 	call	a310 <__eqdf2>
    38cc:	103d7126 	beq	r2,zero,2e94 <__alt_mem_VGA_Subsystem_Char_Buf_Subsystem_Onchip_SRAM+0xf7002e94>
    38d0:	d9c00517 	ldw	r7,20(sp)
    38d4:	39ffffc4 	addi	r7,r7,-1
    38d8:	d9c00515 	stw	r7,20(sp)
    38dc:	003d6d06 	br	2e94 <__alt_mem_VGA_Subsystem_Char_Buf_Subsystem_Onchip_SRAM+0xf7002e94>
    38e0:	dd400a17 	ldw	r21,40(sp)
    38e4:	dd000817 	ldw	r20,32(sp)
    38e8:	0023883a 	mov	r17,zero
    38ec:	003f4806 	br	3610 <__alt_mem_VGA_Subsystem_Char_Buf_Subsystem_Onchip_SRAM+0xf7003610>
    38f0:	10e3c83a 	sub	r17,r2,r3
    38f4:	9448983a 	sll	r4,r18,r17
    38f8:	003d3206 	br	2dc4 <__alt_mem_VGA_Subsystem_Char_Buf_Subsystem_Onchip_SRAM+0xf7002dc4>
    38fc:	d8000e15 	stw	zero,56(sp)
    3900:	003d7506 	br	2ed8 <__alt_mem_VGA_Subsystem_Char_Buf_Subsystem_Onchip_SRAM+0xf7002ed8>
    3904:	b005883a 	mov	r2,r22
    3908:	003f4506 	br	3620 <__alt_mem_VGA_Subsystem_Char_Buf_Subsystem_Onchip_SRAM+0xf7003620>
    390c:	dc000915 	stw	r16,36(sp)
    3910:	d9800a17 	ldw	r6,40(sp)
    3914:	d9400917 	ldw	r5,36(sp)
    3918:	e009883a 	mov	r4,fp
    391c:	00054c00 	call	54c0 <__pow5mult>
    3920:	1021883a 	mov	r16,r2
    3924:	003f5a06 	br	3690 <__alt_mem_VGA_Subsystem_Char_Buf_Subsystem_Onchip_SRAM+0xf7003690>
    3928:	01c00044 	movi	r7,1
    392c:	d9c00b15 	stw	r7,44(sp)
    3930:	d8802217 	ldw	r2,136(sp)
    3934:	0081280e 	bge	zero,r2,3dd8 <_dtoa_r+0x11b0>
    3938:	100d883a 	mov	r6,r2
    393c:	1021883a 	mov	r16,r2
    3940:	d8800c15 	stw	r2,48(sp)
    3944:	d8800615 	stw	r2,24(sp)
    3948:	003d8806 	br	2f6c <__alt_mem_VGA_Subsystem_Char_Buf_Subsystem_Onchip_SRAM+0xf7002f6c>
    394c:	d8800617 	ldw	r2,24(sp)
    3950:	00be9b16 	blt	zero,r2,33c0 <__alt_mem_VGA_Subsystem_Char_Buf_Subsystem_Onchip_SRAM+0xf70033c0>
    3954:	10010f1e 	bne	r2,zero,3d94 <_dtoa_r+0x116c>
    3958:	880b883a 	mov	r5,r17
    395c:	000d883a 	mov	r6,zero
    3960:	01d00534 	movhi	r7,16404
    3964:	8009883a 	mov	r4,r16
    3968:	000a5680 	call	a568 <__muldf3>
    396c:	900d883a 	mov	r6,r18
    3970:	980f883a 	mov	r7,r19
    3974:	1009883a 	mov	r4,r2
    3978:	180b883a 	mov	r5,r3
    397c:	000a3980 	call	a398 <__gedf2>
    3980:	002b883a 	mov	r21,zero
    3984:	0023883a 	mov	r17,zero
    3988:	1000bf16 	blt	r2,zero,3c88 <_dtoa_r+0x1060>
    398c:	d9802217 	ldw	r6,136(sp)
    3990:	ddc00717 	ldw	r23,28(sp)
    3994:	018c303a 	nor	r6,zero,r6
    3998:	d9800515 	stw	r6,20(sp)
    399c:	a80b883a 	mov	r5,r21
    39a0:	e009883a 	mov	r4,fp
    39a4:	0004e6c0 	call	4e6c <_Bfree>
    39a8:	883e4926 	beq	r17,zero,32d0 <__alt_mem_VGA_Subsystem_Char_Buf_Subsystem_Onchip_SRAM+0xf70032d0>
    39ac:	003fad06 	br	3864 <__alt_mem_VGA_Subsystem_Char_Buf_Subsystem_Onchip_SRAM+0xf7003864>
    39b0:	d9c01117 	ldw	r7,68(sp)
    39b4:	3801bc26 	beq	r7,zero,40a8 <_dtoa_r+0x1480>
    39b8:	10810cc4 	addi	r2,r2,1075
    39bc:	dd400a17 	ldw	r21,40(sp)
    39c0:	dd000817 	ldw	r20,32(sp)
    39c4:	003f0a06 	br	35f0 <__alt_mem_VGA_Subsystem_Char_Buf_Subsystem_Onchip_SRAM+0xf70035f0>
    39c8:	00800704 	movi	r2,28
    39cc:	d9000817 	ldw	r4,32(sp)
    39d0:	a0a9883a 	add	r20,r20,r2
    39d4:	b0ad883a 	add	r22,r22,r2
    39d8:	2089883a 	add	r4,r4,r2
    39dc:	d9000815 	stw	r4,32(sp)
    39e0:	003f5106 	br	3728 <__alt_mem_VGA_Subsystem_Char_Buf_Subsystem_Onchip_SRAM+0xf7003728>
    39e4:	d8c00317 	ldw	r3,12(sp)
    39e8:	b8c1fc0e 	bge	r23,r3,41dc <_dtoa_r+0x15b4>
    39ec:	0027883a 	mov	r19,zero
    39f0:	b805883a 	mov	r2,r23
    39f4:	003f3e06 	br	36f0 <__alt_mem_VGA_Subsystem_Char_Buf_Subsystem_Onchip_SRAM+0xf70036f0>
    39f8:	880b883a 	mov	r5,r17
    39fc:	e009883a 	mov	r4,fp
    3a00:	000f883a 	mov	r7,zero
    3a04:	01800284 	movi	r6,10
    3a08:	0004e940 	call	4e94 <__multadd>
    3a0c:	d9000c17 	ldw	r4,48(sp)
    3a10:	1023883a 	mov	r17,r2
    3a14:	0102040e 	bge	zero,r4,4228 <_dtoa_r+0x1600>
    3a18:	d9000615 	stw	r4,24(sp)
    3a1c:	0500050e 	bge	zero,r20,3a34 <_dtoa_r+0xe0c>
    3a20:	880b883a 	mov	r5,r17
    3a24:	a00d883a 	mov	r6,r20
    3a28:	e009883a 	mov	r4,fp
    3a2c:	00056000 	call	5600 <__lshift>
    3a30:	1023883a 	mov	r17,r2
    3a34:	9801241e 	bne	r19,zero,3ec8 <_dtoa_r+0x12a0>
    3a38:	8829883a 	mov	r20,r17
    3a3c:	d9000617 	ldw	r4,24(sp)
    3a40:	dcc00717 	ldw	r19,28(sp)
    3a44:	9480004c 	andi	r18,r18,1
    3a48:	20bfffc4 	addi	r2,r4,-1
    3a4c:	9885883a 	add	r2,r19,r2
    3a50:	d8800415 	stw	r2,16(sp)
    3a54:	dc800615 	stw	r18,24(sp)
    3a58:	a80b883a 	mov	r5,r21
    3a5c:	8009883a 	mov	r4,r16
    3a60:	0002a000 	call	2a00 <quorem>
    3a64:	880b883a 	mov	r5,r17
    3a68:	8009883a 	mov	r4,r16
    3a6c:	102f883a 	mov	r23,r2
    3a70:	00057480 	call	5748 <__mcmp>
    3a74:	a80b883a 	mov	r5,r21
    3a78:	a00d883a 	mov	r6,r20
    3a7c:	e009883a 	mov	r4,fp
    3a80:	102d883a 	mov	r22,r2
    3a84:	00057a80 	call	57a8 <__mdiff>
    3a88:	1007883a 	mov	r3,r2
    3a8c:	10800317 	ldw	r2,12(r2)
    3a90:	bc800c04 	addi	r18,r23,48
    3a94:	180b883a 	mov	r5,r3
    3a98:	10004e1e 	bne	r2,zero,3bd4 <_dtoa_r+0xfac>
    3a9c:	8009883a 	mov	r4,r16
    3aa0:	d8c01615 	stw	r3,88(sp)
    3aa4:	00057480 	call	5748 <__mcmp>
    3aa8:	d8c01617 	ldw	r3,88(sp)
    3aac:	e009883a 	mov	r4,fp
    3ab0:	d8801615 	stw	r2,88(sp)
    3ab4:	180b883a 	mov	r5,r3
    3ab8:	0004e6c0 	call	4e6c <_Bfree>
    3abc:	d8801617 	ldw	r2,88(sp)
    3ac0:	1000041e 	bne	r2,zero,3ad4 <_dtoa_r+0xeac>
    3ac4:	d9800317 	ldw	r6,12(sp)
    3ac8:	3000021e 	bne	r6,zero,3ad4 <_dtoa_r+0xeac>
    3acc:	d8c00617 	ldw	r3,24(sp)
    3ad0:	18003726 	beq	r3,zero,3bb0 <_dtoa_r+0xf88>
    3ad4:	b0002016 	blt	r22,zero,3b58 <_dtoa_r+0xf30>
    3ad8:	b000041e 	bne	r22,zero,3aec <_dtoa_r+0xec4>
    3adc:	d9000317 	ldw	r4,12(sp)
    3ae0:	2000021e 	bne	r4,zero,3aec <_dtoa_r+0xec4>
    3ae4:	d8c00617 	ldw	r3,24(sp)
    3ae8:	18001b26 	beq	r3,zero,3b58 <_dtoa_r+0xf30>
    3aec:	00810716 	blt	zero,r2,3f0c <_dtoa_r+0x12e4>
    3af0:	d8c00417 	ldw	r3,16(sp)
    3af4:	9d800044 	addi	r22,r19,1
    3af8:	9c800005 	stb	r18,0(r19)
    3afc:	b02f883a 	mov	r23,r22
    3b00:	98c10626 	beq	r19,r3,3f1c <_dtoa_r+0x12f4>
    3b04:	800b883a 	mov	r5,r16
    3b08:	000f883a 	mov	r7,zero
    3b0c:	01800284 	movi	r6,10
    3b10:	e009883a 	mov	r4,fp
    3b14:	0004e940 	call	4e94 <__multadd>
    3b18:	1021883a 	mov	r16,r2
    3b1c:	000f883a 	mov	r7,zero
    3b20:	01800284 	movi	r6,10
    3b24:	880b883a 	mov	r5,r17
    3b28:	e009883a 	mov	r4,fp
    3b2c:	8d002526 	beq	r17,r20,3bc4 <_dtoa_r+0xf9c>
    3b30:	0004e940 	call	4e94 <__multadd>
    3b34:	a00b883a 	mov	r5,r20
    3b38:	000f883a 	mov	r7,zero
    3b3c:	01800284 	movi	r6,10
    3b40:	e009883a 	mov	r4,fp
    3b44:	1023883a 	mov	r17,r2
    3b48:	0004e940 	call	4e94 <__multadd>
    3b4c:	1029883a 	mov	r20,r2
    3b50:	b027883a 	mov	r19,r22
    3b54:	003fc006 	br	3a58 <__alt_mem_VGA_Subsystem_Char_Buf_Subsystem_Onchip_SRAM+0xf7003a58>
    3b58:	9011883a 	mov	r8,r18
    3b5c:	00800e0e 	bge	zero,r2,3b98 <_dtoa_r+0xf70>
    3b60:	800b883a 	mov	r5,r16
    3b64:	01800044 	movi	r6,1
    3b68:	e009883a 	mov	r4,fp
    3b6c:	da001715 	stw	r8,92(sp)
    3b70:	00056000 	call	5600 <__lshift>
    3b74:	a80b883a 	mov	r5,r21
    3b78:	1009883a 	mov	r4,r2
    3b7c:	1021883a 	mov	r16,r2
    3b80:	00057480 	call	5748 <__mcmp>
    3b84:	da001717 	ldw	r8,92(sp)
    3b88:	0081960e 	bge	zero,r2,41e4 <_dtoa_r+0x15bc>
    3b8c:	00800e44 	movi	r2,57
    3b90:	40817026 	beq	r8,r2,4154 <_dtoa_r+0x152c>
    3b94:	ba000c44 	addi	r8,r23,49
    3b98:	8825883a 	mov	r18,r17
    3b9c:	9dc00044 	addi	r23,r19,1
    3ba0:	9a000005 	stb	r8,0(r19)
    3ba4:	a023883a 	mov	r17,r20
    3ba8:	dc000915 	stw	r16,36(sp)
    3bac:	003f2406 	br	3840 <__alt_mem_VGA_Subsystem_Char_Buf_Subsystem_Onchip_SRAM+0xf7003840>
    3bb0:	00800e44 	movi	r2,57
    3bb4:	9011883a 	mov	r8,r18
    3bb8:	90816626 	beq	r18,r2,4154 <_dtoa_r+0x152c>
    3bbc:	05bff516 	blt	zero,r22,3b94 <__alt_mem_VGA_Subsystem_Char_Buf_Subsystem_Onchip_SRAM+0xf7003b94>
    3bc0:	003ff506 	br	3b98 <__alt_mem_VGA_Subsystem_Char_Buf_Subsystem_Onchip_SRAM+0xf7003b98>
    3bc4:	0004e940 	call	4e94 <__multadd>
    3bc8:	1023883a 	mov	r17,r2
    3bcc:	1029883a 	mov	r20,r2
    3bd0:	003fdf06 	br	3b50 <__alt_mem_VGA_Subsystem_Char_Buf_Subsystem_Onchip_SRAM+0xf7003b50>
    3bd4:	e009883a 	mov	r4,fp
    3bd8:	0004e6c0 	call	4e6c <_Bfree>
    3bdc:	00800044 	movi	r2,1
    3be0:	003fbc06 	br	3ad4 <__alt_mem_VGA_Subsystem_Char_Buf_Subsystem_Onchip_SRAM+0xf7003ad4>
    3be4:	a80b883a 	mov	r5,r21
    3be8:	8009883a 	mov	r4,r16
    3bec:	00057480 	call	5748 <__mcmp>
    3bf0:	103edb0e 	bge	r2,zero,3760 <__alt_mem_VGA_Subsystem_Char_Buf_Subsystem_Onchip_SRAM+0xf7003760>
    3bf4:	800b883a 	mov	r5,r16
    3bf8:	000f883a 	mov	r7,zero
    3bfc:	01800284 	movi	r6,10
    3c00:	e009883a 	mov	r4,fp
    3c04:	0004e940 	call	4e94 <__multadd>
    3c08:	1021883a 	mov	r16,r2
    3c0c:	d8800517 	ldw	r2,20(sp)
    3c10:	d8c00b17 	ldw	r3,44(sp)
    3c14:	10bfffc4 	addi	r2,r2,-1
    3c18:	d8800515 	stw	r2,20(sp)
    3c1c:	183f761e 	bne	r3,zero,39f8 <__alt_mem_VGA_Subsystem_Char_Buf_Subsystem_Onchip_SRAM+0xf70039f8>
    3c20:	d9000c17 	ldw	r4,48(sp)
    3c24:	0101730e 	bge	zero,r4,41f4 <_dtoa_r+0x15cc>
    3c28:	d9000615 	stw	r4,24(sp)
    3c2c:	003ed006 	br	3770 <__alt_mem_VGA_Subsystem_Char_Buf_Subsystem_Onchip_SRAM+0xf7003770>
    3c30:	00800084 	movi	r2,2
    3c34:	3081861e 	bne	r6,r2,4250 <_dtoa_r+0x1628>
    3c38:	d8000b15 	stw	zero,44(sp)
    3c3c:	003f3c06 	br	3930 <__alt_mem_VGA_Subsystem_Char_Buf_Subsystem_Onchip_SRAM+0xf7003930>
    3c40:	dc000917 	ldw	r16,36(sp)
    3c44:	003e9206 	br	3690 <__alt_mem_VGA_Subsystem_Char_Buf_Subsystem_Onchip_SRAM+0xf7003690>
    3c48:	d9c00317 	ldw	r7,12(sp)
    3c4c:	00800084 	movi	r2,2
    3c50:	11fec50e 	bge	r2,r7,3768 <__alt_mem_VGA_Subsystem_Char_Buf_Subsystem_Onchip_SRAM+0xf7003768>
    3c54:	d9000617 	ldw	r4,24(sp)
    3c58:	20013c1e 	bne	r4,zero,414c <_dtoa_r+0x1524>
    3c5c:	a80b883a 	mov	r5,r21
    3c60:	000f883a 	mov	r7,zero
    3c64:	01800144 	movi	r6,5
    3c68:	e009883a 	mov	r4,fp
    3c6c:	0004e940 	call	4e94 <__multadd>
    3c70:	100b883a 	mov	r5,r2
    3c74:	8009883a 	mov	r4,r16
    3c78:	102b883a 	mov	r21,r2
    3c7c:	00057480 	call	5748 <__mcmp>
    3c80:	dc000915 	stw	r16,36(sp)
    3c84:	00bf410e 	bge	zero,r2,398c <__alt_mem_VGA_Subsystem_Char_Buf_Subsystem_Onchip_SRAM+0xf700398c>
    3c88:	d9c00717 	ldw	r7,28(sp)
    3c8c:	00800c44 	movi	r2,49
    3c90:	38800005 	stb	r2,0(r7)
    3c94:	d8800517 	ldw	r2,20(sp)
    3c98:	3dc00044 	addi	r23,r7,1
    3c9c:	10800044 	addi	r2,r2,1
    3ca0:	d8800515 	stw	r2,20(sp)
    3ca4:	003f3d06 	br	399c <__alt_mem_VGA_Subsystem_Char_Buf_Subsystem_Onchip_SRAM+0xf700399c>
    3ca8:	d9800517 	ldw	r6,20(sp)
    3cac:	d9c00717 	ldw	r7,28(sp)
    3cb0:	00800c44 	movi	r2,49
    3cb4:	31800044 	addi	r6,r6,1
    3cb8:	d9800515 	stw	r6,20(sp)
    3cbc:	38800005 	stb	r2,0(r7)
    3cc0:	003edf06 	br	3840 <__alt_mem_VGA_Subsystem_Char_Buf_Subsystem_Onchip_SRAM+0xf7003840>
    3cc4:	d8000b15 	stw	zero,44(sp)
    3cc8:	003c9f06 	br	2f48 <__alt_mem_VGA_Subsystem_Char_Buf_Subsystem_Onchip_SRAM+0xf7002f48>
    3ccc:	903e7e1e 	bne	r18,zero,36c8 <__alt_mem_VGA_Subsystem_Char_Buf_Subsystem_Onchip_SRAM+0xf70036c8>
    3cd0:	00800434 	movhi	r2,16
    3cd4:	10bfffc4 	addi	r2,r2,-1
    3cd8:	9884703a 	and	r2,r19,r2
    3cdc:	1000ea1e 	bne	r2,zero,4088 <_dtoa_r+0x1460>
    3ce0:	9cdffc2c 	andhi	r19,r19,32752
    3ce4:	9800e826 	beq	r19,zero,4088 <_dtoa_r+0x1460>
    3ce8:	d9c00817 	ldw	r7,32(sp)
    3cec:	b5800044 	addi	r22,r22,1
    3cf0:	04c00044 	movi	r19,1
    3cf4:	39c00044 	addi	r7,r7,1
    3cf8:	d9c00815 	stw	r7,32(sp)
    3cfc:	d8800d17 	ldw	r2,52(sp)
    3d00:	103e721e 	bne	r2,zero,36cc <__alt_mem_VGA_Subsystem_Char_Buf_Subsystem_Onchip_SRAM+0xf70036cc>
    3d04:	00800044 	movi	r2,1
    3d08:	003e7906 	br	36f0 <__alt_mem_VGA_Subsystem_Char_Buf_Subsystem_Onchip_SRAM+0xf70036f0>
    3d0c:	8009883a 	mov	r4,r16
    3d10:	000b7500 	call	b750 <__floatsidf>
    3d14:	d9800f17 	ldw	r6,60(sp)
    3d18:	d9c01017 	ldw	r7,64(sp)
    3d1c:	1009883a 	mov	r4,r2
    3d20:	180b883a 	mov	r5,r3
    3d24:	000a5680 	call	a568 <__muldf3>
    3d28:	000d883a 	mov	r6,zero
    3d2c:	01d00734 	movhi	r7,16412
    3d30:	1009883a 	mov	r4,r2
    3d34:	180b883a 	mov	r5,r3
    3d38:	00090940 	call	9094 <__adddf3>
    3d3c:	047f3034 	movhi	r17,64704
    3d40:	1021883a 	mov	r16,r2
    3d44:	1c63883a 	add	r17,r3,r17
    3d48:	d9000f17 	ldw	r4,60(sp)
    3d4c:	d9401017 	ldw	r5,64(sp)
    3d50:	000d883a 	mov	r6,zero
    3d54:	01d00534 	movhi	r7,16404
    3d58:	000add40 	call	add4 <__subdf3>
    3d5c:	800d883a 	mov	r6,r16
    3d60:	880f883a 	mov	r7,r17
    3d64:	1009883a 	mov	r4,r2
    3d68:	180b883a 	mov	r5,r3
    3d6c:	102b883a 	mov	r21,r2
    3d70:	1829883a 	mov	r20,r3
    3d74:	000a3980 	call	a398 <__gedf2>
    3d78:	00806c16 	blt	zero,r2,3f2c <_dtoa_r+0x1304>
    3d7c:	89e0003c 	xorhi	r7,r17,32768
    3d80:	800d883a 	mov	r6,r16
    3d84:	a809883a 	mov	r4,r21
    3d88:	a00b883a 	mov	r5,r20
    3d8c:	000a4740 	call	a474 <__ledf2>
    3d90:	103d7e0e 	bge	r2,zero,338c <__alt_mem_VGA_Subsystem_Char_Buf_Subsystem_Onchip_SRAM+0xf700338c>
    3d94:	002b883a 	mov	r21,zero
    3d98:	0023883a 	mov	r17,zero
    3d9c:	003efb06 	br	398c <__alt_mem_VGA_Subsystem_Char_Buf_Subsystem_Onchip_SRAM+0xf700398c>
    3da0:	d8800717 	ldw	r2,28(sp)
    3da4:	003bd006 	br	2ce8 <__alt_mem_VGA_Subsystem_Char_Buf_Subsystem_Onchip_SRAM+0xf7002ce8>
    3da8:	d9000a17 	ldw	r4,40(sp)
    3dac:	d9800d17 	ldw	r6,52(sp)
    3db0:	dd400a15 	stw	r21,40(sp)
    3db4:	a905c83a 	sub	r2,r21,r4
    3db8:	308d883a 	add	r6,r6,r2
    3dbc:	d9800d15 	stw	r6,52(sp)
    3dc0:	002b883a 	mov	r21,zero
    3dc4:	003e0606 	br	35e0 <__alt_mem_VGA_Subsystem_Char_Buf_Subsystem_Onchip_SRAM+0xf70035e0>
    3dc8:	9023883a 	mov	r17,r18
    3dcc:	9829883a 	mov	r20,r19
    3dd0:	04000084 	movi	r16,2
    3dd4:	003c9206 	br	3020 <__alt_mem_VGA_Subsystem_Char_Buf_Subsystem_Onchip_SRAM+0xf7003020>
    3dd8:	04000044 	movi	r16,1
    3ddc:	dc000c15 	stw	r16,48(sp)
    3de0:	dc000615 	stw	r16,24(sp)
    3de4:	dc002215 	stw	r16,136(sp)
    3de8:	e0001115 	stw	zero,68(fp)
    3dec:	000b883a 	mov	r5,zero
    3df0:	003c6906 	br	2f98 <__alt_mem_VGA_Subsystem_Char_Buf_Subsystem_Onchip_SRAM+0xf7002f98>
    3df4:	3021883a 	mov	r16,r6
    3df8:	003ffb06 	br	3de8 <__alt_mem_VGA_Subsystem_Char_Buf_Subsystem_Onchip_SRAM+0xf7003de8>
    3dfc:	1000021e 	bne	r2,zero,3e08 <_dtoa_r+0x11e0>
    3e00:	4200004c 	andi	r8,r8,1
    3e04:	403e7d1e 	bne	r8,zero,37fc <__alt_mem_VGA_Subsystem_Char_Buf_Subsystem_Onchip_SRAM+0xf70037fc>
    3e08:	01000c04 	movi	r4,48
    3e0c:	00000106 	br	3e14 <_dtoa_r+0x11ec>
    3e10:	102f883a 	mov	r23,r2
    3e14:	b8bfffc4 	addi	r2,r23,-1
    3e18:	10c00007 	ldb	r3,0(r2)
    3e1c:	193ffc26 	beq	r3,r4,3e10 <__alt_mem_VGA_Subsystem_Char_Buf_Subsystem_Onchip_SRAM+0xf7003e10>
    3e20:	003e8706 	br	3840 <__alt_mem_VGA_Subsystem_Char_Buf_Subsystem_Onchip_SRAM+0xf7003840>
    3e24:	d8800517 	ldw	r2,20(sp)
    3e28:	00a3c83a 	sub	r17,zero,r2
    3e2c:	8800a426 	beq	r17,zero,40c0 <_dtoa_r+0x1498>
    3e30:	888003cc 	andi	r2,r17,15
    3e34:	100490fa 	slli	r2,r2,3
    3e38:	00c00074 	movhi	r3,1
    3e3c:	18f90004 	addi	r3,r3,-7168
    3e40:	1885883a 	add	r2,r3,r2
    3e44:	11800017 	ldw	r6,0(r2)
    3e48:	11c00117 	ldw	r7,4(r2)
    3e4c:	9009883a 	mov	r4,r18
    3e50:	980b883a 	mov	r5,r19
    3e54:	8823d13a 	srai	r17,r17,4
    3e58:	000a5680 	call	a568 <__muldf3>
    3e5c:	d8800f15 	stw	r2,60(sp)
    3e60:	d8c01015 	stw	r3,64(sp)
    3e64:	8800e826 	beq	r17,zero,4208 <_dtoa_r+0x15e0>
    3e68:	05000074 	movhi	r20,1
    3e6c:	a538f604 	addi	r20,r20,-7208
    3e70:	04000084 	movi	r16,2
    3e74:	8980004c 	andi	r6,r17,1
    3e78:	1009883a 	mov	r4,r2
    3e7c:	8823d07a 	srai	r17,r17,1
    3e80:	180b883a 	mov	r5,r3
    3e84:	30000426 	beq	r6,zero,3e98 <_dtoa_r+0x1270>
    3e88:	a1800017 	ldw	r6,0(r20)
    3e8c:	a1c00117 	ldw	r7,4(r20)
    3e90:	84000044 	addi	r16,r16,1
    3e94:	000a5680 	call	a568 <__muldf3>
    3e98:	a5000204 	addi	r20,r20,8
    3e9c:	883ff51e 	bne	r17,zero,3e74 <__alt_mem_VGA_Subsystem_Char_Buf_Subsystem_Onchip_SRAM+0xf7003e74>
    3ea0:	d8800f15 	stw	r2,60(sp)
    3ea4:	d8c01015 	stw	r3,64(sp)
    3ea8:	003c7606 	br	3084 <__alt_mem_VGA_Subsystem_Char_Buf_Subsystem_Onchip_SRAM+0xf7003084>
    3eac:	00c00c04 	movi	r3,48
    3eb0:	10c00005 	stb	r3,0(r2)
    3eb4:	d8c00517 	ldw	r3,20(sp)
    3eb8:	bd3fffc3 	ldbu	r20,-1(r23)
    3ebc:	18c00044 	addi	r3,r3,1
    3ec0:	d8c00515 	stw	r3,20(sp)
    3ec4:	003db906 	br	35ac <__alt_mem_VGA_Subsystem_Char_Buf_Subsystem_Onchip_SRAM+0xf70035ac>
    3ec8:	89400117 	ldw	r5,4(r17)
    3ecc:	e009883a 	mov	r4,fp
    3ed0:	0004dc40 	call	4dc4 <_Balloc>
    3ed4:	89800417 	ldw	r6,16(r17)
    3ed8:	89400304 	addi	r5,r17,12
    3edc:	11000304 	addi	r4,r2,12
    3ee0:	31800084 	addi	r6,r6,2
    3ee4:	318d883a 	add	r6,r6,r6
    3ee8:	318d883a 	add	r6,r6,r6
    3eec:	1027883a 	mov	r19,r2
    3ef0:	0004c7c0 	call	4c7c <memcpy>
    3ef4:	01800044 	movi	r6,1
    3ef8:	980b883a 	mov	r5,r19
    3efc:	e009883a 	mov	r4,fp
    3f00:	00056000 	call	5600 <__lshift>
    3f04:	1029883a 	mov	r20,r2
    3f08:	003ecc06 	br	3a3c <__alt_mem_VGA_Subsystem_Char_Buf_Subsystem_Onchip_SRAM+0xf7003a3c>
    3f0c:	00800e44 	movi	r2,57
    3f10:	90809026 	beq	r18,r2,4154 <_dtoa_r+0x152c>
    3f14:	92000044 	addi	r8,r18,1
    3f18:	003f1f06 	br	3b98 <__alt_mem_VGA_Subsystem_Char_Buf_Subsystem_Onchip_SRAM+0xf7003b98>
    3f1c:	9011883a 	mov	r8,r18
    3f20:	8825883a 	mov	r18,r17
    3f24:	a023883a 	mov	r17,r20
    3f28:	003e2906 	br	37d0 <__alt_mem_VGA_Subsystem_Char_Buf_Subsystem_Onchip_SRAM+0xf70037d0>
    3f2c:	002b883a 	mov	r21,zero
    3f30:	0023883a 	mov	r17,zero
    3f34:	003f5406 	br	3c88 <__alt_mem_VGA_Subsystem_Char_Buf_Subsystem_Onchip_SRAM+0xf7003c88>
    3f38:	61bfffc4 	addi	r6,r12,-1
    3f3c:	300490fa 	slli	r2,r6,3
    3f40:	00c00074 	movhi	r3,1
    3f44:	18f90004 	addi	r3,r3,-7168
    3f48:	1885883a 	add	r2,r3,r2
    3f4c:	11000017 	ldw	r4,0(r2)
    3f50:	11400117 	ldw	r5,4(r2)
    3f54:	d8800717 	ldw	r2,28(sp)
    3f58:	880f883a 	mov	r7,r17
    3f5c:	d9801215 	stw	r6,72(sp)
    3f60:	800d883a 	mov	r6,r16
    3f64:	db001615 	stw	r12,88(sp)
    3f68:	15c00044 	addi	r23,r2,1
    3f6c:	000a5680 	call	a568 <__muldf3>
    3f70:	d9401017 	ldw	r5,64(sp)
    3f74:	d9000f17 	ldw	r4,60(sp)
    3f78:	d8c01515 	stw	r3,84(sp)
    3f7c:	d8801415 	stw	r2,80(sp)
    3f80:	000b6d00 	call	b6d0 <__fixdfsi>
    3f84:	1009883a 	mov	r4,r2
    3f88:	1021883a 	mov	r16,r2
    3f8c:	000b7500 	call	b750 <__floatsidf>
    3f90:	d9000f17 	ldw	r4,60(sp)
    3f94:	d9401017 	ldw	r5,64(sp)
    3f98:	100d883a 	mov	r6,r2
    3f9c:	180f883a 	mov	r7,r3
    3fa0:	000add40 	call	add4 <__subdf3>
    3fa4:	1829883a 	mov	r20,r3
    3fa8:	d8c00717 	ldw	r3,28(sp)
    3fac:	84000c04 	addi	r16,r16,48
    3fb0:	1023883a 	mov	r17,r2
    3fb4:	1c000005 	stb	r16,0(r3)
    3fb8:	db001617 	ldw	r12,88(sp)
    3fbc:	00800044 	movi	r2,1
    3fc0:	60802226 	beq	r12,r2,404c <_dtoa_r+0x1424>
    3fc4:	d9c00717 	ldw	r7,28(sp)
    3fc8:	8805883a 	mov	r2,r17
    3fcc:	b82b883a 	mov	r21,r23
    3fd0:	3b19883a 	add	r12,r7,r12
    3fd4:	6023883a 	mov	r17,r12
    3fd8:	a007883a 	mov	r3,r20
    3fdc:	dc800f15 	stw	r18,60(sp)
    3fe0:	000d883a 	mov	r6,zero
    3fe4:	01d00934 	movhi	r7,16420
    3fe8:	1009883a 	mov	r4,r2
    3fec:	180b883a 	mov	r5,r3
    3ff0:	000a5680 	call	a568 <__muldf3>
    3ff4:	180b883a 	mov	r5,r3
    3ff8:	1009883a 	mov	r4,r2
    3ffc:	1829883a 	mov	r20,r3
    4000:	1025883a 	mov	r18,r2
    4004:	000b6d00 	call	b6d0 <__fixdfsi>
    4008:	1009883a 	mov	r4,r2
    400c:	1021883a 	mov	r16,r2
    4010:	000b7500 	call	b750 <__floatsidf>
    4014:	100d883a 	mov	r6,r2
    4018:	180f883a 	mov	r7,r3
    401c:	9009883a 	mov	r4,r18
    4020:	a00b883a 	mov	r5,r20
    4024:	84000c04 	addi	r16,r16,48
    4028:	000add40 	call	add4 <__subdf3>
    402c:	ad400044 	addi	r21,r21,1
    4030:	ac3fffc5 	stb	r16,-1(r21)
    4034:	ac7fea1e 	bne	r21,r17,3fe0 <__alt_mem_VGA_Subsystem_Char_Buf_Subsystem_Onchip_SRAM+0xf7003fe0>
    4038:	1023883a 	mov	r17,r2
    403c:	d8801217 	ldw	r2,72(sp)
    4040:	dc800f17 	ldw	r18,60(sp)
    4044:	1829883a 	mov	r20,r3
    4048:	b8af883a 	add	r23,r23,r2
    404c:	d9001417 	ldw	r4,80(sp)
    4050:	d9401517 	ldw	r5,84(sp)
    4054:	000d883a 	mov	r6,zero
    4058:	01cff834 	movhi	r7,16352
    405c:	00090940 	call	9094 <__adddf3>
    4060:	880d883a 	mov	r6,r17
    4064:	a00f883a 	mov	r7,r20
    4068:	1009883a 	mov	r4,r2
    406c:	180b883a 	mov	r5,r3
    4070:	000a4740 	call	a474 <__ledf2>
    4074:	10003e0e 	bge	r2,zero,4170 <_dtoa_r+0x1548>
    4078:	d9001317 	ldw	r4,76(sp)
    407c:	bd3fffc3 	ldbu	r20,-1(r23)
    4080:	d9000515 	stw	r4,20(sp)
    4084:	003d3b06 	br	3574 <__alt_mem_VGA_Subsystem_Char_Buf_Subsystem_Onchip_SRAM+0xf7003574>
    4088:	0027883a 	mov	r19,zero
    408c:	003f1b06 	br	3cfc <__alt_mem_VGA_Subsystem_Char_Buf_Subsystem_Onchip_SRAM+0xf7003cfc>
    4090:	d8800817 	ldw	r2,32(sp)
    4094:	11e9c83a 	sub	r20,r2,r7
    4098:	0005883a 	mov	r2,zero
    409c:	003d5406 	br	35f0 <__alt_mem_VGA_Subsystem_Char_Buf_Subsystem_Onchip_SRAM+0xf70035f0>
    40a0:	00800044 	movi	r2,1
    40a4:	003dc706 	br	37c4 <__alt_mem_VGA_Subsystem_Char_Buf_Subsystem_Onchip_SRAM+0xf70037c4>
    40a8:	d8c00217 	ldw	r3,8(sp)
    40ac:	00800d84 	movi	r2,54
    40b0:	dd400a17 	ldw	r21,40(sp)
    40b4:	10c5c83a 	sub	r2,r2,r3
    40b8:	dd000817 	ldw	r20,32(sp)
    40bc:	003d4c06 	br	35f0 <__alt_mem_VGA_Subsystem_Char_Buf_Subsystem_Onchip_SRAM+0xf70035f0>
    40c0:	dc800f15 	stw	r18,60(sp)
    40c4:	dcc01015 	stw	r19,64(sp)
    40c8:	04000084 	movi	r16,2
    40cc:	003bed06 	br	3084 <__alt_mem_VGA_Subsystem_Char_Buf_Subsystem_Onchip_SRAM+0xf7003084>
    40d0:	d9000617 	ldw	r4,24(sp)
    40d4:	203f0d26 	beq	r4,zero,3d0c <__alt_mem_VGA_Subsystem_Char_Buf_Subsystem_Onchip_SRAM+0xf7003d0c>
    40d8:	d9800c17 	ldw	r6,48(sp)
    40dc:	01bcab0e 	bge	zero,r6,338c <__alt_mem_VGA_Subsystem_Char_Buf_Subsystem_Onchip_SRAM+0xf700338c>
    40e0:	d9401017 	ldw	r5,64(sp)
    40e4:	d9000f17 	ldw	r4,60(sp)
    40e8:	000d883a 	mov	r6,zero
    40ec:	01d00934 	movhi	r7,16420
    40f0:	000a5680 	call	a568 <__muldf3>
    40f4:	81000044 	addi	r4,r16,1
    40f8:	d8800f15 	stw	r2,60(sp)
    40fc:	d8c01015 	stw	r3,64(sp)
    4100:	000b7500 	call	b750 <__floatsidf>
    4104:	d9800f17 	ldw	r6,60(sp)
    4108:	d9c01017 	ldw	r7,64(sp)
    410c:	1009883a 	mov	r4,r2
    4110:	180b883a 	mov	r5,r3
    4114:	000a5680 	call	a568 <__muldf3>
    4118:	01d00734 	movhi	r7,16412
    411c:	000d883a 	mov	r6,zero
    4120:	1009883a 	mov	r4,r2
    4124:	180b883a 	mov	r5,r3
    4128:	00090940 	call	9094 <__adddf3>
    412c:	d9c00517 	ldw	r7,20(sp)
    4130:	047f3034 	movhi	r17,64704
    4134:	1021883a 	mov	r16,r2
    4138:	39ffffc4 	addi	r7,r7,-1
    413c:	d9c01315 	stw	r7,76(sp)
    4140:	1c63883a 	add	r17,r3,r17
    4144:	db000c17 	ldw	r12,48(sp)
    4148:	003bea06 	br	30f4 <__alt_mem_VGA_Subsystem_Char_Buf_Subsystem_Onchip_SRAM+0xf70030f4>
    414c:	dc000915 	stw	r16,36(sp)
    4150:	003e0e06 	br	398c <__alt_mem_VGA_Subsystem_Char_Buf_Subsystem_Onchip_SRAM+0xf700398c>
    4154:	01000e44 	movi	r4,57
    4158:	8825883a 	mov	r18,r17
    415c:	9dc00044 	addi	r23,r19,1
    4160:	99000005 	stb	r4,0(r19)
    4164:	a023883a 	mov	r17,r20
    4168:	dc000915 	stw	r16,36(sp)
    416c:	003da406 	br	3800 <__alt_mem_VGA_Subsystem_Char_Buf_Subsystem_Onchip_SRAM+0xf7003800>
    4170:	d9801417 	ldw	r6,80(sp)
    4174:	d9c01517 	ldw	r7,84(sp)
    4178:	0009883a 	mov	r4,zero
    417c:	014ff834 	movhi	r5,16352
    4180:	000add40 	call	add4 <__subdf3>
    4184:	880d883a 	mov	r6,r17
    4188:	a00f883a 	mov	r7,r20
    418c:	1009883a 	mov	r4,r2
    4190:	180b883a 	mov	r5,r3
    4194:	000a3980 	call	a398 <__gedf2>
    4198:	00bc7c0e 	bge	zero,r2,338c <__alt_mem_VGA_Subsystem_Char_Buf_Subsystem_Onchip_SRAM+0xf700338c>
    419c:	01000c04 	movi	r4,48
    41a0:	00000106 	br	41a8 <_dtoa_r+0x1580>
    41a4:	102f883a 	mov	r23,r2
    41a8:	b8bfffc4 	addi	r2,r23,-1
    41ac:	10c00007 	ldb	r3,0(r2)
    41b0:	193ffc26 	beq	r3,r4,41a4 <__alt_mem_VGA_Subsystem_Char_Buf_Subsystem_Onchip_SRAM+0xf70041a4>
    41b4:	d9801317 	ldw	r6,76(sp)
    41b8:	d9800515 	stw	r6,20(sp)
    41bc:	003c4406 	br	32d0 <__alt_mem_VGA_Subsystem_Char_Buf_Subsystem_Onchip_SRAM+0xf70032d0>
    41c0:	d9801317 	ldw	r6,76(sp)
    41c4:	d9800515 	stw	r6,20(sp)
    41c8:	003cea06 	br	3574 <__alt_mem_VGA_Subsystem_Char_Buf_Subsystem_Onchip_SRAM+0xf7003574>
    41cc:	dd800f17 	ldw	r22,60(sp)
    41d0:	dcc01017 	ldw	r19,64(sp)
    41d4:	dc801217 	ldw	r18,72(sp)
    41d8:	003c6c06 	br	338c <__alt_mem_VGA_Subsystem_Char_Buf_Subsystem_Onchip_SRAM+0xf700338c>
    41dc:	903e031e 	bne	r18,zero,39ec <__alt_mem_VGA_Subsystem_Char_Buf_Subsystem_Onchip_SRAM+0xf70039ec>
    41e0:	003ebb06 	br	3cd0 <__alt_mem_VGA_Subsystem_Char_Buf_Subsystem_Onchip_SRAM+0xf7003cd0>
    41e4:	103e6c1e 	bne	r2,zero,3b98 <__alt_mem_VGA_Subsystem_Char_Buf_Subsystem_Onchip_SRAM+0xf7003b98>
    41e8:	4080004c 	andi	r2,r8,1
    41ec:	103e6a26 	beq	r2,zero,3b98 <__alt_mem_VGA_Subsystem_Char_Buf_Subsystem_Onchip_SRAM+0xf7003b98>
    41f0:	003e6606 	br	3b8c <__alt_mem_VGA_Subsystem_Char_Buf_Subsystem_Onchip_SRAM+0xf7003b8c>
    41f4:	d8c00317 	ldw	r3,12(sp)
    41f8:	00800084 	movi	r2,2
    41fc:	10c02916 	blt	r2,r3,42a4 <_dtoa_r+0x167c>
    4200:	d9000c17 	ldw	r4,48(sp)
    4204:	003e8806 	br	3c28 <__alt_mem_VGA_Subsystem_Char_Buf_Subsystem_Onchip_SRAM+0xf7003c28>
    4208:	04000084 	movi	r16,2
    420c:	003b9d06 	br	3084 <__alt_mem_VGA_Subsystem_Char_Buf_Subsystem_Onchip_SRAM+0xf7003084>
    4210:	d9001317 	ldw	r4,76(sp)
    4214:	d9000515 	stw	r4,20(sp)
    4218:	003cd606 	br	3574 <__alt_mem_VGA_Subsystem_Char_Buf_Subsystem_Onchip_SRAM+0xf7003574>
    421c:	d8801317 	ldw	r2,76(sp)
    4220:	d8800515 	stw	r2,20(sp)
    4224:	003c2a06 	br	32d0 <__alt_mem_VGA_Subsystem_Char_Buf_Subsystem_Onchip_SRAM+0xf70032d0>
    4228:	d9800317 	ldw	r6,12(sp)
    422c:	00800084 	movi	r2,2
    4230:	11801516 	blt	r2,r6,4288 <_dtoa_r+0x1660>
    4234:	d9c00c17 	ldw	r7,48(sp)
    4238:	d9c00615 	stw	r7,24(sp)
    423c:	003df706 	br	3a1c <__alt_mem_VGA_Subsystem_Char_Buf_Subsystem_Onchip_SRAM+0xf7003a1c>
    4240:	193d3926 	beq	r3,r4,3728 <__alt_mem_VGA_Subsystem_Char_Buf_Subsystem_Onchip_SRAM+0xf7003728>
    4244:	00c00f04 	movi	r3,60
    4248:	1885c83a 	sub	r2,r3,r2
    424c:	003ddf06 	br	39cc <__alt_mem_VGA_Subsystem_Char_Buf_Subsystem_Onchip_SRAM+0xf70039cc>
    4250:	e009883a 	mov	r4,fp
    4254:	e0001115 	stw	zero,68(fp)
    4258:	000b883a 	mov	r5,zero
    425c:	0004dc40 	call	4dc4 <_Balloc>
    4260:	d8800715 	stw	r2,28(sp)
    4264:	d8c00717 	ldw	r3,28(sp)
    4268:	00bfffc4 	movi	r2,-1
    426c:	01000044 	movi	r4,1
    4270:	d8800c15 	stw	r2,48(sp)
    4274:	e0c01015 	stw	r3,64(fp)
    4278:	d9000b15 	stw	r4,44(sp)
    427c:	d8800615 	stw	r2,24(sp)
    4280:	d8002215 	stw	zero,136(sp)
    4284:	003c4106 	br	338c <__alt_mem_VGA_Subsystem_Char_Buf_Subsystem_Onchip_SRAM+0xf700338c>
    4288:	d8c00c17 	ldw	r3,48(sp)
    428c:	d8c00615 	stw	r3,24(sp)
    4290:	003e7006 	br	3c54 <__alt_mem_VGA_Subsystem_Char_Buf_Subsystem_Onchip_SRAM+0xf7003c54>
    4294:	04400044 	movi	r17,1
    4298:	003b2006 	br	2f1c <__alt_mem_VGA_Subsystem_Char_Buf_Subsystem_Onchip_SRAM+0xf7002f1c>
    429c:	000b883a 	mov	r5,zero
    42a0:	003b3d06 	br	2f98 <__alt_mem_VGA_Subsystem_Char_Buf_Subsystem_Onchip_SRAM+0xf7002f98>
    42a4:	d8800c17 	ldw	r2,48(sp)
    42a8:	d8800615 	stw	r2,24(sp)
    42ac:	003e6906 	br	3c54 <__alt_mem_VGA_Subsystem_Char_Buf_Subsystem_Onchip_SRAM+0xf7003c54>

000042b0 <_setlocale_r>:
    42b0:	30001b26 	beq	r6,zero,4320 <_setlocale_r+0x70>
    42b4:	01400074 	movhi	r5,1
    42b8:	defffe04 	addi	sp,sp,-8
    42bc:	2978e604 	addi	r5,r5,-7272
    42c0:	3009883a 	mov	r4,r6
    42c4:	dc000015 	stw	r16,0(sp)
    42c8:	dfc00115 	stw	ra,4(sp)
    42cc:	3021883a 	mov	r16,r6
    42d0:	0005f440 	call	5f44 <strcmp>
    42d4:	1000061e 	bne	r2,zero,42f0 <_setlocale_r+0x40>
    42d8:	00800074 	movhi	r2,1
    42dc:	10b8e504 	addi	r2,r2,-7276
    42e0:	dfc00117 	ldw	ra,4(sp)
    42e4:	dc000017 	ldw	r16,0(sp)
    42e8:	dec00204 	addi	sp,sp,8
    42ec:	f800283a 	ret
    42f0:	01400074 	movhi	r5,1
    42f4:	2978e504 	addi	r5,r5,-7276
    42f8:	8009883a 	mov	r4,r16
    42fc:	0005f440 	call	5f44 <strcmp>
    4300:	103ff526 	beq	r2,zero,42d8 <__alt_mem_VGA_Subsystem_Char_Buf_Subsystem_Onchip_SRAM+0xf70042d8>
    4304:	01400074 	movhi	r5,1
    4308:	2978d004 	addi	r5,r5,-7360
    430c:	8009883a 	mov	r4,r16
    4310:	0005f440 	call	5f44 <strcmp>
    4314:	103ff026 	beq	r2,zero,42d8 <__alt_mem_VGA_Subsystem_Char_Buf_Subsystem_Onchip_SRAM+0xf70042d8>
    4318:	0005883a 	mov	r2,zero
    431c:	003ff006 	br	42e0 <__alt_mem_VGA_Subsystem_Char_Buf_Subsystem_Onchip_SRAM+0xf70042e0>
    4320:	00800074 	movhi	r2,1
    4324:	10b8e504 	addi	r2,r2,-7276
    4328:	f800283a 	ret

0000432c <__locale_charset>:
    432c:	00800074 	movhi	r2,1
    4330:	10bab704 	addi	r2,r2,-5412
    4334:	f800283a 	ret

00004338 <__locale_mb_cur_max>:
    4338:	00800074 	movhi	r2,1
    433c:	10809504 	addi	r2,r2,596
    4340:	10800017 	ldw	r2,0(r2)
    4344:	f800283a 	ret

00004348 <__locale_msgcharset>:
    4348:	00800074 	movhi	r2,1
    434c:	10baaf04 	addi	r2,r2,-5444
    4350:	f800283a 	ret

00004354 <__locale_cjk_lang>:
    4354:	0005883a 	mov	r2,zero
    4358:	f800283a 	ret

0000435c <_localeconv_r>:
    435c:	00800074 	movhi	r2,1
    4360:	10babf04 	addi	r2,r2,-5380
    4364:	f800283a 	ret

00004368 <setlocale>:
    4368:	00800074 	movhi	r2,1
    436c:	10809404 	addi	r2,r2,592
    4370:	280d883a 	mov	r6,r5
    4374:	200b883a 	mov	r5,r4
    4378:	11000017 	ldw	r4,0(r2)
    437c:	00042b01 	jmpi	42b0 <_setlocale_r>

00004380 <localeconv>:
    4380:	00800074 	movhi	r2,1
    4384:	10babf04 	addi	r2,r2,-5380
    4388:	f800283a 	ret

0000438c <_malloc_r>:
    438c:	defff504 	addi	sp,sp,-44
    4390:	dc800315 	stw	r18,12(sp)
    4394:	dfc00a15 	stw	ra,40(sp)
    4398:	df000915 	stw	fp,36(sp)
    439c:	ddc00815 	stw	r23,32(sp)
    43a0:	dd800715 	stw	r22,28(sp)
    43a4:	dd400615 	stw	r21,24(sp)
    43a8:	dd000515 	stw	r20,20(sp)
    43ac:	dcc00415 	stw	r19,16(sp)
    43b0:	dc400215 	stw	r17,8(sp)
    43b4:	dc000115 	stw	r16,4(sp)
    43b8:	288002c4 	addi	r2,r5,11
    43bc:	00c00584 	movi	r3,22
    43c0:	2025883a 	mov	r18,r4
    43c4:	18807f2e 	bgeu	r3,r2,45c4 <_malloc_r+0x238>
    43c8:	047ffe04 	movi	r17,-8
    43cc:	1462703a 	and	r17,r2,r17
    43d0:	8800a316 	blt	r17,zero,4660 <_malloc_r+0x2d4>
    43d4:	8940a236 	bltu	r17,r5,4660 <_malloc_r+0x2d4>
    43d8:	000baa00 	call	baa0 <__malloc_lock>
    43dc:	00807dc4 	movi	r2,503
    43e0:	1441e92e 	bgeu	r2,r17,4b88 <_malloc_r+0x7fc>
    43e4:	8804d27a 	srli	r2,r17,9
    43e8:	1000a126 	beq	r2,zero,4670 <_malloc_r+0x2e4>
    43ec:	00c00104 	movi	r3,4
    43f0:	18811e36 	bltu	r3,r2,486c <_malloc_r+0x4e0>
    43f4:	8804d1ba 	srli	r2,r17,6
    43f8:	12000e44 	addi	r8,r2,57
    43fc:	11c00e04 	addi	r7,r2,56
    4400:	4209883a 	add	r4,r8,r8
    4404:	04c00074 	movhi	r19,1
    4408:	2109883a 	add	r4,r4,r4
    440c:	9cfacd04 	addi	r19,r19,-5324
    4410:	2109883a 	add	r4,r4,r4
    4414:	9909883a 	add	r4,r19,r4
    4418:	24000117 	ldw	r16,4(r4)
    441c:	213ffe04 	addi	r4,r4,-8
    4420:	24009726 	beq	r4,r16,4680 <_malloc_r+0x2f4>
    4424:	80800117 	ldw	r2,4(r16)
    4428:	01bfff04 	movi	r6,-4
    442c:	014003c4 	movi	r5,15
    4430:	1184703a 	and	r2,r2,r6
    4434:	1447c83a 	sub	r3,r2,r17
    4438:	28c00716 	blt	r5,r3,4458 <_malloc_r+0xcc>
    443c:	1800920e 	bge	r3,zero,4688 <_malloc_r+0x2fc>
    4440:	84000317 	ldw	r16,12(r16)
    4444:	24008e26 	beq	r4,r16,4680 <_malloc_r+0x2f4>
    4448:	80800117 	ldw	r2,4(r16)
    444c:	1184703a 	and	r2,r2,r6
    4450:	1447c83a 	sub	r3,r2,r17
    4454:	28fff90e 	bge	r5,r3,443c <__alt_mem_VGA_Subsystem_Char_Buf_Subsystem_Onchip_SRAM+0xf700443c>
    4458:	3809883a 	mov	r4,r7
    445c:	01800074 	movhi	r6,1
    4460:	9c000417 	ldw	r16,16(r19)
    4464:	31bacd04 	addi	r6,r6,-5324
    4468:	32000204 	addi	r8,r6,8
    446c:	82013426 	beq	r16,r8,4940 <_malloc_r+0x5b4>
    4470:	80c00117 	ldw	r3,4(r16)
    4474:	00bfff04 	movi	r2,-4
    4478:	188e703a 	and	r7,r3,r2
    447c:	3c45c83a 	sub	r2,r7,r17
    4480:	00c003c4 	movi	r3,15
    4484:	18811f16 	blt	r3,r2,4904 <_malloc_r+0x578>
    4488:	32000515 	stw	r8,20(r6)
    448c:	32000415 	stw	r8,16(r6)
    4490:	10007f0e 	bge	r2,zero,4690 <_malloc_r+0x304>
    4494:	00807fc4 	movi	r2,511
    4498:	11c0fd36 	bltu	r2,r7,4890 <_malloc_r+0x504>
    449c:	3806d0fa 	srli	r3,r7,3
    44a0:	01c00044 	movi	r7,1
    44a4:	30800117 	ldw	r2,4(r6)
    44a8:	19400044 	addi	r5,r3,1
    44ac:	294b883a 	add	r5,r5,r5
    44b0:	1807d0ba 	srai	r3,r3,2
    44b4:	294b883a 	add	r5,r5,r5
    44b8:	294b883a 	add	r5,r5,r5
    44bc:	298b883a 	add	r5,r5,r6
    44c0:	38c6983a 	sll	r3,r7,r3
    44c4:	29c00017 	ldw	r7,0(r5)
    44c8:	2a7ffe04 	addi	r9,r5,-8
    44cc:	1886b03a 	or	r3,r3,r2
    44d0:	82400315 	stw	r9,12(r16)
    44d4:	81c00215 	stw	r7,8(r16)
    44d8:	30c00115 	stw	r3,4(r6)
    44dc:	2c000015 	stw	r16,0(r5)
    44e0:	3c000315 	stw	r16,12(r7)
    44e4:	2005d0ba 	srai	r2,r4,2
    44e8:	01400044 	movi	r5,1
    44ec:	288a983a 	sll	r5,r5,r2
    44f0:	19406f36 	bltu	r3,r5,46b0 <_malloc_r+0x324>
    44f4:	28c4703a 	and	r2,r5,r3
    44f8:	10000a1e 	bne	r2,zero,4524 <_malloc_r+0x198>
    44fc:	00bfff04 	movi	r2,-4
    4500:	294b883a 	add	r5,r5,r5
    4504:	2088703a 	and	r4,r4,r2
    4508:	28c4703a 	and	r2,r5,r3
    450c:	21000104 	addi	r4,r4,4
    4510:	1000041e 	bne	r2,zero,4524 <_malloc_r+0x198>
    4514:	294b883a 	add	r5,r5,r5
    4518:	28c4703a 	and	r2,r5,r3
    451c:	21000104 	addi	r4,r4,4
    4520:	103ffc26 	beq	r2,zero,4514 <__alt_mem_VGA_Subsystem_Char_Buf_Subsystem_Onchip_SRAM+0xf7004514>
    4524:	02bfff04 	movi	r10,-4
    4528:	024003c4 	movi	r9,15
    452c:	21800044 	addi	r6,r4,1
    4530:	318d883a 	add	r6,r6,r6
    4534:	318d883a 	add	r6,r6,r6
    4538:	318d883a 	add	r6,r6,r6
    453c:	998d883a 	add	r6,r19,r6
    4540:	333ffe04 	addi	r12,r6,-8
    4544:	2017883a 	mov	r11,r4
    4548:	31800104 	addi	r6,r6,4
    454c:	34000017 	ldw	r16,0(r6)
    4550:	31fffd04 	addi	r7,r6,-12
    4554:	81c0041e 	bne	r16,r7,4568 <_malloc_r+0x1dc>
    4558:	0000fb06 	br	4948 <_malloc_r+0x5bc>
    455c:	1801030e 	bge	r3,zero,496c <_malloc_r+0x5e0>
    4560:	84000317 	ldw	r16,12(r16)
    4564:	81c0f826 	beq	r16,r7,4948 <_malloc_r+0x5bc>
    4568:	80800117 	ldw	r2,4(r16)
    456c:	1284703a 	and	r2,r2,r10
    4570:	1447c83a 	sub	r3,r2,r17
    4574:	48fff90e 	bge	r9,r3,455c <__alt_mem_VGA_Subsystem_Char_Buf_Subsystem_Onchip_SRAM+0xf700455c>
    4578:	80800317 	ldw	r2,12(r16)
    457c:	81000217 	ldw	r4,8(r16)
    4580:	89400054 	ori	r5,r17,1
    4584:	81400115 	stw	r5,4(r16)
    4588:	20800315 	stw	r2,12(r4)
    458c:	11000215 	stw	r4,8(r2)
    4590:	8463883a 	add	r17,r16,r17
    4594:	9c400515 	stw	r17,20(r19)
    4598:	9c400415 	stw	r17,16(r19)
    459c:	18800054 	ori	r2,r3,1
    45a0:	88800115 	stw	r2,4(r17)
    45a4:	8a000315 	stw	r8,12(r17)
    45a8:	8a000215 	stw	r8,8(r17)
    45ac:	88e3883a 	add	r17,r17,r3
    45b0:	88c00015 	stw	r3,0(r17)
    45b4:	9009883a 	mov	r4,r18
    45b8:	000bac40 	call	bac4 <__malloc_unlock>
    45bc:	80800204 	addi	r2,r16,8
    45c0:	00001b06 	br	4630 <_malloc_r+0x2a4>
    45c4:	04400404 	movi	r17,16
    45c8:	89402536 	bltu	r17,r5,4660 <_malloc_r+0x2d4>
    45cc:	000baa00 	call	baa0 <__malloc_lock>
    45d0:	00800184 	movi	r2,6
    45d4:	01000084 	movi	r4,2
    45d8:	04c00074 	movhi	r19,1
    45dc:	1085883a 	add	r2,r2,r2
    45e0:	9cfacd04 	addi	r19,r19,-5324
    45e4:	1085883a 	add	r2,r2,r2
    45e8:	9885883a 	add	r2,r19,r2
    45ec:	14000117 	ldw	r16,4(r2)
    45f0:	10fffe04 	addi	r3,r2,-8
    45f4:	80c0d926 	beq	r16,r3,495c <_malloc_r+0x5d0>
    45f8:	80c00117 	ldw	r3,4(r16)
    45fc:	81000317 	ldw	r4,12(r16)
    4600:	00bfff04 	movi	r2,-4
    4604:	1884703a 	and	r2,r3,r2
    4608:	81400217 	ldw	r5,8(r16)
    460c:	8085883a 	add	r2,r16,r2
    4610:	10c00117 	ldw	r3,4(r2)
    4614:	29000315 	stw	r4,12(r5)
    4618:	21400215 	stw	r5,8(r4)
    461c:	18c00054 	ori	r3,r3,1
    4620:	10c00115 	stw	r3,4(r2)
    4624:	9009883a 	mov	r4,r18
    4628:	000bac40 	call	bac4 <__malloc_unlock>
    462c:	80800204 	addi	r2,r16,8
    4630:	dfc00a17 	ldw	ra,40(sp)
    4634:	df000917 	ldw	fp,36(sp)
    4638:	ddc00817 	ldw	r23,32(sp)
    463c:	dd800717 	ldw	r22,28(sp)
    4640:	dd400617 	ldw	r21,24(sp)
    4644:	dd000517 	ldw	r20,20(sp)
    4648:	dcc00417 	ldw	r19,16(sp)
    464c:	dc800317 	ldw	r18,12(sp)
    4650:	dc400217 	ldw	r17,8(sp)
    4654:	dc000117 	ldw	r16,4(sp)
    4658:	dec00b04 	addi	sp,sp,44
    465c:	f800283a 	ret
    4660:	00800304 	movi	r2,12
    4664:	90800015 	stw	r2,0(r18)
    4668:	0005883a 	mov	r2,zero
    466c:	003ff006 	br	4630 <__alt_mem_VGA_Subsystem_Char_Buf_Subsystem_Onchip_SRAM+0xf7004630>
    4670:	01002004 	movi	r4,128
    4674:	02001004 	movi	r8,64
    4678:	01c00fc4 	movi	r7,63
    467c:	003f6106 	br	4404 <__alt_mem_VGA_Subsystem_Char_Buf_Subsystem_Onchip_SRAM+0xf7004404>
    4680:	4009883a 	mov	r4,r8
    4684:	003f7506 	br	445c <__alt_mem_VGA_Subsystem_Char_Buf_Subsystem_Onchip_SRAM+0xf700445c>
    4688:	81000317 	ldw	r4,12(r16)
    468c:	003fde06 	br	4608 <__alt_mem_VGA_Subsystem_Char_Buf_Subsystem_Onchip_SRAM+0xf7004608>
    4690:	81c5883a 	add	r2,r16,r7
    4694:	11400117 	ldw	r5,4(r2)
    4698:	9009883a 	mov	r4,r18
    469c:	29400054 	ori	r5,r5,1
    46a0:	11400115 	stw	r5,4(r2)
    46a4:	000bac40 	call	bac4 <__malloc_unlock>
    46a8:	80800204 	addi	r2,r16,8
    46ac:	003fe006 	br	4630 <__alt_mem_VGA_Subsystem_Char_Buf_Subsystem_Onchip_SRAM+0xf7004630>
    46b0:	9c000217 	ldw	r16,8(r19)
    46b4:	00bfff04 	movi	r2,-4
    46b8:	85800117 	ldw	r22,4(r16)
    46bc:	b0ac703a 	and	r22,r22,r2
    46c0:	b4400336 	bltu	r22,r17,46d0 <_malloc_r+0x344>
    46c4:	b445c83a 	sub	r2,r22,r17
    46c8:	00c003c4 	movi	r3,15
    46cc:	18805d16 	blt	r3,r2,4844 <_malloc_r+0x4b8>
    46d0:	05c00074 	movhi	r23,1
    46d4:	00800074 	movhi	r2,1
    46d8:	1087a504 	addi	r2,r2,7828
    46dc:	bdc09604 	addi	r23,r23,600
    46e0:	15400017 	ldw	r21,0(r2)
    46e4:	b8c00017 	ldw	r3,0(r23)
    46e8:	00bfffc4 	movi	r2,-1
    46ec:	858d883a 	add	r6,r16,r22
    46f0:	8d6b883a 	add	r21,r17,r21
    46f4:	1880ea26 	beq	r3,r2,4aa0 <_malloc_r+0x714>
    46f8:	ad4403c4 	addi	r21,r21,4111
    46fc:	00bc0004 	movi	r2,-4096
    4700:	a8aa703a 	and	r21,r21,r2
    4704:	a80b883a 	mov	r5,r21
    4708:	9009883a 	mov	r4,r18
    470c:	d9800015 	stw	r6,0(sp)
    4710:	0005ef00 	call	5ef0 <_sbrk_r>
    4714:	1029883a 	mov	r20,r2
    4718:	00bfffc4 	movi	r2,-1
    471c:	d9800017 	ldw	r6,0(sp)
    4720:	a080e826 	beq	r20,r2,4ac4 <_malloc_r+0x738>
    4724:	a180a636 	bltu	r20,r6,49c0 <_malloc_r+0x634>
    4728:	07000074 	movhi	fp,1
    472c:	e707ae04 	addi	fp,fp,7864
    4730:	e0800017 	ldw	r2,0(fp)
    4734:	a887883a 	add	r3,r21,r2
    4738:	e0c00015 	stw	r3,0(fp)
    473c:	3500e626 	beq	r6,r20,4ad8 <_malloc_r+0x74c>
    4740:	b9000017 	ldw	r4,0(r23)
    4744:	00bfffc4 	movi	r2,-1
    4748:	2080ee26 	beq	r4,r2,4b04 <_malloc_r+0x778>
    474c:	a185c83a 	sub	r2,r20,r6
    4750:	10c5883a 	add	r2,r2,r3
    4754:	e0800015 	stw	r2,0(fp)
    4758:	a0c001cc 	andi	r3,r20,7
    475c:	1800bc26 	beq	r3,zero,4a50 <_malloc_r+0x6c4>
    4760:	a0e9c83a 	sub	r20,r20,r3
    4764:	00840204 	movi	r2,4104
    4768:	a5000204 	addi	r20,r20,8
    476c:	10c7c83a 	sub	r3,r2,r3
    4770:	a545883a 	add	r2,r20,r21
    4774:	1083ffcc 	andi	r2,r2,4095
    4778:	18abc83a 	sub	r21,r3,r2
    477c:	a80b883a 	mov	r5,r21
    4780:	9009883a 	mov	r4,r18
    4784:	0005ef00 	call	5ef0 <_sbrk_r>
    4788:	00ffffc4 	movi	r3,-1
    478c:	10c0e126 	beq	r2,r3,4b14 <_malloc_r+0x788>
    4790:	1505c83a 	sub	r2,r2,r20
    4794:	1545883a 	add	r2,r2,r21
    4798:	10800054 	ori	r2,r2,1
    479c:	e0c00017 	ldw	r3,0(fp)
    47a0:	9d000215 	stw	r20,8(r19)
    47a4:	a0800115 	stw	r2,4(r20)
    47a8:	a8c7883a 	add	r3,r21,r3
    47ac:	e0c00015 	stw	r3,0(fp)
    47b0:	84c00e26 	beq	r16,r19,47ec <_malloc_r+0x460>
    47b4:	018003c4 	movi	r6,15
    47b8:	3580a72e 	bgeu	r6,r22,4a58 <_malloc_r+0x6cc>
    47bc:	81400117 	ldw	r5,4(r16)
    47c0:	013ffe04 	movi	r4,-8
    47c4:	b0bffd04 	addi	r2,r22,-12
    47c8:	1104703a 	and	r2,r2,r4
    47cc:	2900004c 	andi	r4,r5,1
    47d0:	2088b03a 	or	r4,r4,r2
    47d4:	81000115 	stw	r4,4(r16)
    47d8:	01400144 	movi	r5,5
    47dc:	8089883a 	add	r4,r16,r2
    47e0:	21400115 	stw	r5,4(r4)
    47e4:	21400215 	stw	r5,8(r4)
    47e8:	3080cd36 	bltu	r6,r2,4b20 <_malloc_r+0x794>
    47ec:	00800074 	movhi	r2,1
    47f0:	1087a404 	addi	r2,r2,7824
    47f4:	11000017 	ldw	r4,0(r2)
    47f8:	20c0012e 	bgeu	r4,r3,4800 <_malloc_r+0x474>
    47fc:	10c00015 	stw	r3,0(r2)
    4800:	00800074 	movhi	r2,1
    4804:	1087a304 	addi	r2,r2,7820
    4808:	11000017 	ldw	r4,0(r2)
    480c:	9c000217 	ldw	r16,8(r19)
    4810:	20c0012e 	bgeu	r4,r3,4818 <_malloc_r+0x48c>
    4814:	10c00015 	stw	r3,0(r2)
    4818:	80c00117 	ldw	r3,4(r16)
    481c:	00bfff04 	movi	r2,-4
    4820:	1886703a 	and	r3,r3,r2
    4824:	1c45c83a 	sub	r2,r3,r17
    4828:	1c400236 	bltu	r3,r17,4834 <_malloc_r+0x4a8>
    482c:	00c003c4 	movi	r3,15
    4830:	18800416 	blt	r3,r2,4844 <_malloc_r+0x4b8>
    4834:	9009883a 	mov	r4,r18
    4838:	000bac40 	call	bac4 <__malloc_unlock>
    483c:	0005883a 	mov	r2,zero
    4840:	003f7b06 	br	4630 <__alt_mem_VGA_Subsystem_Char_Buf_Subsystem_Onchip_SRAM+0xf7004630>
    4844:	88c00054 	ori	r3,r17,1
    4848:	80c00115 	stw	r3,4(r16)
    484c:	8463883a 	add	r17,r16,r17
    4850:	10800054 	ori	r2,r2,1
    4854:	9c400215 	stw	r17,8(r19)
    4858:	88800115 	stw	r2,4(r17)
    485c:	9009883a 	mov	r4,r18
    4860:	000bac40 	call	bac4 <__malloc_unlock>
    4864:	80800204 	addi	r2,r16,8
    4868:	003f7106 	br	4630 <__alt_mem_VGA_Subsystem_Char_Buf_Subsystem_Onchip_SRAM+0xf7004630>
    486c:	00c00504 	movi	r3,20
    4870:	18804a2e 	bgeu	r3,r2,499c <_malloc_r+0x610>
    4874:	00c01504 	movi	r3,84
    4878:	18806e36 	bltu	r3,r2,4a34 <_malloc_r+0x6a8>
    487c:	8804d33a 	srli	r2,r17,12
    4880:	12001bc4 	addi	r8,r2,111
    4884:	11c01b84 	addi	r7,r2,110
    4888:	4209883a 	add	r4,r8,r8
    488c:	003edd06 	br	4404 <__alt_mem_VGA_Subsystem_Char_Buf_Subsystem_Onchip_SRAM+0xf7004404>
    4890:	3804d27a 	srli	r2,r7,9
    4894:	00c00104 	movi	r3,4
    4898:	1880442e 	bgeu	r3,r2,49ac <_malloc_r+0x620>
    489c:	00c00504 	movi	r3,20
    48a0:	18808136 	bltu	r3,r2,4aa8 <_malloc_r+0x71c>
    48a4:	11401704 	addi	r5,r2,92
    48a8:	10c016c4 	addi	r3,r2,91
    48ac:	294b883a 	add	r5,r5,r5
    48b0:	294b883a 	add	r5,r5,r5
    48b4:	294b883a 	add	r5,r5,r5
    48b8:	994b883a 	add	r5,r19,r5
    48bc:	28800017 	ldw	r2,0(r5)
    48c0:	01800074 	movhi	r6,1
    48c4:	297ffe04 	addi	r5,r5,-8
    48c8:	31bacd04 	addi	r6,r6,-5324
    48cc:	28806526 	beq	r5,r2,4a64 <_malloc_r+0x6d8>
    48d0:	01bfff04 	movi	r6,-4
    48d4:	10c00117 	ldw	r3,4(r2)
    48d8:	1986703a 	and	r3,r3,r6
    48dc:	38c0022e 	bgeu	r7,r3,48e8 <_malloc_r+0x55c>
    48e0:	10800217 	ldw	r2,8(r2)
    48e4:	28bffb1e 	bne	r5,r2,48d4 <__alt_mem_VGA_Subsystem_Char_Buf_Subsystem_Onchip_SRAM+0xf70048d4>
    48e8:	11400317 	ldw	r5,12(r2)
    48ec:	98c00117 	ldw	r3,4(r19)
    48f0:	81400315 	stw	r5,12(r16)
    48f4:	80800215 	stw	r2,8(r16)
    48f8:	2c000215 	stw	r16,8(r5)
    48fc:	14000315 	stw	r16,12(r2)
    4900:	003ef806 	br	44e4 <__alt_mem_VGA_Subsystem_Char_Buf_Subsystem_Onchip_SRAM+0xf70044e4>
    4904:	88c00054 	ori	r3,r17,1
    4908:	80c00115 	stw	r3,4(r16)
    490c:	8463883a 	add	r17,r16,r17
    4910:	34400515 	stw	r17,20(r6)
    4914:	34400415 	stw	r17,16(r6)
    4918:	10c00054 	ori	r3,r2,1
    491c:	8a000315 	stw	r8,12(r17)
    4920:	8a000215 	stw	r8,8(r17)
    4924:	88c00115 	stw	r3,4(r17)
    4928:	88a3883a 	add	r17,r17,r2
    492c:	88800015 	stw	r2,0(r17)
    4930:	9009883a 	mov	r4,r18
    4934:	000bac40 	call	bac4 <__malloc_unlock>
    4938:	80800204 	addi	r2,r16,8
    493c:	003f3c06 	br	4630 <__alt_mem_VGA_Subsystem_Char_Buf_Subsystem_Onchip_SRAM+0xf7004630>
    4940:	30c00117 	ldw	r3,4(r6)
    4944:	003ee706 	br	44e4 <__alt_mem_VGA_Subsystem_Char_Buf_Subsystem_Onchip_SRAM+0xf70044e4>
    4948:	5ac00044 	addi	r11,r11,1
    494c:	588000cc 	andi	r2,r11,3
    4950:	31800204 	addi	r6,r6,8
    4954:	103efd1e 	bne	r2,zero,454c <__alt_mem_VGA_Subsystem_Char_Buf_Subsystem_Onchip_SRAM+0xf700454c>
    4958:	00002406 	br	49ec <_malloc_r+0x660>
    495c:	14000317 	ldw	r16,12(r2)
    4960:	143f251e 	bne	r2,r16,45f8 <__alt_mem_VGA_Subsystem_Char_Buf_Subsystem_Onchip_SRAM+0xf70045f8>
    4964:	21000084 	addi	r4,r4,2
    4968:	003ebc06 	br	445c <__alt_mem_VGA_Subsystem_Char_Buf_Subsystem_Onchip_SRAM+0xf700445c>
    496c:	8085883a 	add	r2,r16,r2
    4970:	10c00117 	ldw	r3,4(r2)
    4974:	81000317 	ldw	r4,12(r16)
    4978:	81400217 	ldw	r5,8(r16)
    497c:	18c00054 	ori	r3,r3,1
    4980:	10c00115 	stw	r3,4(r2)
    4984:	29000315 	stw	r4,12(r5)
    4988:	21400215 	stw	r5,8(r4)
    498c:	9009883a 	mov	r4,r18
    4990:	000bac40 	call	bac4 <__malloc_unlock>
    4994:	80800204 	addi	r2,r16,8
    4998:	003f2506 	br	4630 <__alt_mem_VGA_Subsystem_Char_Buf_Subsystem_Onchip_SRAM+0xf7004630>
    499c:	12001704 	addi	r8,r2,92
    49a0:	11c016c4 	addi	r7,r2,91
    49a4:	4209883a 	add	r4,r8,r8
    49a8:	003e9606 	br	4404 <__alt_mem_VGA_Subsystem_Char_Buf_Subsystem_Onchip_SRAM+0xf7004404>
    49ac:	3804d1ba 	srli	r2,r7,6
    49b0:	11400e44 	addi	r5,r2,57
    49b4:	10c00e04 	addi	r3,r2,56
    49b8:	294b883a 	add	r5,r5,r5
    49bc:	003fbc06 	br	48b0 <__alt_mem_VGA_Subsystem_Char_Buf_Subsystem_Onchip_SRAM+0xf70048b0>
    49c0:	84ff5926 	beq	r16,r19,4728 <__alt_mem_VGA_Subsystem_Char_Buf_Subsystem_Onchip_SRAM+0xf7004728>
    49c4:	00800074 	movhi	r2,1
    49c8:	10bacd04 	addi	r2,r2,-5324
    49cc:	14000217 	ldw	r16,8(r2)
    49d0:	00bfff04 	movi	r2,-4
    49d4:	80c00117 	ldw	r3,4(r16)
    49d8:	1886703a 	and	r3,r3,r2
    49dc:	003f9106 	br	4824 <__alt_mem_VGA_Subsystem_Char_Buf_Subsystem_Onchip_SRAM+0xf7004824>
    49e0:	60800217 	ldw	r2,8(r12)
    49e4:	213fffc4 	addi	r4,r4,-1
    49e8:	1300651e 	bne	r2,r12,4b80 <_malloc_r+0x7f4>
    49ec:	208000cc 	andi	r2,r4,3
    49f0:	633ffe04 	addi	r12,r12,-8
    49f4:	103ffa1e 	bne	r2,zero,49e0 <__alt_mem_VGA_Subsystem_Char_Buf_Subsystem_Onchip_SRAM+0xf70049e0>
    49f8:	98800117 	ldw	r2,4(r19)
    49fc:	0146303a 	nor	r3,zero,r5
    4a00:	1884703a 	and	r2,r3,r2
    4a04:	98800115 	stw	r2,4(r19)
    4a08:	294b883a 	add	r5,r5,r5
    4a0c:	117f2836 	bltu	r2,r5,46b0 <__alt_mem_VGA_Subsystem_Char_Buf_Subsystem_Onchip_SRAM+0xf70046b0>
    4a10:	283f2726 	beq	r5,zero,46b0 <__alt_mem_VGA_Subsystem_Char_Buf_Subsystem_Onchip_SRAM+0xf70046b0>
    4a14:	2886703a 	and	r3,r5,r2
    4a18:	5809883a 	mov	r4,r11
    4a1c:	183ec31e 	bne	r3,zero,452c <__alt_mem_VGA_Subsystem_Char_Buf_Subsystem_Onchip_SRAM+0xf700452c>
    4a20:	294b883a 	add	r5,r5,r5
    4a24:	2886703a 	and	r3,r5,r2
    4a28:	21000104 	addi	r4,r4,4
    4a2c:	183ffc26 	beq	r3,zero,4a20 <__alt_mem_VGA_Subsystem_Char_Buf_Subsystem_Onchip_SRAM+0xf7004a20>
    4a30:	003ebe06 	br	452c <__alt_mem_VGA_Subsystem_Char_Buf_Subsystem_Onchip_SRAM+0xf700452c>
    4a34:	00c05504 	movi	r3,340
    4a38:	18801236 	bltu	r3,r2,4a84 <_malloc_r+0x6f8>
    4a3c:	8804d3fa 	srli	r2,r17,15
    4a40:	12001e04 	addi	r8,r2,120
    4a44:	11c01dc4 	addi	r7,r2,119
    4a48:	4209883a 	add	r4,r8,r8
    4a4c:	003e6d06 	br	4404 <__alt_mem_VGA_Subsystem_Char_Buf_Subsystem_Onchip_SRAM+0xf7004404>
    4a50:	00c40004 	movi	r3,4096
    4a54:	003f4606 	br	4770 <__alt_mem_VGA_Subsystem_Char_Buf_Subsystem_Onchip_SRAM+0xf7004770>
    4a58:	00800044 	movi	r2,1
    4a5c:	a0800115 	stw	r2,4(r20)
    4a60:	003f7406 	br	4834 <__alt_mem_VGA_Subsystem_Char_Buf_Subsystem_Onchip_SRAM+0xf7004834>
    4a64:	1805d0ba 	srai	r2,r3,2
    4a68:	01c00044 	movi	r7,1
    4a6c:	30c00117 	ldw	r3,4(r6)
    4a70:	388e983a 	sll	r7,r7,r2
    4a74:	2805883a 	mov	r2,r5
    4a78:	38c6b03a 	or	r3,r7,r3
    4a7c:	30c00115 	stw	r3,4(r6)
    4a80:	003f9b06 	br	48f0 <__alt_mem_VGA_Subsystem_Char_Buf_Subsystem_Onchip_SRAM+0xf70048f0>
    4a84:	00c15504 	movi	r3,1364
    4a88:	18801a36 	bltu	r3,r2,4af4 <_malloc_r+0x768>
    4a8c:	8804d4ba 	srli	r2,r17,18
    4a90:	12001f44 	addi	r8,r2,125
    4a94:	11c01f04 	addi	r7,r2,124
    4a98:	4209883a 	add	r4,r8,r8
    4a9c:	003e5906 	br	4404 <__alt_mem_VGA_Subsystem_Char_Buf_Subsystem_Onchip_SRAM+0xf7004404>
    4aa0:	ad400404 	addi	r21,r21,16
    4aa4:	003f1706 	br	4704 <__alt_mem_VGA_Subsystem_Char_Buf_Subsystem_Onchip_SRAM+0xf7004704>
    4aa8:	00c01504 	movi	r3,84
    4aac:	18802336 	bltu	r3,r2,4b3c <_malloc_r+0x7b0>
    4ab0:	3804d33a 	srli	r2,r7,12
    4ab4:	11401bc4 	addi	r5,r2,111
    4ab8:	10c01b84 	addi	r3,r2,110
    4abc:	294b883a 	add	r5,r5,r5
    4ac0:	003f7b06 	br	48b0 <__alt_mem_VGA_Subsystem_Char_Buf_Subsystem_Onchip_SRAM+0xf70048b0>
    4ac4:	9c000217 	ldw	r16,8(r19)
    4ac8:	00bfff04 	movi	r2,-4
    4acc:	80c00117 	ldw	r3,4(r16)
    4ad0:	1886703a 	and	r3,r3,r2
    4ad4:	003f5306 	br	4824 <__alt_mem_VGA_Subsystem_Char_Buf_Subsystem_Onchip_SRAM+0xf7004824>
    4ad8:	3083ffcc 	andi	r2,r6,4095
    4adc:	103f181e 	bne	r2,zero,4740 <__alt_mem_VGA_Subsystem_Char_Buf_Subsystem_Onchip_SRAM+0xf7004740>
    4ae0:	99000217 	ldw	r4,8(r19)
    4ae4:	b545883a 	add	r2,r22,r21
    4ae8:	10800054 	ori	r2,r2,1
    4aec:	20800115 	stw	r2,4(r4)
    4af0:	003f3e06 	br	47ec <__alt_mem_VGA_Subsystem_Char_Buf_Subsystem_Onchip_SRAM+0xf70047ec>
    4af4:	01003f84 	movi	r4,254
    4af8:	02001fc4 	movi	r8,127
    4afc:	01c01f84 	movi	r7,126
    4b00:	003e4006 	br	4404 <__alt_mem_VGA_Subsystem_Char_Buf_Subsystem_Onchip_SRAM+0xf7004404>
    4b04:	00800074 	movhi	r2,1
    4b08:	10809604 	addi	r2,r2,600
    4b0c:	15000015 	stw	r20,0(r2)
    4b10:	003f1106 	br	4758 <__alt_mem_VGA_Subsystem_Char_Buf_Subsystem_Onchip_SRAM+0xf7004758>
    4b14:	00800044 	movi	r2,1
    4b18:	002b883a 	mov	r21,zero
    4b1c:	003f1f06 	br	479c <__alt_mem_VGA_Subsystem_Char_Buf_Subsystem_Onchip_SRAM+0xf700479c>
    4b20:	81400204 	addi	r5,r16,8
    4b24:	9009883a 	mov	r4,r18
    4b28:	00078280 	call	7828 <_free_r>
    4b2c:	00800074 	movhi	r2,1
    4b30:	1087ae04 	addi	r2,r2,7864
    4b34:	10c00017 	ldw	r3,0(r2)
    4b38:	003f2c06 	br	47ec <__alt_mem_VGA_Subsystem_Char_Buf_Subsystem_Onchip_SRAM+0xf70047ec>
    4b3c:	00c05504 	movi	r3,340
    4b40:	18800536 	bltu	r3,r2,4b58 <_malloc_r+0x7cc>
    4b44:	3804d3fa 	srli	r2,r7,15
    4b48:	11401e04 	addi	r5,r2,120
    4b4c:	10c01dc4 	addi	r3,r2,119
    4b50:	294b883a 	add	r5,r5,r5
    4b54:	003f5606 	br	48b0 <__alt_mem_VGA_Subsystem_Char_Buf_Subsystem_Onchip_SRAM+0xf70048b0>
    4b58:	00c15504 	movi	r3,1364
    4b5c:	18800536 	bltu	r3,r2,4b74 <_malloc_r+0x7e8>
    4b60:	3804d4ba 	srli	r2,r7,18
    4b64:	11401f44 	addi	r5,r2,125
    4b68:	10c01f04 	addi	r3,r2,124
    4b6c:	294b883a 	add	r5,r5,r5
    4b70:	003f4f06 	br	48b0 <__alt_mem_VGA_Subsystem_Char_Buf_Subsystem_Onchip_SRAM+0xf70048b0>
    4b74:	01403f84 	movi	r5,254
    4b78:	00c01f84 	movi	r3,126
    4b7c:	003f4c06 	br	48b0 <__alt_mem_VGA_Subsystem_Char_Buf_Subsystem_Onchip_SRAM+0xf70048b0>
    4b80:	98800117 	ldw	r2,4(r19)
    4b84:	003fa006 	br	4a08 <__alt_mem_VGA_Subsystem_Char_Buf_Subsystem_Onchip_SRAM+0xf7004a08>
    4b88:	8808d0fa 	srli	r4,r17,3
    4b8c:	20800044 	addi	r2,r4,1
    4b90:	1085883a 	add	r2,r2,r2
    4b94:	003e9006 	br	45d8 <__alt_mem_VGA_Subsystem_Char_Buf_Subsystem_Onchip_SRAM+0xf70045d8>

00004b98 <memchr>:
    4b98:	208000cc 	andi	r2,r4,3
    4b9c:	280f883a 	mov	r7,r5
    4ba0:	10003426 	beq	r2,zero,4c74 <memchr+0xdc>
    4ba4:	30bfffc4 	addi	r2,r6,-1
    4ba8:	30001a26 	beq	r6,zero,4c14 <memchr+0x7c>
    4bac:	20c00003 	ldbu	r3,0(r4)
    4bb0:	29803fcc 	andi	r6,r5,255
    4bb4:	30c0051e 	bne	r6,r3,4bcc <memchr+0x34>
    4bb8:	00001806 	br	4c1c <memchr+0x84>
    4bbc:	10001526 	beq	r2,zero,4c14 <memchr+0x7c>
    4bc0:	20c00003 	ldbu	r3,0(r4)
    4bc4:	10bfffc4 	addi	r2,r2,-1
    4bc8:	30c01426 	beq	r6,r3,4c1c <memchr+0x84>
    4bcc:	21000044 	addi	r4,r4,1
    4bd0:	20c000cc 	andi	r3,r4,3
    4bd4:	183ff91e 	bne	r3,zero,4bbc <__alt_mem_VGA_Subsystem_Char_Buf_Subsystem_Onchip_SRAM+0xf7004bbc>
    4bd8:	020000c4 	movi	r8,3
    4bdc:	40801136 	bltu	r8,r2,4c24 <memchr+0x8c>
    4be0:	10000c26 	beq	r2,zero,4c14 <memchr+0x7c>
    4be4:	20c00003 	ldbu	r3,0(r4)
    4be8:	29403fcc 	andi	r5,r5,255
    4bec:	28c00b26 	beq	r5,r3,4c1c <memchr+0x84>
    4bf0:	20c00044 	addi	r3,r4,1
    4bf4:	39803fcc 	andi	r6,r7,255
    4bf8:	2089883a 	add	r4,r4,r2
    4bfc:	00000306 	br	4c0c <memchr+0x74>
    4c00:	18c00044 	addi	r3,r3,1
    4c04:	197fffc3 	ldbu	r5,-1(r3)
    4c08:	31400526 	beq	r6,r5,4c20 <memchr+0x88>
    4c0c:	1805883a 	mov	r2,r3
    4c10:	20fffb1e 	bne	r4,r3,4c00 <__alt_mem_VGA_Subsystem_Char_Buf_Subsystem_Onchip_SRAM+0xf7004c00>
    4c14:	0005883a 	mov	r2,zero
    4c18:	f800283a 	ret
    4c1c:	2005883a 	mov	r2,r4
    4c20:	f800283a 	ret
    4c24:	28c03fcc 	andi	r3,r5,255
    4c28:	1812923a 	slli	r9,r3,8
    4c2c:	02ffbff4 	movhi	r11,65279
    4c30:	02a02074 	movhi	r10,32897
    4c34:	48d2b03a 	or	r9,r9,r3
    4c38:	4806943a 	slli	r3,r9,16
    4c3c:	5affbfc4 	addi	r11,r11,-257
    4c40:	52a02004 	addi	r10,r10,-32640
    4c44:	48d2b03a 	or	r9,r9,r3
    4c48:	20c00017 	ldw	r3,0(r4)
    4c4c:	48c6f03a 	xor	r3,r9,r3
    4c50:	1acd883a 	add	r6,r3,r11
    4c54:	00c6303a 	nor	r3,zero,r3
    4c58:	30c6703a 	and	r3,r6,r3
    4c5c:	1a86703a 	and	r3,r3,r10
    4c60:	183fe01e 	bne	r3,zero,4be4 <__alt_mem_VGA_Subsystem_Char_Buf_Subsystem_Onchip_SRAM+0xf7004be4>
    4c64:	10bfff04 	addi	r2,r2,-4
    4c68:	21000104 	addi	r4,r4,4
    4c6c:	40bff636 	bltu	r8,r2,4c48 <__alt_mem_VGA_Subsystem_Char_Buf_Subsystem_Onchip_SRAM+0xf7004c48>
    4c70:	003fdb06 	br	4be0 <__alt_mem_VGA_Subsystem_Char_Buf_Subsystem_Onchip_SRAM+0xf7004be0>
    4c74:	3005883a 	mov	r2,r6
    4c78:	003fd706 	br	4bd8 <__alt_mem_VGA_Subsystem_Char_Buf_Subsystem_Onchip_SRAM+0xf7004bd8>

00004c7c <memcpy>:
    4c7c:	defffd04 	addi	sp,sp,-12
    4c80:	dfc00215 	stw	ra,8(sp)
    4c84:	dc400115 	stw	r17,4(sp)
    4c88:	dc000015 	stw	r16,0(sp)
    4c8c:	00c003c4 	movi	r3,15
    4c90:	2005883a 	mov	r2,r4
    4c94:	1980452e 	bgeu	r3,r6,4dac <memcpy+0x130>
    4c98:	2906b03a 	or	r3,r5,r4
    4c9c:	18c000cc 	andi	r3,r3,3
    4ca0:	1800441e 	bne	r3,zero,4db4 <memcpy+0x138>
    4ca4:	347ffc04 	addi	r17,r6,-16
    4ca8:	8822d13a 	srli	r17,r17,4
    4cac:	28c00104 	addi	r3,r5,4
    4cb0:	23400104 	addi	r13,r4,4
    4cb4:	8820913a 	slli	r16,r17,4
    4cb8:	2b000204 	addi	r12,r5,8
    4cbc:	22c00204 	addi	r11,r4,8
    4cc0:	84000504 	addi	r16,r16,20
    4cc4:	2a800304 	addi	r10,r5,12
    4cc8:	22400304 	addi	r9,r4,12
    4ccc:	2c21883a 	add	r16,r5,r16
    4cd0:	2811883a 	mov	r8,r5
    4cd4:	200f883a 	mov	r7,r4
    4cd8:	41000017 	ldw	r4,0(r8)
    4cdc:	1fc00017 	ldw	ra,0(r3)
    4ce0:	63c00017 	ldw	r15,0(r12)
    4ce4:	39000015 	stw	r4,0(r7)
    4ce8:	53800017 	ldw	r14,0(r10)
    4cec:	6fc00015 	stw	ra,0(r13)
    4cf0:	5bc00015 	stw	r15,0(r11)
    4cf4:	4b800015 	stw	r14,0(r9)
    4cf8:	18c00404 	addi	r3,r3,16
    4cfc:	39c00404 	addi	r7,r7,16
    4d00:	42000404 	addi	r8,r8,16
    4d04:	6b400404 	addi	r13,r13,16
    4d08:	63000404 	addi	r12,r12,16
    4d0c:	5ac00404 	addi	r11,r11,16
    4d10:	52800404 	addi	r10,r10,16
    4d14:	4a400404 	addi	r9,r9,16
    4d18:	1c3fef1e 	bne	r3,r16,4cd8 <__alt_mem_VGA_Subsystem_Char_Buf_Subsystem_Onchip_SRAM+0xf7004cd8>
    4d1c:	89c00044 	addi	r7,r17,1
    4d20:	380e913a 	slli	r7,r7,4
    4d24:	310003cc 	andi	r4,r6,15
    4d28:	02c000c4 	movi	r11,3
    4d2c:	11c7883a 	add	r3,r2,r7
    4d30:	29cb883a 	add	r5,r5,r7
    4d34:	5900212e 	bgeu	r11,r4,4dbc <memcpy+0x140>
    4d38:	1813883a 	mov	r9,r3
    4d3c:	2811883a 	mov	r8,r5
    4d40:	200f883a 	mov	r7,r4
    4d44:	42800017 	ldw	r10,0(r8)
    4d48:	4a400104 	addi	r9,r9,4
    4d4c:	39ffff04 	addi	r7,r7,-4
    4d50:	4abfff15 	stw	r10,-4(r9)
    4d54:	42000104 	addi	r8,r8,4
    4d58:	59fffa36 	bltu	r11,r7,4d44 <__alt_mem_VGA_Subsystem_Char_Buf_Subsystem_Onchip_SRAM+0xf7004d44>
    4d5c:	213fff04 	addi	r4,r4,-4
    4d60:	2008d0ba 	srli	r4,r4,2
    4d64:	318000cc 	andi	r6,r6,3
    4d68:	21000044 	addi	r4,r4,1
    4d6c:	2109883a 	add	r4,r4,r4
    4d70:	2109883a 	add	r4,r4,r4
    4d74:	1907883a 	add	r3,r3,r4
    4d78:	290b883a 	add	r5,r5,r4
    4d7c:	30000626 	beq	r6,zero,4d98 <memcpy+0x11c>
    4d80:	198d883a 	add	r6,r3,r6
    4d84:	29c00003 	ldbu	r7,0(r5)
    4d88:	18c00044 	addi	r3,r3,1
    4d8c:	29400044 	addi	r5,r5,1
    4d90:	19ffffc5 	stb	r7,-1(r3)
    4d94:	19bffb1e 	bne	r3,r6,4d84 <__alt_mem_VGA_Subsystem_Char_Buf_Subsystem_Onchip_SRAM+0xf7004d84>
    4d98:	dfc00217 	ldw	ra,8(sp)
    4d9c:	dc400117 	ldw	r17,4(sp)
    4da0:	dc000017 	ldw	r16,0(sp)
    4da4:	dec00304 	addi	sp,sp,12
    4da8:	f800283a 	ret
    4dac:	2007883a 	mov	r3,r4
    4db0:	003ff206 	br	4d7c <__alt_mem_VGA_Subsystem_Char_Buf_Subsystem_Onchip_SRAM+0xf7004d7c>
    4db4:	2007883a 	mov	r3,r4
    4db8:	003ff106 	br	4d80 <__alt_mem_VGA_Subsystem_Char_Buf_Subsystem_Onchip_SRAM+0xf7004d80>
    4dbc:	200d883a 	mov	r6,r4
    4dc0:	003fee06 	br	4d7c <__alt_mem_VGA_Subsystem_Char_Buf_Subsystem_Onchip_SRAM+0xf7004d7c>

00004dc4 <_Balloc>:
    4dc4:	20801317 	ldw	r2,76(r4)
    4dc8:	defffc04 	addi	sp,sp,-16
    4dcc:	dc400115 	stw	r17,4(sp)
    4dd0:	dc000015 	stw	r16,0(sp)
    4dd4:	dfc00315 	stw	ra,12(sp)
    4dd8:	dc800215 	stw	r18,8(sp)
    4ddc:	2023883a 	mov	r17,r4
    4de0:	2821883a 	mov	r16,r5
    4de4:	10000f26 	beq	r2,zero,4e24 <_Balloc+0x60>
    4de8:	8407883a 	add	r3,r16,r16
    4dec:	18c7883a 	add	r3,r3,r3
    4df0:	10c7883a 	add	r3,r2,r3
    4df4:	18800017 	ldw	r2,0(r3)
    4df8:	10001126 	beq	r2,zero,4e40 <_Balloc+0x7c>
    4dfc:	11000017 	ldw	r4,0(r2)
    4e00:	19000015 	stw	r4,0(r3)
    4e04:	10000415 	stw	zero,16(r2)
    4e08:	10000315 	stw	zero,12(r2)
    4e0c:	dfc00317 	ldw	ra,12(sp)
    4e10:	dc800217 	ldw	r18,8(sp)
    4e14:	dc400117 	ldw	r17,4(sp)
    4e18:	dc000017 	ldw	r16,0(sp)
    4e1c:	dec00404 	addi	sp,sp,16
    4e20:	f800283a 	ret
    4e24:	01800844 	movi	r6,33
    4e28:	01400104 	movi	r5,4
    4e2c:	00076280 	call	7628 <_calloc_r>
    4e30:	88801315 	stw	r2,76(r17)
    4e34:	103fec1e 	bne	r2,zero,4de8 <__alt_mem_VGA_Subsystem_Char_Buf_Subsystem_Onchip_SRAM+0xf7004de8>
    4e38:	0005883a 	mov	r2,zero
    4e3c:	003ff306 	br	4e0c <__alt_mem_VGA_Subsystem_Char_Buf_Subsystem_Onchip_SRAM+0xf7004e0c>
    4e40:	01400044 	movi	r5,1
    4e44:	2c24983a 	sll	r18,r5,r16
    4e48:	8809883a 	mov	r4,r17
    4e4c:	91800144 	addi	r6,r18,5
    4e50:	318d883a 	add	r6,r6,r6
    4e54:	318d883a 	add	r6,r6,r6
    4e58:	00076280 	call	7628 <_calloc_r>
    4e5c:	103ff626 	beq	r2,zero,4e38 <__alt_mem_VGA_Subsystem_Char_Buf_Subsystem_Onchip_SRAM+0xf7004e38>
    4e60:	14000115 	stw	r16,4(r2)
    4e64:	14800215 	stw	r18,8(r2)
    4e68:	003fe606 	br	4e04 <__alt_mem_VGA_Subsystem_Char_Buf_Subsystem_Onchip_SRAM+0xf7004e04>

00004e6c <_Bfree>:
    4e6c:	28000826 	beq	r5,zero,4e90 <_Bfree+0x24>
    4e70:	28c00117 	ldw	r3,4(r5)
    4e74:	20801317 	ldw	r2,76(r4)
    4e78:	18c7883a 	add	r3,r3,r3
    4e7c:	18c7883a 	add	r3,r3,r3
    4e80:	10c5883a 	add	r2,r2,r3
    4e84:	10c00017 	ldw	r3,0(r2)
    4e88:	28c00015 	stw	r3,0(r5)
    4e8c:	11400015 	stw	r5,0(r2)
    4e90:	f800283a 	ret

00004e94 <__multadd>:
    4e94:	defff704 	addi	sp,sp,-36
    4e98:	dc800215 	stw	r18,8(sp)
    4e9c:	2c800417 	ldw	r18,16(r5)
    4ea0:	dd800615 	stw	r22,24(sp)
    4ea4:	dd400515 	stw	r21,20(sp)
    4ea8:	dd000415 	stw	r20,16(sp)
    4eac:	dcc00315 	stw	r19,12(sp)
    4eb0:	dc400115 	stw	r17,4(sp)
    4eb4:	dc000015 	stw	r16,0(sp)
    4eb8:	dfc00815 	stw	ra,32(sp)
    4ebc:	ddc00715 	stw	r23,28(sp)
    4ec0:	2827883a 	mov	r19,r5
    4ec4:	2029883a 	mov	r20,r4
    4ec8:	3023883a 	mov	r17,r6
    4ecc:	3821883a 	mov	r16,r7
    4ed0:	2d400504 	addi	r21,r5,20
    4ed4:	002d883a 	mov	r22,zero
    4ed8:	adc00017 	ldw	r23,0(r21)
    4edc:	880b883a 	mov	r5,r17
    4ee0:	ad400104 	addi	r21,r21,4
    4ee4:	b93fffcc 	andi	r4,r23,65535
    4ee8:	00005600 	call	560 <__mulsi3>
    4eec:	b808d43a 	srli	r4,r23,16
    4ef0:	880b883a 	mov	r5,r17
    4ef4:	1421883a 	add	r16,r2,r16
    4ef8:	00005600 	call	560 <__mulsi3>
    4efc:	800ed43a 	srli	r7,r16,16
    4f00:	80ffffcc 	andi	r3,r16,65535
    4f04:	b5800044 	addi	r22,r22,1
    4f08:	11c5883a 	add	r2,r2,r7
    4f0c:	100e943a 	slli	r7,r2,16
    4f10:	1020d43a 	srli	r16,r2,16
    4f14:	38c7883a 	add	r3,r7,r3
    4f18:	a8ffff15 	stw	r3,-4(r21)
    4f1c:	b4bfee16 	blt	r22,r18,4ed8 <__alt_mem_VGA_Subsystem_Char_Buf_Subsystem_Onchip_SRAM+0xf7004ed8>
    4f20:	80000926 	beq	r16,zero,4f48 <__multadd+0xb4>
    4f24:	98800217 	ldw	r2,8(r19)
    4f28:	9080130e 	bge	r18,r2,4f78 <__multadd+0xe4>
    4f2c:	90800144 	addi	r2,r18,5
    4f30:	1085883a 	add	r2,r2,r2
    4f34:	1085883a 	add	r2,r2,r2
    4f38:	9885883a 	add	r2,r19,r2
    4f3c:	14000015 	stw	r16,0(r2)
    4f40:	94800044 	addi	r18,r18,1
    4f44:	9c800415 	stw	r18,16(r19)
    4f48:	9805883a 	mov	r2,r19
    4f4c:	dfc00817 	ldw	ra,32(sp)
    4f50:	ddc00717 	ldw	r23,28(sp)
    4f54:	dd800617 	ldw	r22,24(sp)
    4f58:	dd400517 	ldw	r21,20(sp)
    4f5c:	dd000417 	ldw	r20,16(sp)
    4f60:	dcc00317 	ldw	r19,12(sp)
    4f64:	dc800217 	ldw	r18,8(sp)
    4f68:	dc400117 	ldw	r17,4(sp)
    4f6c:	dc000017 	ldw	r16,0(sp)
    4f70:	dec00904 	addi	sp,sp,36
    4f74:	f800283a 	ret
    4f78:	99400117 	ldw	r5,4(r19)
    4f7c:	a009883a 	mov	r4,r20
    4f80:	29400044 	addi	r5,r5,1
    4f84:	0004dc40 	call	4dc4 <_Balloc>
    4f88:	99800417 	ldw	r6,16(r19)
    4f8c:	99400304 	addi	r5,r19,12
    4f90:	11000304 	addi	r4,r2,12
    4f94:	31800084 	addi	r6,r6,2
    4f98:	318d883a 	add	r6,r6,r6
    4f9c:	318d883a 	add	r6,r6,r6
    4fa0:	1023883a 	mov	r17,r2
    4fa4:	0004c7c0 	call	4c7c <memcpy>
    4fa8:	98000a26 	beq	r19,zero,4fd4 <__multadd+0x140>
    4fac:	98c00117 	ldw	r3,4(r19)
    4fb0:	a0801317 	ldw	r2,76(r20)
    4fb4:	18c7883a 	add	r3,r3,r3
    4fb8:	18c7883a 	add	r3,r3,r3
    4fbc:	10c5883a 	add	r2,r2,r3
    4fc0:	10c00017 	ldw	r3,0(r2)
    4fc4:	98c00015 	stw	r3,0(r19)
    4fc8:	14c00015 	stw	r19,0(r2)
    4fcc:	8827883a 	mov	r19,r17
    4fd0:	003fd606 	br	4f2c <__alt_mem_VGA_Subsystem_Char_Buf_Subsystem_Onchip_SRAM+0xf7004f2c>
    4fd4:	8827883a 	mov	r19,r17
    4fd8:	003fd406 	br	4f2c <__alt_mem_VGA_Subsystem_Char_Buf_Subsystem_Onchip_SRAM+0xf7004f2c>

00004fdc <__s2b>:
    4fdc:	defff904 	addi	sp,sp,-28
    4fe0:	dc400115 	stw	r17,4(sp)
    4fe4:	dc000015 	stw	r16,0(sp)
    4fe8:	2023883a 	mov	r17,r4
    4fec:	2821883a 	mov	r16,r5
    4ff0:	39000204 	addi	r4,r7,8
    4ff4:	01400244 	movi	r5,9
    4ff8:	dcc00315 	stw	r19,12(sp)
    4ffc:	dc800215 	stw	r18,8(sp)
    5000:	dfc00615 	stw	ra,24(sp)
    5004:	dd400515 	stw	r21,20(sp)
    5008:	dd000415 	stw	r20,16(sp)
    500c:	3825883a 	mov	r18,r7
    5010:	3027883a 	mov	r19,r6
    5014:	0008ee00 	call	8ee0 <__divsi3>
    5018:	00c00044 	movi	r3,1
    501c:	000b883a 	mov	r5,zero
    5020:	1880030e 	bge	r3,r2,5030 <__s2b+0x54>
    5024:	18c7883a 	add	r3,r3,r3
    5028:	29400044 	addi	r5,r5,1
    502c:	18bffd16 	blt	r3,r2,5024 <__alt_mem_VGA_Subsystem_Char_Buf_Subsystem_Onchip_SRAM+0xf7005024>
    5030:	8809883a 	mov	r4,r17
    5034:	0004dc40 	call	4dc4 <_Balloc>
    5038:	d8c00717 	ldw	r3,28(sp)
    503c:	10c00515 	stw	r3,20(r2)
    5040:	00c00044 	movi	r3,1
    5044:	10c00415 	stw	r3,16(r2)
    5048:	00c00244 	movi	r3,9
    504c:	1cc0210e 	bge	r3,r19,50d4 <__s2b+0xf8>
    5050:	80eb883a 	add	r21,r16,r3
    5054:	a829883a 	mov	r20,r21
    5058:	84e1883a 	add	r16,r16,r19
    505c:	a1c00007 	ldb	r7,0(r20)
    5060:	01800284 	movi	r6,10
    5064:	a5000044 	addi	r20,r20,1
