
UART_Neopixel_Telemetre_Servomoteur_Parametrable.elf:     file format elf32-littlenios2
UART_Neopixel_Telemetre_Servomoteur_Parametrable.elf
architecture: nios2:r1, flags 0x00000112:
EXEC_P, HAS_SYMS, D_PAGED
start address 0x00000230

Program Header:
    LOAD off    0x00001000 vaddr 0x00000000 paddr 0x00000000 align 2**12
         filesz 0x00000020 memsz 0x00000020 flags r-x
    LOAD off    0x00001020 vaddr 0x00000020 paddr 0x00000020 align 2**12
         filesz 0x00014b84 memsz 0x00014b84 flags r-x
    LOAD off    0x00015ba4 vaddr 0x00014ba4 paddr 0x000167f0 align 2**12
         filesz 0x00001c4c memsz 0x00001c4c flags rw-
    LOAD off    0x0001843c vaddr 0x0001843c paddr 0x0001843c align 2**12
         filesz 0x00000000 memsz 0x00000168 flags rw-

Sections:
Idx Name          Size      VMA       LMA       File off  Algn
  0 .entry        00000020  00000000  00000000  00001000  2**5
                  CONTENTS, ALLOC, LOAD, READONLY, CODE
  1 .exceptions   00000210  00000020  00000020  00001020  2**2
                  CONTENTS, ALLOC, LOAD, READONLY, CODE
  2 .text         000144f4  00000230  00000230  00001230  2**2
                  CONTENTS, ALLOC, LOAD, READONLY, CODE
  3 .rodata       00000480  00014724  00014724  00015724  2**2
                  CONTENTS, ALLOC, LOAD, READONLY, DATA
  4 .rwdata       00001c4c  00014ba4  000167f0  00015ba4  2**2
                  CONTENTS, ALLOC, LOAD, DATA, SMALL_DATA
  5 .bss          00000168  0001843c  0001843c  0001843c  2**2
                  ALLOC, SMALL_DATA
  6 .SDRAM        00000000  000185a4  000185a4  000177f0  2**0
                  CONTENTS
  7 .Onchip_SRAM  00000000  08000000  08000000  000177f0  2**0
                  CONTENTS
  8 .VGA_Subsystem_Char_Buf_Subsystem_Onchip_SRAM 00000000  09000000  09000000  000177f0  2**0
                  CONTENTS
  9 .comment      00000023  00000000  00000000  000177f0  2**0
                  CONTENTS, READONLY
 10 .debug_aranges 00000fa0  00000000  00000000  00017818  2**3
                  CONTENTS, READONLY, DEBUGGING
 11 .debug_info   0002662a  00000000  00000000  000187b8  2**0
                  CONTENTS, READONLY, DEBUGGING
 12 .debug_abbrev 00009af0  00000000  00000000  0003ede2  2**0
                  CONTENTS, READONLY, DEBUGGING
 13 .debug_line   0000cfe3  00000000  00000000  000488d2  2**0
                  CONTENTS, READONLY, DEBUGGING
 14 .debug_frame  000023d8  00000000  00000000  000558b8  2**2
                  CONTENTS, READONLY, DEBUGGING
 15 .debug_str    00003e6f  00000000  00000000  00057c90  2**0
                  CONTENTS, READONLY, DEBUGGING
 16 .debug_loc    0001cfb2  00000000  00000000  0005baff  2**0
                  CONTENTS, READONLY, DEBUGGING
 17 .debug_alt_sim_info 00000040  00000000  00000000  00078ab4  2**2
                  CONTENTS, READONLY, DEBUGGING
 18 .debug_ranges 00001b18  00000000  00000000  00078af8  2**3
                  CONTENTS, READONLY, DEBUGGING
 19 .thread_model 00000003  00000000  00000000  0007dc61  2**0
                  CONTENTS, READONLY
 20 .cpu          00000005  00000000  00000000  0007dc64  2**0
                  CONTENTS, READONLY
 21 .qsys         00000001  00000000  00000000  0007dc69  2**0
                  CONTENTS, READONLY
 22 .simulation_enabled 00000001  00000000  00000000  0007dc6a  2**0
                  CONTENTS, READONLY
 23 .sysid_hash   00000004  00000000  00000000  0007dc6b  2**0
                  CONTENTS, READONLY
 24 .sysid_base   00000004  00000000  00000000  0007dc6f  2**0
                  CONTENTS, READONLY
 25 .sysid_time   00000004  00000000  00000000  0007dc73  2**0
                  CONTENTS, READONLY
 26 .stderr_dev   00000009  00000000  00000000  0007dc77  2**0
                  CONTENTS, READONLY
 27 .stdin_dev    00000009  00000000  00000000  0007dc80  2**0
                  CONTENTS, READONLY
 28 .stdout_dev   00000009  00000000  00000000  0007dc89  2**0
                  CONTENTS, READONLY
 29 .sopc_system_name 0000000f  00000000  00000000  0007dc92  2**0
                  CONTENTS, READONLY
 30 .quartus_project_dir 0000005e  00000000  00000000  0007dca1  2**0
                  CONTENTS, READONLY
 31 .sopcinfo     00106276  00000000  00000000  0007dcff  2**0
                  CONTENTS, READONLY
SYMBOL TABLE:
00000000 l    d  .entry	00000000 .entry
00000020 l    d  .exceptions	00000000 .exceptions
00000230 l    d  .text	00000000 .text
00014724 l    d  .rodata	00000000 .rodata
00014ba4 l    d  .rwdata	00000000 .rwdata
0001843c l    d  .bss	00000000 .bss
000185a4 l    d  .SDRAM	00000000 .SDRAM
08000000 l    d  .Onchip_SRAM	00000000 .Onchip_SRAM
09000000 l    d  .VGA_Subsystem_Char_Buf_Subsystem_Onchip_SRAM	00000000 .VGA_Subsystem_Char_Buf_Subsystem_Onchip_SRAM
00000000 l    d  .comment	00000000 .comment
00000000 l    d  .debug_aranges	00000000 .debug_aranges
00000000 l    d  .debug_info	00000000 .debug_info
00000000 l    d  .debug_abbrev	00000000 .debug_abbrev
00000000 l    d  .debug_line	00000000 .debug_line
00000000 l    d  .debug_frame	00000000 .debug_frame
00000000 l    d  .debug_str	00000000 .debug_str
00000000 l    d  .debug_loc	00000000 .debug_loc
00000000 l    d  .debug_alt_sim_info	00000000 .debug_alt_sim_info
00000000 l    d  .debug_ranges	00000000 .debug_ranges
00000000 l    df *ABS*	00000000 ../UART_Neopixel_Telemetre_Servomoteur_Parametrable_bsp//obj/HAL/src/crt0.o
00000268 l       .text	00000000 alt_after_alt_main
00000000 l    df *ABS*	00000000 alt_irq_handler.c
00000000 l    df *ABS*	00000000 alt_instruction_exception_entry.c
00000000 l    df *ABS*	00000000 UART_Neopixel_Telemetre_Servomoteur_Parametrable.c
00000000 l    df *ABS*	00000000 lib2-divmod.c
00000000 l    df *ABS*	00000000 lib2-mul.c
00000000 l    df *ABS*	00000000 fixsfsi.c
00000000 l    df *ABS*	00000000 floatsisf.c
00000000 l    df *ABS*	00000000 extendsfdf2.c
00000000 l    df *ABS*	00000000 libgcc2.c
00000000 l    df *ABS*	00000000 libgcc2.c
00000000 l    df *ABS*	00000000 printf.c
00000000 l    df *ABS*	00000000 snprintf.c
00000000 l    df *ABS*	00000000 vfprintf.c
0001492e l     O .rodata	00000010 zeroes.4389
0001493e l     O .rodata	00000010 blanks.4388
00000000 l    df *ABS*	00000000 vfprintf.c
0001494e l     O .rodata	00000010 zeroes.4404
000059c0 l     F .text	000000bc __sbprintf
0001495e l     O .rodata	00000010 blanks.4403
00000000 l    df *ABS*	00000000 wsetup.c
00000000 l    df *ABS*	00000000 dtoa.c
00005bd0 l     F .text	00000228 quorem
00000000 l    df *ABS*	00000000 fflush.c
00000000 l    df *ABS*	00000000 findfp.c
00007728 l     F .text	00000008 __fp_unlock
0000773c l     F .text	0000019c __sinit.part.1
000078d8 l     F .text	00000008 __fp_lock
00000000 l    df *ABS*	00000000 mallocr.c
00000000 l    df *ABS*	00000000 fwalk.c
00000000 l    df *ABS*	00000000 impure.c
00014bfc l     O .rwdata	00000424 impure_data
00000000 l    df *ABS*	00000000 locale.c
00015040 l     O .rwdata	00000020 lc_ctype_charset
00015020 l     O .rwdata	00000020 lc_message_charset
00015060 l     O .rwdata	00000038 lconv
00000000 l    df *ABS*	00000000 makebuf.c
00000000 l    df *ABS*	00000000 mallocr.c
00000000 l    df *ABS*	00000000 memchr.c
00000000 l    df *ABS*	00000000 memcpy.c
00000000 l    df *ABS*	00000000 memset.c
00000000 l    df *ABS*	00000000 mprec.c
00014990 l     O .rodata	0000000c p05.2768
00000000 l    df *ABS*	00000000 s_fpclassify.c
00000000 l    df *ABS*	00000000 sbrkr.c
00000000 l    df *ABS*	00000000 stdio.c
00000000 l    df *ABS*	00000000 strcmp.c
00000000 l    df *ABS*	00000000 strlen.c
00000000 l    df *ABS*	00000000 vfprintf.c
00014ab4 l     O .rodata	00000010 zeroes.4333
00014ac4 l     O .rodata	00000010 blanks.4332
00000000 l    df *ABS*	00000000 vfprintf.c
0000b82c l     F .text	000000fc __sprint_r.part.0
00014ad4 l     O .rodata	00000010 zeroes.4349
0000ce68 l     F .text	000000bc __sbprintf
00014ae4 l     O .rodata	00000010 blanks.4348
00000000 l    df *ABS*	00000000 writer.c
00000000 l    df *ABS*	00000000 closer.c
00000000 l    df *ABS*	00000000 mallocr.c
00000000 l    df *ABS*	00000000 fclose.c
00000000 l    df *ABS*	00000000 fputwc.c
00000000 l    df *ABS*	00000000 fstatr.c
00000000 l    df *ABS*	00000000 fvwrite.c
00000000 l    df *ABS*	00000000 int_errno.c
00000000 l    df *ABS*	00000000 isattyr.c
00000000 l    df *ABS*	00000000 lseekr.c
00000000 l    df *ABS*	00000000 memmove.c
00000000 l    df *ABS*	00000000 readr.c
00000000 l    df *ABS*	00000000 mallocr.c
00000000 l    df *ABS*	00000000 wbuf.c
00000000 l    df *ABS*	00000000 wcrtomb.c
00000000 l    df *ABS*	00000000 wctomb_r.c
00000000 l    df *ABS*	00000000 libgcc2.c
00000000 l    df *ABS*	00000000 libgcc2.c
00000000 l    df *ABS*	00000000 adddf3.c
00000000 l    df *ABS*	00000000 divdf3.c
00000000 l    df *ABS*	00000000 eqdf2.c
00000000 l    df *ABS*	00000000 gedf2.c
00000000 l    df *ABS*	00000000 ledf2.c
00000000 l    df *ABS*	00000000 muldf3.c
00000000 l    df *ABS*	00000000 subdf3.c
00000000 l    df *ABS*	00000000 fixdfsi.c
00000000 l    df *ABS*	00000000 floatsidf.c
00000000 l    df *ABS*	00000000 floatunsidf.c
00000000 l    df *ABS*	00000000 alt_close.c
000117f8 l     F .text	0000003c alt_get_errno
00000000 l    df *ABS*	00000000 alt_dev.c
0001190c l     F .text	0000002c alt_dev_null_write
00000000 l    df *ABS*	00000000 alt_errno.c
00000000 l    df *ABS*	00000000 alt_fstat.c
00011938 l     F .text	0000003c alt_get_errno
00000000 l    df *ABS*	00000000 alt_isatty.c
00011a2c l     F .text	0000003c alt_get_errno
00000000 l    df *ABS*	00000000 alt_load.c
00011b14 l     F .text	00000068 alt_load_section
00000000 l    df *ABS*	00000000 alt_lseek.c
00011c00 l     F .text	0000003c alt_get_errno
00000000 l    df *ABS*	00000000 alt_main.c
00000000 l    df *ABS*	00000000 alt_malloc_lock.c
00000000 l    df *ABS*	00000000 alt_read.c
00011ddc l     F .text	0000003c alt_get_errno
00000000 l    df *ABS*	00000000 alt_release_fd.c
00000000 l    df *ABS*	00000000 alt_sbrk.c
000167e0 l     O .rwdata	00000004 heap_end
00000000 l    df *ABS*	00000000 alt_usleep.c
00000000 l    df *ABS*	00000000 alt_write.c
00012080 l     F .text	0000003c alt_get_errno
00000000 l    df *ABS*	00000000 alt_sys_init.c
000121bc l     F .text	00000034 alt_dev_reg
00015648 l     O .rwdata	00001060 JTAG_UART
000166a8 l     O .rwdata	0000005c VGA_Subsystem_Char_Buf_Subsystem_Char_Buf_DMA
00016704 l     O .rwdata	0000005c VGA_Subsystem_VGA_Pixel_DMA
00016760 l     O .rwdata	00000044 VGA_Subsystem_VGA_Pixel_RGB_Resampler
00000000 l    df *ABS*	00000000 altera_avalon_jtag_uart_fd.c
00000000 l    df *ABS*	00000000 altera_avalon_jtag_uart_init.c
00012ab0 l     F .text	0000020c altera_avalon_jtag_uart_irq
00012cbc l     F .text	000000a0 altera_avalon_jtag_uart_timeout
00000000 l    df *ABS*	00000000 altera_avalon_jtag_uart_ioctl.c
00000000 l    df *ABS*	00000000 altera_avalon_jtag_uart_read.c
00000000 l    df *ABS*	00000000 altera_avalon_jtag_uart_write.c
00000000 l    df *ABS*	00000000 altera_avalon_timer_sc.c
000132f4 l     F .text	00000078 alt_avalon_timer_sc_irq
00000000 l    df *ABS*	00000000 alt_alarm_start.c
00000000 l    df *ABS*	00000000 alt_busy_sleep.c
00000000 l    df *ABS*	00000000 alt_dcache_flush_all.c
00000000 l    df *ABS*	00000000 alt_dev_llist_insert.c
0001368c l     F .text	0000003c alt_get_errno
00000000 l    df *ABS*	00000000 alt_do_ctors.c
00000000 l    df *ABS*	00000000 alt_do_dtors.c
00000000 l    df *ABS*	00000000 alt_icache_flush_all.c
00000000 l    df *ABS*	00000000 alt_iic.c
00000000 l    df *ABS*	00000000 alt_iic_isr_register.c
00000000 l    df *ABS*	00000000 alt_io_redirect.c
00013aec l     F .text	000000e4 alt_open_fd
00000000 l    df *ABS*	00000000 alt_irq_vars.c
00000000 l    df *ABS*	00000000 alt_open.c
00013c4c l     F .text	0000003c alt_get_errno
00013c88 l     F .text	000000ec alt_file_locked
00000000 l    df *ABS*	00000000 alt_tick.c
00000000 l    df *ABS*	00000000 altera_nios2_gen2_irq.c
00000000 l    df *ABS*	00000000 alt_find_dev.c
00000000 l    df *ABS*	00000000 alt_find_file.c
00000000 l    df *ABS*	00000000 alt_get_fd.c
00000000 l    df *ABS*	00000000 atexit.c
00000000 l    df *ABS*	00000000 exit.c
00000000 l    df *ABS*	00000000 memcmp.c
00000000 l    df *ABS*	00000000 __atexit.c
00000000 l    df *ABS*	00000000 __call_atexit.c
00000000 l    df *ABS*	00000000 alt_exit.c
00018478 g     O .bss	00000004 alt_instruction_exception_handler
00009dcc g     F .text	00000074 _mprec_log10
00009eb8 g     F .text	0000008c __any_on
0000d8e4 g     F .text	00000054 _isatty_r
0001499c g     O .rodata	00000028 __mprec_tinytens
00011d18 g     F .text	0000007c alt_main
000184a4 g     O .bss	00000100 alt_irq
0000d938 g     F .text	00000060 _lseek_r
000167f0 g       *ABS*	00000000 __flash_rwdata_start
00010234 g     F .text	00000088 .hidden __eqdf2
000185a4 g       *ABS*	00000000 __alt_heap_start
00001214 g     F .text	0000003c printf
0000e210 g     F .text	0000009c _wcrtomb_r
0000a0e4 g     F .text	0000005c __sseek
00007a88 g     F .text	00000010 __sinit
0000e0b8 g     F .text	00000140 __swbuf_r
00008094 g     F .text	0000007c _setlocale_r
000078e0 g     F .text	00000078 __sfmoreglue
00011db8 g     F .text	00000024 __malloc_unlock
0000d998 g     F .text	0000015c memmove
00007a70 g     F .text	00000018 _cleanup
00001328 g     F .text	000000e4 snprintf
00008e8c g     F .text	000000a8 _Balloc
00000edc g     F .text	00000070 .hidden __fixsfsi
000102bc g     F .text	000000dc .hidden __gtdf2
00014074 g     F .text	00000024 altera_nios2_gen2_irq_init
00000000 g     F .entry	0000000c __reset
00000020 g       *ABS*	00000000 __flash_exceptions_start
0000d3c0 g     F .text	0000005c _fstat_r
0001845c g     O .bss	00000004 errno
0000a060 g     F .text	00000008 __seofread
0000a48c g     F .text	000013a0 ___svfiprintf_internal_r
00018464 g     O .bss	00000004 alt_argv
0001e7a4 g       *ABS*	00000000 _gp
00012050 g     F .text	00000030 usleep
000154c8 g     O .rwdata	00000180 alt_fd_list
00014098 g     F .text	00000090 alt_find_dev
00008c1c g     F .text	00000148 memcpy
00007730 g     F .text	0000000c _cleanup_r
00011674 g     F .text	000000dc .hidden __floatsidf
00013bd0 g     F .text	0000007c alt_io_redirect
00010398 g     F .text	000000f4 .hidden __ltdf2
00014724 g       *ABS*	00000000 __DTOR_END__
000142f4 g     F .text	0000009c alt_exception_cause_generated_bad_addr
00009f44 g     F .text	00000074 __fpclassifyd
00009d28 g     F .text	000000a4 __ratio
0000ce4c g     F .text	0000001c __vfiprintf_internal
00012eb4 g     F .text	0000021c altera_avalon_jtag_uart_read
000011e4 g     F .text	00000030 _printf_r
00000df8 g     F .text	00000064 .hidden __udivsi3
00011a68 g     F .text	000000ac isatty
000149ec g     O .rodata	000000c8 __mprec_tens
00000314 g     F .text	00000180 init_affichage
00008110 g     F .text	0000000c __locale_charset
00018458 g     O .bss	00000004 __malloc_top_pad
000167b8 g     O .rwdata	00000004 __mb_cur_max
00000494 g     F .text	00000060 send_ascii
00008140 g     F .text	0000000c _localeconv_r
0000d41c g     F .text	000004c8 __sfvwrite_r
000092c0 g     F .text	0000003c __i2b
00009fb8 g     F .text	00000054 _sbrk_r
0000daf4 g     F .text	00000060 _read_r
000167d8 g     O .rwdata	00000004 alt_max_fd
0000d0b4 g     F .text	000000f0 _fclose_r
000076f8 g     F .text	00000030 fflush
00018454 g     O .bss	00000004 __malloc_max_sbrked_mem
00001070 g     F .text	00000110 .hidden __extendsfdf2
0000efb8 g     F .text	000008ac .hidden __adddf3
00009ad0 g     F .text	0000010c __b2d
0000e9f4 g     F .text	000005c4 .hidden __umoddi3
00011c3c g     F .text	000000dc lseek
000167b0 g     O .rwdata	00000004 _global_impure_ptr
0000db54 g     F .text	00000564 _realloc_r
000185a4 g       *ABS*	00000000 __bss_end
000139fc g     F .text	000000f0 alt_iic_isr_register
00013f6c g     F .text	00000108 alt_tick
0000e3f8 g     F .text	000005fc .hidden __udivdi3
0000d31c g     F .text	00000024 _fputwc_r
000149c4 g     O .rodata	00000028 __mprec_bigtens
000090a4 g     F .text	00000104 __s2b
00011750 g     F .text	000000a8 .hidden __floatunsidf
00009810 g     F .text	00000060 __mcmp
00007aa8 g     F .text	00000018 __fp_lock_all
000139b0 g     F .text	0000004c alt_ic_irq_enabled
00013ed0 g     F .text	0000009c alt_alarm_stop
0001846c g     O .bss	00000004 alt_irq_active
000000fc g     F .exceptions	000000d4 alt_irq_handler
000154a0 g     O .rwdata	00000028 alt_dev_null
0001366c g     F .text	00000020 alt_dcache_flush_all
000091a8 g     F .text	00000068 __hi0bits
000115f4 g     F .text	00000080 .hidden __fixdfsi
000167f0 g       *ABS*	00000000 __ram_rwdata_end
000167d0 g     O .rwdata	00000008 alt_dev_list
000120bc g     F .text	00000100 write
00014ba4 g       *ABS*	00000000 __ram_rodata_end
00011974 g     F .text	000000b8 fstat
00000000 g       *ABS*	00000000 __alt_mem_SDRAM
00010398 g     F .text	000000f4 .hidden __ledf2
00009588 g     F .text	00000140 __pow5mult
0000b940 g     F .text	0000150c ___vfiprintf_internal_r
0001844c g     O .bss	00000004 __nlocale_changed
00000e5c g     F .text	00000058 .hidden __umodsi3
000185a4 g       *ABS*	00000000 end
000129f0 g     F .text	000000c0 altera_avalon_jtag_uart_init
000001d0 g     F .exceptions	00000060 alt_instruction_exception_entry
00014724 g       *ABS*	00000000 __CTOR_LIST__
04000000 g       *ABS*	00000000 __alt_stack_pointer
0001336c g     F .text	0000007c alt_avalon_timer_sc_init
00001180 g     F .text	00000064 .hidden __clzsi2
00001250 g     F .text	000000d8 _snprintf_r
000130d0 g     F .text	00000224 altera_avalon_jtag_uart_write
00007a98 g     F .text	00000004 __sfp_lock_acquire
00008b38 g     F .text	000000e4 memchr
000036c8 g     F .text	000022dc ___vfprintf_internal_r
00007bfc g     F .text	00000310 _free_r
0000811c g     F .text	00000010 __locale_mb_cur_max
00014570 g     F .text	00000180 __call_exitprocs
00018448 g     O .bss	00000004 __mlocale_changed
000167bc g     O .rwdata	00000004 __malloc_sbrk_base
00000230 g     F .text	0000003c _start
00018470 g     O .bss	00000004 _alt_tick_rate
000096c8 g     F .text	00000148 __lshift
00018474 g     O .bss	00000004 _alt_nticks
00011e18 g     F .text	00000104 read
00012228 g     F .text	00000664 alt_sys_init
00000f4c g     F .text	00000124 .hidden __floatsisf
0000a2bc g     F .text	000001d0 __ssprint_r
00014458 g     F .text	00000118 __register_exitproc
000092fc g     F .text	0000028c __multiply
00012d5c g     F .text	00000068 altera_avalon_jtag_uart_close
00000eb4 g     F .text	00000028 .hidden __mulsi3
00014ba4 g       *ABS*	00000000 __ram_rwdata_start
00014724 g       *ABS*	00000000 __ram_rodata_start
0001847c g     O .bss	00000028 __malloc_current_mallinfo
00009bdc g     F .text	0000014c __d2b
0000026c g     F .text	000000a8 update_display
0001288c g     F .text	00000060 altera_avalon_jtag_uart_read_fd
00014230 g     F .text	000000c4 alt_get_fd
00013514 g     F .text	00000158 alt_busy_sleep
0000cf84 g     F .text	00000054 _close_r
00018440 g     O .bss	00000004 angle
000143dc g     F .text	0000007c memcmp
0001294c g     F .text	00000050 altera_avalon_jtag_uart_close_fd
000185a4 g       *ABS*	00000000 __alt_stack_base
0001299c g     F .text	00000054 altera_avalon_jtag_uart_ioctl_fd
00005a7c g     F .text	00000154 __swsetup_r
0000f864 g     F .text	000009d0 .hidden __divdf3
00007958 g     F .text	00000118 __sfp
00009e40 g     F .text	00000078 __copybits
00015098 g     O .rwdata	00000408 __malloc_av_
00007aa4 g     F .text	00000004 __sinit_lock_release
0001048c g     F .text	0000086c .hidden __muldf3
0000a00c g     F .text	00000054 __sread
00014128 g     F .text	00000108 alt_find_file
000136c8 g     F .text	000000a4 alt_dev_llist_insert
00011d94 g     F .text	00000024 __malloc_lock
00011fa0 g     F .text	000000b0 sbrk
0000140c g     F .text	000022bc ___svfprintf_internal_r
0000769c g     F .text	0000005c _fflush_r
0000cfd8 g     F .text	000000dc _calloc_r
0001843c g       *ABS*	00000000 __bss_start
00008d64 g     F .text	00000128 memset
00000878 g     F .text	00000488 main
00018468 g     O .bss	00000004 alt_envp
00018450 g     O .bss	00000004 __malloc_max_total_mem
000128ec g     F .text	00000060 altera_avalon_jtag_uart_write_fd
0000e1f8 g     F .text	00000018 __swbuf
0000a140 g     F .text	00000008 __sclose
04000000 g       *ABS*	00000000 __alt_heap_limit
0000d1a4 g     F .text	00000014 fclose
00005df8 g     F .text	00001688 _dtoa_r
0000832c g     F .text	0000080c _malloc_r
0000e36c g     F .text	00000030 __ascii_wctomb
000167dc g     O .rwdata	00000004 alt_errno
00007f0c g     F .text	000000c4 _fwalk
00000d00 g     F .text	00000084 .hidden __divsi3
00007ad8 g     F .text	00000124 _malloc_trim_r
00000750 g     F .text	00000128 Maj_donnees_UART
00014724 g       *ABS*	00000000 __CTOR_END__
0000a148 g     F .text	000000dc strcmp
0001843c g     O .bss	00000004 angle_min
00014724 g       *ABS*	00000000 __flash_rodata_start
00014724 g       *ABS*	00000000 __DTOR_LIST__
000167a4 g     O .rwdata	00000004 delay
00010234 g     F .text	00000088 .hidden __nedf2
000005d4 g     F .text	00000044 RD_Ascii
000121f0 g     F .text	00000038 alt_irq_init
00011f1c g     F .text	00000084 alt_release_fd
000167ac g     O .rwdata	00000004 vitesse
000147eb g     O .rodata	00000100 .hidden __clz_tab
00018444 g     O .bss	00000004 _PathLocale
00014390 g     F .text	00000014 atexit
0000cf24 g     F .text	00000060 _write_r
0000814c g     F .text	00000018 setlocale
000167b4 g     O .rwdata	00000004 _impure_ptr
00018460 g     O .bss	00000004 alt_argc
00007480 g     F .text	0000021c __sflush_r
000137cc g     F .text	00000060 _do_dtors
00008138 g     F .text	00000008 __locale_cjk_lang
09000000 g       *ABS*	00000000 __alt_mem_VGA_Subsystem_Char_Buf_Subsystem_Onchip_SRAM
000004f4 g     F .text	000000e0 envoi_terminal_externe
00000020 g       .exceptions	00000000 alt_irq_entry
00009a6c g     F .text	00000064 __ulp
00007ac0 g     F .text	00000018 __fp_unlock_all
000167c8 g     O .rwdata	00000008 alt_fs_list
000167a8 g     O .rwdata	00000004 angle_max
00000020 g       *ABS*	00000000 __ram_exceptions_start
00008164 g     F .text	0000000c localeconv
0001384c g     F .text	00000050 alt_ic_isr_register
000167f0 g       *ABS*	00000000 _edata
000185a4 g       *ABS*	00000000 _end
0000d1b8 g     F .text	00000164 __fputwc
00000230 g       *ABS*	00000000 __ram_exceptions_end
00012dc4 g     F .text	000000f0 altera_avalon_jtag_uart_ioctl
08000000 g       *ABS*	00000000 __alt_mem_Onchip_SRAM
00013924 g     F .text	0000008c alt_ic_irq_disable
0000a068 g     F .text	0000007c __swrite
000167c0 g     O .rwdata	00000004 __malloc_trim_threshold
0000812c g     F .text	0000000c __locale_msgcharset
000143a4 g     F .text	00000038 exit
00007fd0 g     F .text	000000c4 _fwalk_reent
00009870 g     F .text	000001fc __mdiff
00000d84 g     F .text	00000074 .hidden __modsi3
00000618 g     F .text	00000138 traitement_donnees_distance
04000000 g       *ABS*	00000000 __alt_data_end
00000020 g     F .exceptions	00000000 alt_exception
00007a9c g     F .text	00000004 __sfp_lock_release
000146f0 g     F .text	00000034 _exit
000133e8 g     F .text	0000012c alt_alarm_start
00014ba4 g     O .rwdata	00000040 table_sept_seg
00008170 g     F .text	000001bc __smakebuf_r
0000a224 g     F .text	00000098 strlen
00013d74 g     F .text	0000015c open
000102bc g     F .text	000000dc .hidden __gedf2
000167c4 g     O .rwdata	00000004 __wctomb
0000b928 g     F .text	00000018 __sprint_r
0001382c g     F .text	00000020 alt_icache_flush_all
000167e4 g     O .rwdata	00000004 alt_priority_mask
0001389c g     F .text	00000088 alt_ic_irq_enable
000059a4 g     F .text	0000001c __vfprintf_internal
0000e39c g     F .text	0000005c _wctomb_r
00010cf8 g     F .text	000008fc .hidden __subdf3
00009210 g     F .text	000000b0 __lo0bits
000167e8 g     O .rwdata	00000008 alt_alarm_list
0001376c g     F .text	00000060 _do_ctors
0000e2ac g     F .text	000000c0 wcrtomb
00011834 g     F .text	000000d8 close
00014be4 g     O .rwdata	00000018 puissance_10
00011b7c g     F .text	00000084 alt_load
0000d340 g     F .text	00000080 fputwc
00007aa0 g     F .text	00000004 __sinit_lock_acquire
00008f5c g     F .text	00000148 __multadd
00008f34 g     F .text	00000028 _Bfree



Disassembly of section .entry:

00000000 <__reset>:
 * Jump to the _start entry point in the .text section if reset code
 * is allowed or if optimizing for RTL simulation.
 */
#if defined(ALT_ALLOW_CODE_AT_RESET) || defined(ALT_SIM_OPTIMIZE)
    /* Jump to the _start entry point in the .text section. */
    movhi r1, %hi(_start)
   0:	00400034 	movhi	at,0
    ori r1, r1, %lo(_start)
   4:	08408c14 	ori	at,at,560
    jmp r1
   8:	0800683a 	jmp	at
	...

Disassembly of section .exceptions:

00000020 <alt_exception>:

#else /* ALT_EXCEPTION_STACK disabled */
        /* 
         * Reserve space on normal stack for registers about to be pushed.
         */
        addi  sp, sp, -76
  20:	deffed04 	addi	sp,sp,-76
         * documentation for details).
         *
         * Leave a gap in the stack frame at 4(sp) for the muldiv handler to
         * store zero into.
         */
        stw   ra,  0(sp)
  24:	dfc00015 	stw	ra,0(sp)
        stw   r1,   8(sp)
  28:	d8400215 	stw	at,8(sp)
        stw   r2,  12(sp)
  2c:	d8800315 	stw	r2,12(sp)
        stw   r3,  16(sp)
  30:	d8c00415 	stw	r3,16(sp)
        stw   r4,  20(sp)
  34:	d9000515 	stw	r4,20(sp)
        stw   r5,  24(sp)
  38:	d9400615 	stw	r5,24(sp)
        stw   r6,  28(sp)
  3c:	d9800715 	stw	r6,28(sp)
        stw   r7,  32(sp)
  40:	d9c00815 	stw	r7,32(sp)
        rdctl r5, estatus   /* Read early to avoid usage stall */
  44:	000b307a 	rdctl	r5,estatus
        stw   r8,  36(sp)
  48:	da000915 	stw	r8,36(sp)
        stw   r9,  40(sp)
  4c:	da400a15 	stw	r9,40(sp)
        stw   r10, 44(sp)
  50:	da800b15 	stw	r10,44(sp)
        stw   r11, 48(sp)
  54:	dac00c15 	stw	r11,48(sp)
        stw   r12, 52(sp)
  58:	db000d15 	stw	r12,52(sp)
        stw   r13, 56(sp)
  5c:	db400e15 	stw	r13,56(sp)
        stw   r14, 60(sp)
  60:	db800f15 	stw	r14,60(sp)
        stw   r15, 64(sp)
  64:	dbc01015 	stw	r15,64(sp)
        /*
         * ea-4 contains the address of the instruction being executed
         * when the exception occured. For interrupt exceptions, we will
         * will be re-issue the isntruction. Store it in 72(sp)
         */
        stw   r5,  68(sp)  /* estatus */
  68:	d9401115 	stw	r5,68(sp)
        addi  r15, ea, -4  /* instruction that caused exception */
  6c:	ebffff04 	addi	r15,ea,-4
        stw   r15,  72(sp)
  70:	dbc01215 	stw	r15,72(sp)
#else
        /*
         * Test to see if the exception was a software exception or caused 
         * by an external interrupt, and vector accordingly.
         */
        rdctl r4, ipending
  74:	0009313a 	rdctl	r4,ipending
        andi  r2, r5, 1
  78:	2880004c 	andi	r2,r5,1
        beq   r2, zero, .Lnot_irq
  7c:	10000326 	beq	r2,zero,8c <alt_exception+0x6c>
        beq   r4, zero, .Lnot_irq
  80:	20000226 	beq	r4,zero,8c <alt_exception+0x6c>
        /*
         * Now that all necessary registers have been preserved, call 
         * alt_irq_handler() to process the interrupts.
         */

        call alt_irq_handler
  84:	00000fc0 	call	fc <alt_irq_handler>

        .section .exceptions.irqreturn, "xa"

        br    .Lexception_exit
  88:	00000706 	br	a8 <alt_exception+0x88>
         * upon completion, so we write ea (address of instruction *after*
         * the one where the exception occured) into 72(sp). The actual
         * instruction that caused the exception is written in r2, which these
         * handlers will utilize.
         */
        stw ea, 72(sp) /* EA is PC+4 so will skip over instruction causing exception */
  8c:	df401215 	stw	ea,72(sp)
.Lunknown_16bit:
        addi.n r4, r4, 2 /* Need PC+2 to skip over instruction causing exception */
        stw r4, 72(sp)

#else /* CDX is not Enabled and all instructions are 32bits */
        ldw r2, -4(ea) /* Instruction value that caused exception */
  90:	e8bfff17 	ldw	r2,-4(ea)
         * debugger is present) or go into an infinite loop since the
         * handling behavior is undefined; in that case we will not return here.
         */

        /* Load exception-causing address as first argument (r4) */
        addi   r4, ea, -4
  94:	e93fff04 	addi	r4,ea,-4

        /* Call the instruction-exception entry */
        call   alt_instruction_exception_entry
  98:	00001d00 	call	1d0 <alt_instruction_exception_entry>
         * instruction
         *
         * Return code was 0: Skip. The instruction after the exception is
         * already stored in 72(sp).
         */
        bne   r2, r0, .Lexception_exit
  9c:	1000021e 	bne	r2,zero,a8 <alt_exception+0x88>

        /*
         * Otherwise, modify 72(sp) to re-issue the instruction that caused the
         * exception.
         */
        addi  r15, ea, -4  /* instruction that caused exception */
  a0:	ebffff04 	addi	r15,ea,-4
        stw   r15,  72(sp)
  a4:	dbc01215 	stw	r15,72(sp)
        /* 
         * Restore the saved registers, so that all general purpose registers 
         * have been restored to their state at the time the interrupt occured.
         */

        ldw   r5,  68(sp)
  a8:	d9401117 	ldw	r5,68(sp)
        ldw   ea,  72(sp)  /* This becomes the PC once eret is executed */
  ac:	df401217 	ldw	ea,72(sp)
        ldw   ra,   0(sp)
  b0:	dfc00017 	ldw	ra,0(sp)

        wrctl estatus, r5
  b4:	2801707a 	wrctl	estatus,r5

        ldw   r1,   8(sp)
  b8:	d8400217 	ldw	at,8(sp)
        ldw   r2,  12(sp)
  bc:	d8800317 	ldw	r2,12(sp)
        ldw   r3,  16(sp)
  c0:	d8c00417 	ldw	r3,16(sp)
        ldw   r4,  20(sp)
  c4:	d9000517 	ldw	r4,20(sp)
        ldw   r5,  24(sp)
  c8:	d9400617 	ldw	r5,24(sp)
        ldw   r6,  28(sp)
  cc:	d9800717 	ldw	r6,28(sp)
        ldw   r7,  32(sp)
  d0:	d9c00817 	ldw	r7,32(sp)

#if defined(ALT_EXCEPTION_STACK) && defined(ALT_STACK_CHECK)
        ldw   et, %gprel(alt_exception_old_stack_limit)(gp)
#endif

        ldw   r8,  36(sp)
  d4:	da000917 	ldw	r8,36(sp)
        ldw   r9,  40(sp)
  d8:	da400a17 	ldw	r9,40(sp)
        ldw   r10, 44(sp)
  dc:	da800b17 	ldw	r10,44(sp)
        ldw   r11, 48(sp)
  e0:	dac00c17 	ldw	r11,48(sp)
        ldw   r12, 52(sp)
  e4:	db000d17 	ldw	r12,52(sp)
        ldw   r13, 56(sp)
  e8:	db400e17 	ldw	r13,56(sp)
        ldw   r14, 60(sp)
  ec:	db800f17 	ldw	r14,60(sp)
        ldw   r15, 64(sp)
  f0:	dbc01017 	ldw	r15,64(sp)
        stw   et, %gprel(alt_stack_limit_value)(gp)
        stw   zero, %gprel(alt_exception_old_stack_limit)(gp)
#endif /* ALT_STACK_CHECK */
        ldw   sp,  76(sp)
#else /* ALT_EXCEPTION_STACK disabled */
        addi  sp, sp, 76
  f4:	dec01304 	addi	sp,sp,76

        /*
         * Return to the interrupted instruction.
         */

        eret
  f8:	ef80083a 	eret

000000fc <alt_irq_handler>:
 * instruction is present if the macro ALT_CI_INTERRUPT_VECTOR defined.
 */

void alt_irq_handler (void) __attribute__ ((section (".exceptions")));
void alt_irq_handler (void)
{
  fc:	defff904 	addi	sp,sp,-28
 100:	dfc00615 	stw	ra,24(sp)
 104:	df000515 	stw	fp,20(sp)
 108:	df000504 	addi	fp,sp,20
  
  /*
   * Notify the operating system that we are at interrupt level.
   */ 
  
  ALT_OS_INT_ENTER();
 10c:	0001883a 	nop
#ifndef NIOS2_EIC_PRESENT
static ALT_INLINE alt_u32 ALT_ALWAYS_INLINE alt_irq_pending (void)
{
  alt_u32 active;

  NIOS2_READ_IPENDING (active);
 110:	0005313a 	rdctl	r2,ipending
 114:	e0bffe15 	stw	r2,-8(fp)

  return active;
 118:	e0bffe17 	ldw	r2,-8(fp)
   * Consider the case where the high priority interupt is asserted during
   * the interrupt entry sequence for a lower priority interrupt to see why
   * this is the case.
   */

  active = alt_irq_pending ();
 11c:	e0bffb15 	stw	r2,-20(fp)

  do
  {
    i = 0;
 120:	e03ffd15 	stw	zero,-12(fp)
    mask = 1;
 124:	00800044 	movi	r2,1
 128:	e0bffc15 	stw	r2,-16(fp)
     * called to clear the interrupt condition.
     */

    do
    {
      if (active & mask)
 12c:	e0fffb17 	ldw	r3,-20(fp)
 130:	e0bffc17 	ldw	r2,-16(fp)
 134:	1884703a 	and	r2,r3,r2
 138:	10001426 	beq	r2,zero,18c <alt_irq_handler+0x90>
      { 
#ifdef ALT_ENHANCED_INTERRUPT_API_PRESENT
        alt_irq[i].handler(alt_irq[i].context); 
 13c:	008000b4 	movhi	r2,2
 140:	10a12904 	addi	r2,r2,-31580
 144:	e0fffd17 	ldw	r3,-12(fp)
 148:	180690fa 	slli	r3,r3,3
 14c:	10c5883a 	add	r2,r2,r3
 150:	10c00017 	ldw	r3,0(r2)
 154:	008000b4 	movhi	r2,2
 158:	10a12904 	addi	r2,r2,-31580
 15c:	e13ffd17 	ldw	r4,-12(fp)
 160:	200890fa 	slli	r4,r4,3
 164:	1105883a 	add	r2,r2,r4
 168:	10800104 	addi	r2,r2,4
 16c:	10800017 	ldw	r2,0(r2)
 170:	1009883a 	mov	r4,r2
 174:	183ee83a 	callr	r3
#else
        alt_irq[i].handler(alt_irq[i].context, i); 
#endif
        break;
 178:	0001883a 	nop
#ifndef NIOS2_EIC_PRESENT
static ALT_INLINE alt_u32 ALT_ALWAYS_INLINE alt_irq_pending (void)
{
  alt_u32 active;

  NIOS2_READ_IPENDING (active);
 17c:	0005313a 	rdctl	r2,ipending
 180:	e0bfff15 	stw	r2,-4(fp)

  return active;
 184:	e0bfff17 	ldw	r2,-4(fp)
 188:	00000706 	br	1a8 <alt_irq_handler+0xac>
      }
      mask <<= 1;
 18c:	e0bffc17 	ldw	r2,-16(fp)
 190:	1085883a 	add	r2,r2,r2
 194:	e0bffc15 	stw	r2,-16(fp)
      i++;
 198:	e0bffd17 	ldw	r2,-12(fp)
 19c:	10800044 	addi	r2,r2,1
 1a0:	e0bffd15 	stw	r2,-12(fp)

    } while (1);
 1a4:	003fe106 	br	12c <__alt_mem_VGA_Subsystem_Char_Buf_Subsystem_Onchip_SRAM+0xf700012c>

    active = alt_irq_pending ();
 1a8:	e0bffb15 	stw	r2,-20(fp)
    
  } while (active);
 1ac:	e0bffb17 	ldw	r2,-20(fp)
 1b0:	103fdb1e 	bne	r2,zero,120 <__alt_mem_VGA_Subsystem_Char_Buf_Subsystem_Onchip_SRAM+0xf7000120>

  /*
   * Notify the operating system that interrupt processing is complete.
   */ 

  ALT_OS_INT_EXIT();
 1b4:	0001883a 	nop
}
 1b8:	0001883a 	nop
 1bc:	e037883a 	mov	sp,fp
 1c0:	dfc00117 	ldw	ra,4(sp)
 1c4:	df000017 	ldw	fp,0(sp)
 1c8:	dec00204 	addi	sp,sp,8
 1cc:	f800283a 	ret

000001d0 <alt_instruction_exception_entry>:
 * that handler if it has been registered. Absent a handler, it will
 * break break or hang as discussed below.
 */
int 
alt_instruction_exception_entry (alt_u32 exception_pc)
{
 1d0:	defffb04 	addi	sp,sp,-20
 1d4:	dfc00415 	stw	ra,16(sp)
 1d8:	df000315 	stw	fp,12(sp)
 1dc:	df000304 	addi	fp,sp,12
 1e0:	e13fff15 	stw	r4,-4(fp)
  cause = ( (cause & NIOS2_EXCEPTION_REG_CAUSE_MASK) >>
              NIOS2_EXCEPTION_REG_CAUSE_OFST );

  NIOS2_READ_BADADDR(badaddr);
#else
  cause = NIOS2_EXCEPTION_CAUSE_NOT_PRESENT;
 1e4:	00bfffc4 	movi	r2,-1
 1e8:	e0bffd15 	stw	r2,-12(fp)
  badaddr = 0;
 1ec:	e03ffe15 	stw	zero,-8(fp)
#endif /* NIOS2_HAS_EXTRA_EXCEPTION_INFO */

  if(alt_instruction_exception_handler) {
 1f0:	d0a73517 	ldw	r2,-25388(gp)
 1f4:	10000726 	beq	r2,zero,214 <alt_instruction_exception_entry+0x44>
     * Call handler. Its return value indicates whether the exception-causing
     * instruction should be re-issued. The code that called us,
     * alt_eceptions_entry.S, will look at this value and adjust the ea
     * register as necessary
     */
    return alt_instruction_exception_handler(cause, exception_pc, badaddr);
 1f8:	d0a73517 	ldw	r2,-25388(gp)
 1fc:	e0fffd17 	ldw	r3,-12(fp)
 200:	e1bffe17 	ldw	r6,-8(fp)
 204:	e17fff17 	ldw	r5,-4(fp)
 208:	1809883a 	mov	r4,r3
 20c:	103ee83a 	callr	r2
 210:	00000206 	br	21c <alt_instruction_exception_entry+0x4c>
   *    (a peripheral which negates its interrupt output before its
   *    interrupt handler has been executed will cause spurious interrupts)
   */
  else {
#ifdef NIOS2_HAS_DEBUG_STUB
    NIOS2_BREAK();
 214:	003da03a 	break	0
      ;
#endif /* NIOS2_HAS_DEBUG_STUB */
  }

  /* We should not get here. Remove compiler warning. */
  return NIOS2_EXCEPTION_RETURN_REISSUE_INST;
 218:	0005883a 	mov	r2,zero
}
 21c:	e037883a 	mov	sp,fp
 220:	dfc00117 	ldw	ra,4(sp)
 224:	df000017 	ldw	fp,0(sp)
 228:	dec00204 	addi	sp,sp,8
 22c:	f800283a 	ret

Disassembly of section .text:

00000230 <_start>:

    /*
     * Now that the caches are initialized, set up the stack pointer and global pointer.
     * The values provided by the linker are assumed to be correctly aligned.
     */
    movhi sp, %hi(__alt_stack_pointer)
     230:	06c10034 	movhi	sp,1024
    ori sp, sp, %lo(__alt_stack_pointer)
     234:	dec00014 	ori	sp,sp,0
    movhi gp, %hi(_gp)
     238:	06800074 	movhi	gp,1
    ori gp, gp, %lo(_gp)
     23c:	d6b9e914 	ori	gp,gp,59300
 */
#ifndef ALT_SIM_OPTIMIZE
    /* Log that the BSS is about to be cleared. */
    ALT_LOG_PUTS(alt_log_msg_bss)

    movhi r2, %hi(__bss_start)
     240:	00800074 	movhi	r2,1
    ori r2, r2, %lo(__bss_start)
     244:	10a10f14 	ori	r2,r2,33852

    movhi r3, %hi(__bss_end)
     248:	00c00074 	movhi	r3,1
    ori r3, r3, %lo(__bss_end)
     24c:	18e16914 	ori	r3,r3,34212

    beq r2, r3, 1f
     250:	10c00326 	beq	r2,r3,260 <_start+0x30>

0:
    stw zero, (r2)
     254:	10000015 	stw	zero,0(r2)
    addi r2, r2, 4
     258:	10800104 	addi	r2,r2,4
    bltu r2, r3, 0b
     25c:	10fffd36 	bltu	r2,r3,254 <__alt_mem_VGA_Subsystem_Char_Buf_Subsystem_Onchip_SRAM+0xf7000254>
     * section aren't defined until alt_load() has been called).
     */
    mov   et, zero
#endif

    call alt_load
     260:	0011b7c0 	call	11b7c <alt_load>

    /* Log that alt_main is about to be called. */
    ALT_LOG_PUTS(alt_log_msg_alt_main)

    /* Call the C entry point. It should never return. */
    call alt_main
     264:	0011d180 	call	11d18 <alt_main>

00000268 <alt_after_alt_main>:

    /* Wait in infinite loop in case alt_main does return. */
alt_after_alt_main:
    br alt_after_alt_main
     268:	003fff06 	br	268 <__alt_mem_VGA_Subsystem_Char_Buf_Subsystem_Onchip_SRAM+0xf7000268>

0000026c <update_display>:

// Pre calcul des puissances de 10 pour eviter les multiplications repetees
unsigned int puissance_10[] = {1, 10, 100, 1000, 10000, 100000};

void update_display(unsigned int* Buffer_6_HEX)
{
     26c:	defffe04 	addi	sp,sp,-8
     270:	df000115 	stw	fp,4(sp)
     274:	df000104 	addi	fp,sp,4
     278:	e13fff15 	stw	r4,-4(fp)
    IOWR_ALTERA_AVALON_HEX_3_2_1_0(
     27c:	e0bfff17 	ldw	r2,-4(fp)
     280:	10800204 	addi	r2,r2,8
     284:	10800017 	ldw	r2,0(r2)
     288:	1006963a 	slli	r3,r2,24
     28c:	e0bfff17 	ldw	r2,-4(fp)
     290:	10800304 	addi	r2,r2,12
     294:	10800017 	ldw	r2,0(r2)
     298:	1004943a 	slli	r2,r2,16
     29c:	1886b03a 	or	r3,r3,r2
     2a0:	e0bfff17 	ldw	r2,-4(fp)
     2a4:	10800404 	addi	r2,r2,16
     2a8:	10800017 	ldw	r2,0(r2)
     2ac:	1004923a 	slli	r2,r2,8
     2b0:	1886b03a 	or	r3,r3,r2
     2b4:	e0bfff17 	ldw	r2,-4(fp)
     2b8:	10800504 	addi	r2,r2,20
     2bc:	10800017 	ldw	r2,0(r2)
     2c0:	1884b03a 	or	r2,r3,r2
     2c4:	1007883a 	mov	r3,r2
     2c8:	00bfc834 	movhi	r2,65312
     2cc:	10800804 	addi	r2,r2,32
     2d0:	10c00035 	stwio	r3,0(r2)
        (Buffer_6_HEX[2] << 24) | (Buffer_6_HEX[3] << 16) |
        (Buffer_6_HEX[4] << 8) | Buffer_6_HEX[5]);
    IOWR_ALTERA_AVALON_HEX_5_4((Buffer_6_HEX[0] << 8) | Buffer_6_HEX[1]);
     2d4:	e0bfff17 	ldw	r2,-4(fp)
     2d8:	10800017 	ldw	r2,0(r2)
     2dc:	1006923a 	slli	r3,r2,8
     2e0:	e0bfff17 	ldw	r2,-4(fp)
     2e4:	10800104 	addi	r2,r2,4
     2e8:	10800017 	ldw	r2,0(r2)
     2ec:	1884b03a 	or	r2,r3,r2
     2f0:	1007883a 	mov	r3,r2
     2f4:	00bfc834 	movhi	r2,65312
     2f8:	10800c04 	addi	r2,r2,48
     2fc:	10c00035 	stwio	r3,0(r2)
}
     300:	0001883a 	nop
     304:	e037883a 	mov	sp,fp
     308:	df000017 	ldw	fp,0(sp)
     30c:	dec00104 	addi	sp,sp,4
     310:	f800283a 	ret

00000314 <init_affichage>:

// Animation d'initialisation
void init_affichage()
{
     314:	defff604 	addi	sp,sp,-40
     318:	dfc00915 	stw	ra,36(sp)
     31c:	df000815 	stw	fp,32(sp)
     320:	df000804 	addi	fp,sp,32
    unsigned int Buffer_6_HEX[] =
    {
        table_sept_seg[10], // E
     324:	00800074 	movhi	r2,1
     328:	1092e904 	addi	r2,r2,19364
     32c:	10800a17 	ldw	r2,40(r2)
}

// Animation d'initialisation
void init_affichage()
{
    unsigned int Buffer_6_HEX[] =
     330:	e0bffa15 	stw	r2,-24(fp)
    {
        table_sept_seg[10], // E
        table_sept_seg[11], // I
     334:	00800074 	movhi	r2,1
     338:	1092e904 	addi	r2,r2,19364
     33c:	10800b17 	ldw	r2,44(r2)
}

// Animation d'initialisation
void init_affichage()
{
    unsigned int Buffer_6_HEX[] =
     340:	e0bffb15 	stw	r2,-20(fp)
    {
        table_sept_seg[10], // E
        table_sept_seg[11], // I
        table_sept_seg[12], // V
     344:	00800074 	movhi	r2,1
     348:	1092e904 	addi	r2,r2,19364
     34c:	10800c17 	ldw	r2,48(r2)
}

// Animation d'initialisation
void init_affichage()
{
    unsigned int Buffer_6_HEX[] =
     350:	e0bffc15 	stw	r2,-16(fp)
    {
        table_sept_seg[10], // E
        table_sept_seg[11], // I
        table_sept_seg[12], // V
        table_sept_seg[13], // L
     354:	00800074 	movhi	r2,1
     358:	1092e904 	addi	r2,r2,19364
     35c:	10800d17 	ldw	r2,52(r2)
}

// Animation d'initialisation
void init_affichage()
{
    unsigned int Buffer_6_HEX[] =
     360:	e0bffd15 	stw	r2,-12(fp)
    {
        table_sept_seg[10], // E
        table_sept_seg[11], // I
        table_sept_seg[12], // V
        table_sept_seg[13], // L
        table_sept_seg[14], // A
     364:	00800074 	movhi	r2,1
     368:	1092e904 	addi	r2,r2,19364
     36c:	10800e17 	ldw	r2,56(r2)
}

// Animation d'initialisation
void init_affichage()
{
    unsigned int Buffer_6_HEX[] =
     370:	e0bffe15 	stw	r2,-8(fp)
        table_sept_seg[10], // E
        table_sept_seg[11], // I
        table_sept_seg[12], // V
        table_sept_seg[13], // L
        table_sept_seg[14], // A
        table_sept_seg[15]  // D
     374:	00800074 	movhi	r2,1
     378:	1092e904 	addi	r2,r2,19364
     37c:	10800f17 	ldw	r2,60(r2)
}

// Animation d'initialisation
void init_affichage()
{
    unsigned int Buffer_6_HEX[] =
     380:	e0bfff15 	stw	r2,-4(fp)
        table_sept_seg[13], // L
        table_sept_seg[14], // A
        table_sept_seg[15]  // D
    };

    update_display(Buffer_6_HEX);
     384:	e0bffa04 	addi	r2,fp,-24
     388:	1009883a 	mov	r4,r2
     38c:	000026c0 	call	26c <update_display>
    usleep(1000000); // Delay 1 seconde
     390:	010003f4 	movhi	r4,15
     394:	21109004 	addi	r4,r4,16960
     398:	00120500 	call	12050 <usleep>

    for (int i = 0; i < 7; i++)
     39c:	e03ff815 	stw	zero,-32(fp)
     3a0:	00003306 	br	470 <init_affichage+0x15c>
    {
        if (i < 6)
     3a4:	e0bff817 	ldw	r2,-32(fp)
     3a8:	10800188 	cmpgei	r2,r2,6
     3ac:	1000101e 	bne	r2,zero,3f0 <init_affichage+0xdc>
        {
            Buffer_6_HEX[i] |= (1 << 7); // Allumer le point decimal
     3b0:	e0bff817 	ldw	r2,-32(fp)
     3b4:	1085883a 	add	r2,r2,r2
     3b8:	1085883a 	add	r2,r2,r2
     3bc:	e0fff804 	addi	r3,fp,-32
     3c0:	1885883a 	add	r2,r3,r2
     3c4:	10800204 	addi	r2,r2,8
     3c8:	10800017 	ldw	r2,0(r2)
     3cc:	10c02014 	ori	r3,r2,128
     3d0:	e0bff817 	ldw	r2,-32(fp)
     3d4:	1085883a 	add	r2,r2,r2
     3d8:	1085883a 	add	r2,r2,r2
     3dc:	e13ff804 	addi	r4,fp,-32
     3e0:	2085883a 	add	r2,r4,r2
     3e4:	10800204 	addi	r2,r2,8
     3e8:	10c00015 	stw	r3,0(r2)
     3ec:	00001806 	br	450 <init_affichage+0x13c>
        }
        else
        {
            for (int j = 0; j < 6; j++)
     3f0:	e03ff915 	stw	zero,-28(fp)
     3f4:	00001306 	br	444 <init_affichage+0x130>
            {
                Buffer_6_HEX[j] &= ~(1 << 7); // eteindre le point decimal
     3f8:	e0bff917 	ldw	r2,-28(fp)
     3fc:	1085883a 	add	r2,r2,r2
     400:	1085883a 	add	r2,r2,r2
     404:	e0fff804 	addi	r3,fp,-32
     408:	1885883a 	add	r2,r3,r2
     40c:	10800204 	addi	r2,r2,8
     410:	10c00017 	ldw	r3,0(r2)
     414:	00bfdfc4 	movi	r2,-129
     418:	1886703a 	and	r3,r3,r2
     41c:	e0bff917 	ldw	r2,-28(fp)
     420:	1085883a 	add	r2,r2,r2
     424:	1085883a 	add	r2,r2,r2
     428:	e13ff804 	addi	r4,fp,-32
     42c:	2085883a 	add	r2,r4,r2
     430:	10800204 	addi	r2,r2,8
     434:	10c00015 	stw	r3,0(r2)
        {
            Buffer_6_HEX[i] |= (1 << 7); // Allumer le point decimal
        }
        else
        {
            for (int j = 0; j < 6; j++)
     438:	e0bff917 	ldw	r2,-28(fp)
     43c:	10800044 	addi	r2,r2,1
     440:	e0bff915 	stw	r2,-28(fp)
     444:	e0bff917 	ldw	r2,-28(fp)
     448:	10800190 	cmplti	r2,r2,6
     44c:	103fea1e 	bne	r2,zero,3f8 <__alt_mem_VGA_Subsystem_Char_Buf_Subsystem_Onchip_SRAM+0xf70003f8>
            {
                Buffer_6_HEX[j] &= ~(1 << 7); // eteindre le point decimal
            }
        }
        update_display(Buffer_6_HEX);
     450:	e0bffa04 	addi	r2,fp,-24
     454:	1009883a 	mov	r4,r2
     458:	000026c0 	call	26c <update_display>
        usleep(60000); // Pause
     45c:	013a9814 	movui	r4,60000
     460:	00120500 	call	12050 <usleep>
    };

    update_display(Buffer_6_HEX);
    usleep(1000000); // Delay 1 seconde

    for (int i = 0; i < 7; i++)
     464:	e0bff817 	ldw	r2,-32(fp)
     468:	10800044 	addi	r2,r2,1
     46c:	e0bff815 	stw	r2,-32(fp)
     470:	e0bff817 	ldw	r2,-32(fp)
     474:	108001d0 	cmplti	r2,r2,7
     478:	103fca1e 	bne	r2,zero,3a4 <__alt_mem_VGA_Subsystem_Char_Buf_Subsystem_Onchip_SRAM+0xf70003a4>
            }
        }
        update_display(Buffer_6_HEX);
        usleep(60000); // Pause
    }
}
     47c:	0001883a 	nop
     480:	e037883a 	mov	sp,fp
     484:	dfc00117 	ldw	ra,4(sp)
     488:	df000017 	ldw	fp,0(sp)
     48c:	dec00204 	addi	sp,sp,8
     490:	f800283a 	ret

00000494 <send_ascii>:

void send_ascii(int ascii_char)
{
     494:	defffd04 	addi	sp,sp,-12
     498:	dfc00215 	stw	ra,8(sp)
     49c:	df000115 	stw	fp,4(sp)
     4a0:	df000104 	addi	fp,sp,4
     4a4:	e13fff15 	stw	r4,-4(fp)
    IOWR_ALTERA_AVALON_UART_Tx_ASCii(ascii_char);
     4a8:	00810034 	movhi	r2,1024
     4ac:	10800104 	addi	r2,r2,4
     4b0:	e0ffff17 	ldw	r3,-4(fp)
     4b4:	10c00035 	stwio	r3,0(r2)
    IOWR_ALTERA_AVALON_UART_Load(1);
     4b8:	00c00044 	movi	r3,1
     4bc:	00810034 	movhi	r2,1024
     4c0:	10c00035 	stwio	r3,0(r2)
    usleep(delay);
     4c4:	d0a00017 	ldw	r2,-32768(gp)
     4c8:	1009883a 	mov	r4,r2
     4cc:	00120500 	call	12050 <usleep>
    IOWR_ALTERA_AVALON_UART_Load(0);
     4d0:	0007883a 	mov	r3,zero
     4d4:	00810034 	movhi	r2,1024
     4d8:	10c00035 	stwio	r3,0(r2)
}
     4dc:	0001883a 	nop
     4e0:	e037883a 	mov	sp,fp
     4e4:	dfc00117 	ldw	ra,4(sp)
     4e8:	df000017 	ldw	fp,0(sp)
     4ec:	dec00204 	addi	sp,sp,8
     4f0:	f800283a 	ret

000004f4 <envoi_terminal_externe>:

void envoi_terminal_externe(const char *word, int angle, int distance)
{
     4f4:	deffdc04 	addi	sp,sp,-144
     4f8:	dfc02315 	stw	ra,140(sp)
     4fc:	df002215 	stw	fp,136(sp)
     500:	df002204 	addi	fp,sp,136
     504:	e13ffd15 	stw	r4,-12(fp)
     508:	e17ffe15 	stw	r5,-8(fp)
     50c:	e1bfff15 	stw	r6,-4(fp)
    char buffer[100];
    snprintf(buffer, sizeof(buffer), "%s Angle=%d deg [%d ; %d]  +  Speed_mod=%d  +  Dist_moy=%d cm", word, angle, angle_min, angle_max, vitesse, distance); //GPT -ed
     510:	d0a72617 	ldw	r2,-25448(gp)
     514:	d0e00117 	ldw	r3,-32764(gp)
     518:	d1200217 	ldw	r4,-32760(gp)
     51c:	e23fe404 	addi	r8,fp,-112
     520:	e17fff17 	ldw	r5,-4(fp)
     524:	d9400415 	stw	r5,16(sp)
     528:	d9000315 	stw	r4,12(sp)
     52c:	d8c00215 	stw	r3,8(sp)
     530:	d8800115 	stw	r2,4(sp)
     534:	e0bffe17 	ldw	r2,-8(fp)
     538:	d8800015 	stw	r2,0(sp)
     53c:	e1fffd17 	ldw	r7,-12(fp)
     540:	01800074 	movhi	r6,1
     544:	3191c904 	addi	r6,r6,18212
     548:	01401904 	movi	r5,100
     54c:	4009883a 	mov	r4,r8
     550:	00013280 	call	1328 <snprintf>

    for (int i = 0; buffer[i] != '\0'; i++)
     554:	e03fe315 	stw	zero,-116(fp)
     558:	00000c06 	br	58c <envoi_terminal_externe+0x98>
    {
        send_ascii(buffer[i]);
     55c:	e0ffe404 	addi	r3,fp,-112
     560:	e0bfe317 	ldw	r2,-116(fp)
     564:	1885883a 	add	r2,r3,r2
     568:	10800003 	ldbu	r2,0(r2)
     56c:	10803fcc 	andi	r2,r2,255
     570:	1080201c 	xori	r2,r2,128
     574:	10bfe004 	addi	r2,r2,-128
     578:	1009883a 	mov	r4,r2
     57c:	00004940 	call	494 <send_ascii>
void envoi_terminal_externe(const char *word, int angle, int distance)
{
    char buffer[100];
    snprintf(buffer, sizeof(buffer), "%s Angle=%d deg [%d ; %d]  +  Speed_mod=%d  +  Dist_moy=%d cm", word, angle, angle_min, angle_max, vitesse, distance); //GPT -ed

    for (int i = 0; buffer[i] != '\0'; i++)
     580:	e0bfe317 	ldw	r2,-116(fp)
     584:	10800044 	addi	r2,r2,1
     588:	e0bfe315 	stw	r2,-116(fp)
     58c:	e0ffe404 	addi	r3,fp,-112
     590:	e0bfe317 	ldw	r2,-116(fp)
     594:	1885883a 	add	r2,r3,r2
     598:	10800003 	ldbu	r2,0(r2)
     59c:	10803fcc 	andi	r2,r2,255
     5a0:	1080201c 	xori	r2,r2,128
     5a4:	10bfe004 	addi	r2,r2,-128
     5a8:	103fec1e 	bne	r2,zero,55c <__alt_mem_VGA_Subsystem_Char_Buf_Subsystem_Onchip_SRAM+0xf700055c>
    {
        send_ascii(buffer[i]);
    }
    usleep(1000);
     5ac:	0100fa04 	movi	r4,1000
     5b0:	00120500 	call	12050 <usleep>
    send_ascii(0x0D);
     5b4:	01000344 	movi	r4,13
     5b8:	00004940 	call	494 <send_ascii>
}
     5bc:	0001883a 	nop
     5c0:	e037883a 	mov	sp,fp
     5c4:	dfc00117 	ldw	ra,4(sp)
     5c8:	df000017 	ldw	fp,0(sp)
     5cc:	dec00204 	addi	sp,sp,8
     5d0:	f800283a 	ret

000005d4 <RD_Ascii>:

int RD_Ascii()
{
     5d4:	defffe04 	addi	sp,sp,-8
     5d8:	dfc00115 	stw	ra,4(sp)
     5dc:	df000015 	stw	fp,0(sp)
     5e0:	d839883a 	mov	fp,sp
    IOWR_ALTERA_AVALON_UART_Load(0);
     5e4:	0007883a 	mov	r3,zero
     5e8:	00810034 	movhi	r2,1024
     5ec:	10c00035 	stwio	r3,0(r2)
    usleep(1000);
     5f0:	0100fa04 	movi	r4,1000
     5f4:	00120500 	call	12050 <usleep>
    return IORD_ALTERA_AVALON_UART_Rx_ASCii();
     5f8:	00810034 	movhi	r2,1024
     5fc:	10800204 	addi	r2,r2,8
     600:	10800037 	ldwio	r2,0(r2)
}
     604:	e037883a 	mov	sp,fp
     608:	dfc00117 	ldw	ra,4(sp)
     60c:	df000017 	ldw	fp,0(sp)
     610:	dec00204 	addi	sp,sp,8
     614:	f800283a 	ret

00000618 <traitement_donnees_distance>:

void traitement_donnees_distance(unsigned int *distance,unsigned int *moyenne_distance,unsigned int *Buffer_6_HEX,unsigned int *somme_distance,unsigned int *nb_valeurs_valides,unsigned int *nb_valeurs_aberrantes )
{
     618:	defff904 	addi	sp,sp,-28
     61c:	dfc00615 	stw	ra,24(sp)
     620:	df000515 	stw	fp,20(sp)
     624:	df000504 	addi	fp,sp,20
     628:	e13ffc15 	stw	r4,-16(fp)
     62c:	e17ffd15 	stw	r5,-12(fp)
     630:	e1bffe15 	stw	r6,-8(fp)
     634:	e1ffff15 	stw	r7,-4(fp)
    *somme_distance = 0;
     638:	e0bfff17 	ldw	r2,-4(fp)
     63c:	10000015 	stw	zero,0(r2)
    *nb_valeurs_valides = 0;
     640:	e0800217 	ldw	r2,8(fp)
     644:	10000015 	stw	zero,0(r2)
    *nb_valeurs_aberrantes = 0;
     648:	e0800317 	ldw	r2,12(fp)
     64c:	10000015 	stw	zero,0(r2)

    // Lecture des distances
    for (int i = 0; i < NB_PRELEVEMENTS; i++)
     650:	e03ffb15 	stw	zero,-20(fp)
     654:	00002106 	br	6dc <traitement_donnees_distance+0xc4>
    {
        *distance = IORD_ALTERA_AVALON_TELEMETRE();
     658:	00810034 	movhi	r2,1024
     65c:	10800604 	addi	r2,r2,24
     660:	10800037 	ldwio	r2,0(r2)
     664:	10c0ffcc 	andi	r3,r2,1023
     668:	e0bffc17 	ldw	r2,-16(fp)
     66c:	10c00015 	stw	r3,0(r2)
        if (*distance > SEUIL_ABERRANT)
     670:	e0bffc17 	ldw	r2,-16(fp)
     674:	10800017 	ldw	r2,0(r2)
     678:	10803ef0 	cmpltui	r2,r2,251
     67c:	1000061e 	bne	r2,zero,698 <traitement_donnees_distance+0x80>
        {
            (*nb_valeurs_aberrantes)++;
     680:	e0800317 	ldw	r2,12(fp)
     684:	10800017 	ldw	r2,0(r2)
     688:	10c00044 	addi	r3,r2,1
     68c:	e0800317 	ldw	r2,12(fp)
     690:	10c00015 	stw	r3,0(r2)
     694:	00000c06 	br	6c8 <traitement_donnees_distance+0xb0>
        }
        else
        {
            *somme_distance += *distance;
     698:	e0bfff17 	ldw	r2,-4(fp)
     69c:	10c00017 	ldw	r3,0(r2)
     6a0:	e0bffc17 	ldw	r2,-16(fp)
     6a4:	10800017 	ldw	r2,0(r2)
     6a8:	1887883a 	add	r3,r3,r2
     6ac:	e0bfff17 	ldw	r2,-4(fp)
     6b0:	10c00015 	stw	r3,0(r2)
            (*nb_valeurs_valides)++;
     6b4:	e0800217 	ldw	r2,8(fp)
     6b8:	10800017 	ldw	r2,0(r2)
     6bc:	10c00044 	addi	r3,r2,1
     6c0:	e0800217 	ldw	r2,8(fp)
     6c4:	10c00015 	stw	r3,0(r2)
        }
        usleep(1000);
     6c8:	0100fa04 	movi	r4,1000
     6cc:	00120500 	call	12050 <usleep>
    *somme_distance = 0;
    *nb_valeurs_valides = 0;
    *nb_valeurs_aberrantes = 0;

    // Lecture des distances
    for (int i = 0; i < NB_PRELEVEMENTS; i++)
     6d0:	e0bffb17 	ldw	r2,-20(fp)
     6d4:	10800044 	addi	r2,r2,1
     6d8:	e0bffb15 	stw	r2,-20(fp)
     6dc:	e0bffb17 	ldw	r2,-20(fp)
     6e0:	10800810 	cmplti	r2,r2,32
     6e4:	103fdc1e 	bne	r2,zero,658 <__alt_mem_VGA_Subsystem_Char_Buf_Subsystem_Onchip_SRAM+0xf7000658>
        }
        usleep(1000);
    }

    // Calcul de la distance moyenne
    if (*nb_valeurs_aberrantes > NB_PRELEVEMENTS / 5 || *nb_valeurs_valides == 0)
     6e8:	e0800317 	ldw	r2,12(fp)
     6ec:	10800017 	ldw	r2,0(r2)
     6f0:	108001e8 	cmpgeui	r2,r2,7
     6f4:	1000031e 	bne	r2,zero,704 <traitement_donnees_distance+0xec>
     6f8:	e0800217 	ldw	r2,8(fp)
     6fc:	10800017 	ldw	r2,0(r2)
     700:	1000031e 	bne	r2,zero,710 <traitement_donnees_distance+0xf8>
    {
        *moyenne_distance = 0;
     704:	e0bffd17 	ldw	r2,-12(fp)
     708:	10000015 	stw	zero,0(r2)
     70c:	00000a06 	br	738 <traitement_donnees_distance+0x120>
    }
    else
    {
        *moyenne_distance = *somme_distance / *nb_valeurs_valides;
     710:	e0bfff17 	ldw	r2,-4(fp)
     714:	10c00017 	ldw	r3,0(r2)
     718:	e0800217 	ldw	r2,8(fp)
     71c:	10800017 	ldw	r2,0(r2)
     720:	100b883a 	mov	r5,r2
     724:	1809883a 	mov	r4,r3
     728:	0000df80 	call	df8 <__udivsi3>
     72c:	1007883a 	mov	r3,r2
     730:	e0bffd17 	ldw	r2,-12(fp)
     734:	10c00015 	stw	r3,0(r2)
    }
}
     738:	0001883a 	nop
     73c:	e037883a 	mov	sp,fp
     740:	dfc00117 	ldw	ra,4(sp)
     744:	df000017 	ldw	fp,0(sp)
     748:	dec00204 	addi	sp,sp,8
     74c:	f800283a 	ret

00000750 <Maj_donnees_UART>:

void Maj_donnees_UART()
{
     750:	defffc04 	addi	sp,sp,-16
     754:	dfc00315 	stw	ra,12(sp)
     758:	df000215 	stw	fp,8(sp)
     75c:	df000204 	addi	fp,sp,8
    int received_char = RD_Ascii();		// Lecture instruction a la volee
     760:	00005d40 	call	5d4 <RD_Ascii>
     764:	e0bffe15 	stw	r2,-8(fp)

    // Maj Vitesse
    if (received_char >= '0' && received_char <= '9')
     768:	e0bffe17 	ldw	r2,-8(fp)
     76c:	10800c10 	cmplti	r2,r2,48
     770:	10000f1e 	bne	r2,zero,7b0 <Maj_donnees_UART+0x60>
     774:	e0bffe17 	ldw	r2,-8(fp)
     778:	10800e88 	cmpgei	r2,r2,58
     77c:	10000c1e 	bne	r2,zero,7b0 <Maj_donnees_UART+0x60>
    {
        vitesse = received_char - '0';
     780:	e0bffe17 	ldw	r2,-8(fp)
     784:	10bff404 	addi	r2,r2,-48
     788:	d0a00215 	stw	r2,-32760(gp)
        if (vitesse < 0) vitesse = 0;
     78c:	d0a00217 	ldw	r2,-32760(gp)
     790:	1000010e 	bge	r2,zero,798 <Maj_donnees_UART+0x48>
     794:	d0200215 	stw	zero,-32760(gp)
        if (vitesse > 9) vitesse = 9;
     798:	d0a00217 	ldw	r2,-32760(gp)
     79c:	10800290 	cmplti	r2,r2,10
     7a0:	10001c1e 	bne	r2,zero,814 <Maj_donnees_UART+0xc4>
     7a4:	00800244 	movi	r2,9
     7a8:	d0a00215 	stw	r2,-32760(gp)
     7ac:	00001906 	br	814 <Maj_donnees_UART+0xc4>
    }

    // Maj Angle_min
    else if (received_char >= 'a' && received_char <= 'z')
     7b0:	e0bffe17 	ldw	r2,-8(fp)
     7b4:	10801850 	cmplti	r2,r2,97
     7b8:	10000a1e 	bne	r2,zero,7e4 <Maj_donnees_UART+0x94>
     7bc:	e0bffe17 	ldw	r2,-8(fp)
     7c0:	10801ec8 	cmpgei	r2,r2,123
     7c4:	1000071e 	bne	r2,zero,7e4 <Maj_donnees_UART+0x94>
    {
    	angle_min = (received_char - 'a') * 10;
     7c8:	e0bffe17 	ldw	r2,-8(fp)
     7cc:	10bfe7c4 	addi	r2,r2,-97
     7d0:	01400284 	movi	r5,10
     7d4:	1009883a 	mov	r4,r2
     7d8:	0000eb40 	call	eb4 <__mulsi3>
     7dc:	d0a72615 	stw	r2,-25448(gp)
     7e0:	00000c06 	br	814 <Maj_donnees_UART+0xc4>
    }
    // Maj Angle_max
    else if (received_char >= 'A' && received_char <= 'Z')
     7e4:	e0bffe17 	ldw	r2,-8(fp)
     7e8:	10801050 	cmplti	r2,r2,65
     7ec:	1000091e 	bne	r2,zero,814 <Maj_donnees_UART+0xc4>
     7f0:	e0bffe17 	ldw	r2,-8(fp)
     7f4:	108016c8 	cmpgei	r2,r2,91
     7f8:	1000061e 	bne	r2,zero,814 <Maj_donnees_UART+0xc4>
    {
    	angle_max = (received_char - 'A') * 10;
     7fc:	e0bffe17 	ldw	r2,-8(fp)
     800:	10bfefc4 	addi	r2,r2,-65
     804:	01400284 	movi	r5,10
     808:	1009883a 	mov	r4,r2
     80c:	0000eb40 	call	eb4 <__mulsi3>
     810:	d0a00115 	stw	r2,-32764(gp)
    }

    if (angle_max > ANGLE_MAX)
     814:	d0a00117 	ldw	r2,-32764(gp)
     818:	10802d50 	cmplti	r2,r2,181
     81c:	1000021e 	bne	r2,zero,828 <Maj_donnees_UART+0xd8>
        {
    		angle_max  = ANGLE_MAX;
     820:	00802d04 	movi	r2,180
     824:	d0a00115 	stw	r2,-32764(gp)
        }

    if (angle_min > ANGLE_MAX)
     828:	d0a72617 	ldw	r2,-25448(gp)
     82c:	10802d50 	cmplti	r2,r2,181
     830:	1000021e 	bne	r2,zero,83c <Maj_donnees_UART+0xec>
            {
        		angle_min  = ANGLE_MAX;
     834:	00802d04 	movi	r2,180
     838:	d0a72615 	stw	r2,-25448(gp)
            }

    //Check up borne
    if (angle_min > angle_max)
     83c:	d0a72617 	ldw	r2,-25448(gp)
     840:	d0e00117 	ldw	r3,-32764(gp)
     844:	1880060e 	bge	r3,r2,860 <Maj_donnees_UART+0x110>
    {
        int temp  = angle_min;
     848:	d0a72617 	ldw	r2,-25448(gp)
     84c:	e0bfff15 	stw	r2,-4(fp)
        angle_min = angle_max;
     850:	d0a00117 	ldw	r2,-32764(gp)
     854:	d0a72615 	stw	r2,-25448(gp)
        angle_max = temp;
     858:	e0bfff17 	ldw	r2,-4(fp)
     85c:	d0a00115 	stw	r2,-32764(gp)
    }
}
     860:	0001883a 	nop
     864:	e037883a 	mov	sp,fp
     868:	dfc00117 	ldw	ra,4(sp)
     86c:	df000017 	ldw	fp,0(sp)
     870:	dec00204 	addi	sp,sp,8
     874:	f800283a 	ret

00000878 <main>:

int main()
{
     878:	deffe704 	addi	sp,sp,-100
     87c:	dfc01815 	stw	ra,96(sp)
     880:	df001715 	stw	fp,92(sp)
     884:	dd001615 	stw	r20,88(sp)
     888:	dcc01515 	stw	r19,84(sp)
     88c:	dc801415 	stw	r18,80(sp)
     890:	dc401315 	stw	r17,76(sp)
     894:	dc001215 	stw	r16,72(sp)
     898:	df001704 	addi	fp,sp,92
	// Pause de demarrage
	IOWR_ALTERA_AVALON_NEOPIXEL(angle);
     89c:	d0e72717 	ldw	r3,-25444(gp)
     8a0:	00810034 	movhi	r2,1024
     8a4:	10800504 	addi	r2,r2,20
     8a8:	10c00035 	stwio	r3,0(r2)
	IOWR_ALTERA_AVALON_SERVOMOTEUR(angle);
     8ac:	d0e72717 	ldw	r3,-25444(gp)
     8b0:	00810034 	movhi	r2,1024
     8b4:	10800704 	addi	r2,r2,28
     8b8:	10c0002d 	sthio	r3,0(r2)
	usleep(1800000);
     8bc:	010006f4 	movhi	r4,27
     8c0:	211dd004 	addi	r4,r4,30528
     8c4:	00120500 	call	12050 <usleep>
	unsigned int distance = 0;                    // Distance brute mesuree
     8c8:	e03ff015 	stw	zero,-64(fp)
	unsigned int moyenne_distance = 0;            // Moyenne des distances
     8cc:	e03ff115 	stw	zero,-60(fp)
	unsigned int Buffer_6_HEX[6] = {0};           // Buffer pour l affichage
     8d0:	e03ff215 	stw	zero,-56(fp)
     8d4:	e03ff315 	stw	zero,-52(fp)
     8d8:	e03ff415 	stw	zero,-48(fp)
     8dc:	e03ff515 	stw	zero,-44(fp)
     8e0:	e03ff615 	stw	zero,-40(fp)
     8e4:	e03ff715 	stw	zero,-36(fp)
	unsigned int somme_distance = 0;              // Somme des distances valides
     8e8:	e03ff815 	stw	zero,-32(fp)
	unsigned int nb_valeurs_valides = 0;          // Nombre de valeurs valides
     8ec:	e03ff915 	stw	zero,-28(fp)
	unsigned int nb_valeurs_aberrantes = 0;       // Compteur de valeurs aberrantes
     8f0:	e03ffa15 	stw	zero,-24(fp)

	// Initialisation de l affichage
	init_affichage();
     8f4:	00003140 	call	314 <init_affichage>

    const char *word = "Radar_Vlad";
     8f8:	00800074 	movhi	r2,1
     8fc:	1091d904 	addi	r2,r2,18276
     900:	e0bfef15 	stw	r2,-68(fp)

    while (1)
    {
    	// Reset pour les calculs de ditstance
    	somme_distance = 0;
     904:	e03ff815 	stw	zero,-32(fp)
	    nb_valeurs_valides = 0;
     908:	e03ff915 	stw	zero,-28(fp)
	    nb_valeurs_aberrantes = 0;
     90c:	e03ffa15 	stw	zero,-24(fp)

	    // Lecture des distances
	    traitement_donnees_distance(&distance, &moyenne_distance, Buffer_6_HEX, &somme_distance, &nb_valeurs_valides, &nb_valeurs_aberrantes);
     910:	e1bff804 	addi	r6,fp,-32
     914:	e17ff204 	addi	r5,fp,-56
     918:	e13ff104 	addi	r4,fp,-60
     91c:	e0fff004 	addi	r3,fp,-64
     920:	e0bffa04 	addi	r2,fp,-24
     924:	d8800115 	stw	r2,4(sp)
     928:	e0bff904 	addi	r2,fp,-28
     92c:	d8800015 	stw	r2,0(sp)
     930:	300f883a 	mov	r7,r6
     934:	280d883a 	mov	r6,r5
     938:	200b883a 	mov	r5,r4
     93c:	1809883a 	mov	r4,r3
     940:	00006180 	call	618 <traitement_donnees_distance>

	    // Mise a jour de l affichage
	    for (int i = 0; i < 3; i++)
     944:	e03fed15 	stw	zero,-76(fp)
     948:	00002006 	br	9cc <main+0x154>
	    {
	  	    Buffer_6_HEX[5 - i] = table_sept_seg[(moyenne_distance / puissance_10[i]) % 10];
     94c:	00c00144 	movi	r3,5
     950:	e0bfed17 	ldw	r2,-76(fp)
     954:	18a1c83a 	sub	r16,r3,r2
     958:	e13ff117 	ldw	r4,-60(fp)
     95c:	00800074 	movhi	r2,1
     960:	1092f904 	addi	r2,r2,19428
     964:	e0ffed17 	ldw	r3,-76(fp)
     968:	18c7883a 	add	r3,r3,r3
     96c:	18c7883a 	add	r3,r3,r3
     970:	10c5883a 	add	r2,r2,r3
     974:	10800017 	ldw	r2,0(r2)
     978:	100b883a 	mov	r5,r2
     97c:	0000df80 	call	df8 <__udivsi3>
     980:	01400284 	movi	r5,10
     984:	1009883a 	mov	r4,r2
     988:	0000e5c0 	call	e5c <__umodsi3>
     98c:	1007883a 	mov	r3,r2
     990:	00800074 	movhi	r2,1
     994:	1092e904 	addi	r2,r2,19364
     998:	18c7883a 	add	r3,r3,r3
     99c:	18c7883a 	add	r3,r3,r3
     9a0:	10c5883a 	add	r2,r2,r3
     9a4:	10c00017 	ldw	r3,0(r2)
     9a8:	8405883a 	add	r2,r16,r16
     9ac:	1085883a 	add	r2,r2,r2
     9b0:	e13fed04 	addi	r4,fp,-76
     9b4:	2085883a 	add	r2,r4,r2
     9b8:	10800504 	addi	r2,r2,20
     9bc:	10c00015 	stw	r3,0(r2)

	    // Lecture des distances
	    traitement_donnees_distance(&distance, &moyenne_distance, Buffer_6_HEX, &somme_distance, &nb_valeurs_valides, &nb_valeurs_aberrantes);

	    // Mise a jour de l affichage
	    for (int i = 0; i < 3; i++)
     9c0:	e0bfed17 	ldw	r2,-76(fp)
     9c4:	10800044 	addi	r2,r2,1
     9c8:	e0bfed15 	stw	r2,-76(fp)
     9cc:	e0bfed17 	ldw	r2,-76(fp)
     9d0:	108000d0 	cmplti	r2,r2,3
     9d4:	103fdd1e 	bne	r2,zero,94c <__alt_mem_VGA_Subsystem_Char_Buf_Subsystem_Onchip_SRAM+0xf700094c>
	  	    Buffer_6_HEX[5 - i] = table_sept_seg[(moyenne_distance / puissance_10[i]) % 10];
	    }

	 // MAJ donnees UART
	    // MAJ UART
        Maj_donnees_UART();
     9d8:	00007500 	call	750 <Maj_donnees_UART>
        envoi_terminal_externe(word, angle, moyenne_distance);
     9dc:	d0a72717 	ldw	r2,-25444(gp)
     9e0:	e0fff117 	ldw	r3,-60(fp)
     9e4:	180d883a 	mov	r6,r3
     9e8:	100b883a 	mov	r5,r2
     9ec:	e13fef17 	ldw	r4,-68(fp)
     9f0:	00004f40 	call	4f4 <envoi_terminal_externe>

        float progression = 0;
     9f4:	e03fee15 	stw	zero,-72(fp)
        if (angle_max != angle_min)
     9f8:	d0e00117 	ldw	r3,-32764(gp)
     9fc:	d0a72617 	ldw	r2,-25448(gp)
     a00:	18801126 	beq	r3,r2,a48 <main+0x1d0>
        {
            progression = ((float)(angle - angle_min) / (angle_max - angle_min)) * 100; // Calcul de la progression en pourcentage
     a04:	d0e72717 	ldw	r3,-25444(gp)
     a08:	d0a72617 	ldw	r2,-25448(gp)
     a0c:	1885c83a 	sub	r2,r3,r2
     a10:	1009883a 	mov	r4,r2
     a14:	0000f4c0 	call	f4c <__floatsisf>
     a18:	1021883a 	mov	r16,r2
     a1c:	d0e00117 	ldw	r3,-32764(gp)
     a20:	d0a72617 	ldw	r2,-25448(gp)
     a24:	1885c83a 	sub	r2,r3,r2
     a28:	1009883a 	mov	r4,r2
     a2c:	0000f4c0 	call	f4c <__floatsisf>
     a30:	1007883a 	mov	r3,r2
     a34:	80c7fff2 	custom	255,r3,r16,r3
     a38:	0090b234 	movhi	r2,17096
     a3c:	1885ff32 	custom	252,r2,r3,r2
     a40:	e0bfee15 	stw	r2,-72(fp)
     a44:	00000106 	br	a4c <main+0x1d4>
        }
        else
        {
            progression = 0; // Eviter la division par zero
     a48:	e03fee15 	stw	zero,-72(fp)
        }

        printf("Valeur Angulaire = %d.0 --> [ %d ; %d ] \t Progression = %.1f%%  Nb_NeoPixel_Led = %d \tDistance Moyenne Telemetre = %d cm\n", angle, angle_min,angle_max, progression, (int)(progression / 100 * 12), moyenne_distance);
     a4c:	d4a72717 	ldw	r18,-25444(gp)
     a50:	d4e72617 	ldw	r19,-25448(gp)
     a54:	d5200117 	ldw	r20,-32764(gp)
     a58:	e13fee17 	ldw	r4,-72(fp)
     a5c:	00010700 	call	1070 <__extendsfdf2>
     a60:	1021883a 	mov	r16,r2
     a64:	1823883a 	mov	r17,r3
     a68:	e0ffee17 	ldw	r3,-72(fp)
     a6c:	0090b234 	movhi	r2,17096
     a70:	1887fff2 	custom	255,r3,r3,r2
     a74:	00905034 	movhi	r2,16704
     a78:	1885ff32 	custom	252,r2,r3,r2
     a7c:	1009883a 	mov	r4,r2
     a80:	0000edc0 	call	edc <__fixsfsi>
     a84:	1007883a 	mov	r3,r2
     a88:	e0bff117 	ldw	r2,-60(fp)
     a8c:	d8800315 	stw	r2,12(sp)
     a90:	d8c00215 	stw	r3,8(sp)
     a94:	dc000015 	stw	r16,0(sp)
     a98:	dc400115 	stw	r17,4(sp)
     a9c:	a00f883a 	mov	r7,r20
     aa0:	980d883a 	mov	r6,r19
     aa4:	900b883a 	mov	r5,r18
     aa8:	01000074 	movhi	r4,1
     aac:	2111dc04 	addi	r4,r4,18288
     ab0:	00012140 	call	1214 <printf>

        IOWR_16DIRECT(AVALON_SERVOMOTEUR_BASE, 0, angle * 10);
     ab4:	d0a72717 	ldw	r2,-25444(gp)
     ab8:	01400284 	movi	r5,10
     abc:	1009883a 	mov	r4,r2
     ac0:	0000eb40 	call	eb4 <__mulsi3>
     ac4:	1007883a 	mov	r3,r2
     ac8:	00810034 	movhi	r2,1024
     acc:	10800704 	addi	r2,r2,28
     ad0:	10c0002d 	sthio	r3,0(r2)
        IOWR_ALTERA_AVALON_NEOPIXEL((int)(progression / 100 * 12)); // Assurez-vous que la valeur ne dpasse pas 12
     ad4:	e0ffee17 	ldw	r3,-72(fp)
     ad8:	0090b234 	movhi	r2,17096
     adc:	1887fff2 	custom	255,r3,r3,r2
     ae0:	00905034 	movhi	r2,16704
     ae4:	1885ff32 	custom	252,r2,r3,r2
     ae8:	1009883a 	mov	r4,r2
     aec:	0000edc0 	call	edc <__fixsfsi>
     af0:	1007883a 	mov	r3,r2
     af4:	00810034 	movhi	r2,1024
     af8:	10800504 	addi	r2,r2,20
     afc:	10c00035 	stwio	r3,0(r2)
        usleep(15000 + (15000 * (8-vitesse)));
     b00:	d0a00217 	ldw	r2,-32760(gp)
     b04:	00c00244 	movi	r3,9
     b08:	1885c83a 	sub	r2,r3,r2
     b0c:	014ea604 	movi	r5,15000
     b10:	1009883a 	mov	r4,r2
     b14:	0000eb40 	call	eb4 <__mulsi3>
     b18:	1009883a 	mov	r4,r2
     b1c:	00120500 	call	12050 <usleep>
        if (angle < angle_max && angle >= angle_min)
     b20:	d0e72717 	ldw	r3,-25444(gp)
     b24:	d0a00117 	ldw	r2,-32764(gp)
     b28:	1880320e 	bge	r3,r2,bf4 <main+0x37c>
     b2c:	d0e72717 	ldw	r3,-25444(gp)
     b30:	d0a72617 	ldw	r2,-25448(gp)
     b34:	18802f16 	blt	r3,r2,bf4 <main+0x37c>
            {
                angle ++;
     b38:	d0a72717 	ldw	r2,-25444(gp)
     b3c:	10800044 	addi	r2,r2,1
     b40:	d0a72715 	stw	r2,-25444(gp)
                // MAJ Afficheur 7 seg
				Buffer_6_HEX[2] = 0x63; // Caractere "" pour l affichage
     b44:	008018c4 	movi	r2,99
     b48:	e0bff415 	stw	r2,-48(fp)
				Buffer_6_HEX[1] = table_sept_seg[(angle / puissance_10[0]) % 10];
     b4c:	d0a72717 	ldw	r2,-25444(gp)
     b50:	1007883a 	mov	r3,r2
     b54:	00800074 	movhi	r2,1
     b58:	1092f904 	addi	r2,r2,19428
     b5c:	10800017 	ldw	r2,0(r2)
     b60:	100b883a 	mov	r5,r2
     b64:	1809883a 	mov	r4,r3
     b68:	0000df80 	call	df8 <__udivsi3>
     b6c:	01400284 	movi	r5,10
     b70:	1009883a 	mov	r4,r2
     b74:	0000e5c0 	call	e5c <__umodsi3>
     b78:	1007883a 	mov	r3,r2
     b7c:	00800074 	movhi	r2,1
     b80:	1092e904 	addi	r2,r2,19364
     b84:	18c7883a 	add	r3,r3,r3
     b88:	18c7883a 	add	r3,r3,r3
     b8c:	10c5883a 	add	r2,r2,r3
     b90:	10800017 	ldw	r2,0(r2)
     b94:	e0bff315 	stw	r2,-52(fp)
				Buffer_6_HEX[0] = table_sept_seg[(angle / puissance_10[1]) % 10];
     b98:	d0a72717 	ldw	r2,-25444(gp)
     b9c:	1007883a 	mov	r3,r2
     ba0:	00800074 	movhi	r2,1
     ba4:	1092f904 	addi	r2,r2,19428
     ba8:	10800117 	ldw	r2,4(r2)
     bac:	100b883a 	mov	r5,r2
     bb0:	1809883a 	mov	r4,r3
     bb4:	0000df80 	call	df8 <__udivsi3>
     bb8:	01400284 	movi	r5,10
     bbc:	1009883a 	mov	r4,r2
     bc0:	0000e5c0 	call	e5c <__umodsi3>
     bc4:	1007883a 	mov	r3,r2
     bc8:	00800074 	movhi	r2,1
     bcc:	1092e904 	addi	r2,r2,19364
     bd0:	18c7883a 	add	r3,r3,r3
     bd4:	18c7883a 	add	r3,r3,r3
     bd8:	10c5883a 	add	r2,r2,r3
     bdc:	10800017 	ldw	r2,0(r2)
     be0:	e0bff215 	stw	r2,-56(fp)
				update_display (Buffer_6_HEX);
     be4:	e0bff204 	addi	r2,fp,-56
     be8:	1009883a 	mov	r4,r2
     bec:	000026c0 	call	26c <update_display>
     bf0:	00004206 	br	cfc <main+0x484>
            }
        else
            {
        		// Elements manuels
				IOWR_ALTERA_AVALON_NEOPIXEL(12); // 100% Retour depot
     bf4:	00c00304 	movi	r3,12
     bf8:	00810034 	movhi	r2,1024
     bfc:	10800504 	addi	r2,r2,20
     c00:	10c00035 	stwio	r3,0(r2)
        		usleep(140000);
     c04:	010000b4 	movhi	r4,2
     c08:	2108b804 	addi	r4,r4,8928
     c0c:	00120500 	call	12050 <usleep>
		        printf("Valeur Angulaire = %d.0 --> [ %d ; %d ] \t Progression = %.1f%%  Nb_NeoPixel_Led = %d \tDistance Moyenne Telemetre = %d cm\n", angle, angle_min,angle_max, progression, (int)(progression / 100 * 12), moyenne_distance);
     c10:	d4a72717 	ldw	r18,-25444(gp)
     c14:	d4e72617 	ldw	r19,-25448(gp)
     c18:	d5200117 	ldw	r20,-32764(gp)
     c1c:	e13fee17 	ldw	r4,-72(fp)
     c20:	00010700 	call	1070 <__extendsfdf2>
     c24:	1021883a 	mov	r16,r2
     c28:	1823883a 	mov	r17,r3
     c2c:	e0ffee17 	ldw	r3,-72(fp)
     c30:	0090b234 	movhi	r2,17096
     c34:	1887fff2 	custom	255,r3,r3,r2
     c38:	00905034 	movhi	r2,16704
     c3c:	1885ff32 	custom	252,r2,r3,r2
     c40:	1009883a 	mov	r4,r2
     c44:	0000edc0 	call	edc <__fixsfsi>
     c48:	1007883a 	mov	r3,r2
     c4c:	e0bff117 	ldw	r2,-60(fp)
     c50:	d8800315 	stw	r2,12(sp)
     c54:	d8c00215 	stw	r3,8(sp)
     c58:	dc000015 	stw	r16,0(sp)
     c5c:	dc400115 	stw	r17,4(sp)
     c60:	a00f883a 	mov	r7,r20
     c64:	980d883a 	mov	r6,r19
     c68:	900b883a 	mov	r5,r18
     c6c:	01000074 	movhi	r4,1
     c70:	2111dc04 	addi	r4,r4,18288
     c74:	00012140 	call	1214 <printf>
				angle = angle_min;
     c78:	d0a72617 	ldw	r2,-25448(gp)
     c7c:	d0a72715 	stw	r2,-25444(gp)
				IOWR_16DIRECT(AVALON_SERVOMOTEUR_BASE, 0, ((angle_min+angle_max)/2) * 10);
     c80:	d0e72617 	ldw	r3,-25448(gp)
     c84:	d0a00117 	ldw	r2,-32764(gp)
     c88:	1885883a 	add	r2,r3,r2
     c8c:	1006d7fa 	srli	r3,r2,31
     c90:	1885883a 	add	r2,r3,r2
     c94:	1005d07a 	srai	r2,r2,1
     c98:	01400284 	movi	r5,10
     c9c:	1009883a 	mov	r4,r2
     ca0:	0000eb40 	call	eb4 <__mulsi3>
     ca4:	1007883a 	mov	r3,r2
     ca8:	00810034 	movhi	r2,1024
     cac:	10800704 	addi	r2,r2,28
     cb0:	10c0002d 	sthio	r3,0(r2)
				usleep(140000);
     cb4:	010000b4 	movhi	r4,2
     cb8:	2108b804 	addi	r4,r4,8928
     cbc:	00120500 	call	12050 <usleep>
				IOWR_16DIRECT(AVALON_SERVOMOTEUR_BASE, 0, angle_min * 10);
     cc0:	d0a72617 	ldw	r2,-25448(gp)
     cc4:	01400284 	movi	r5,10
     cc8:	1009883a 	mov	r4,r2
     ccc:	0000eb40 	call	eb4 <__mulsi3>
     cd0:	1007883a 	mov	r3,r2
     cd4:	00810034 	movhi	r2,1024
     cd8:	10800704 	addi	r2,r2,28
     cdc:	10c0002d 	sthio	r3,0(r2)
				usleep(140000);
     ce0:	010000b4 	movhi	r4,2
     ce4:	2108b804 	addi	r4,r4,8928
     ce8:	00120500 	call	12050 <usleep>
				IOWR_ALTERA_AVALON_NEOPIXEL(0);
     cec:	0007883a 	mov	r3,zero
     cf0:	00810034 	movhi	r2,1024
     cf4:	10800504 	addi	r2,r2,20
     cf8:	10c00035 	stwio	r3,0(r2)
            }
    }
     cfc:	003f0106 	br	904 <__alt_mem_VGA_Subsystem_Char_Buf_Subsystem_Onchip_SRAM+0xf7000904>

00000d00 <__divsi3>:
     d00:	20001b16 	blt	r4,zero,d70 <__divsi3+0x70>
     d04:	000f883a 	mov	r7,zero
     d08:	28001616 	blt	r5,zero,d64 <__divsi3+0x64>
     d0c:	200d883a 	mov	r6,r4
     d10:	29001a2e 	bgeu	r5,r4,d7c <__divsi3+0x7c>
     d14:	00800804 	movi	r2,32
     d18:	00c00044 	movi	r3,1
     d1c:	00000106 	br	d24 <__divsi3+0x24>
     d20:	10000d26 	beq	r2,zero,d58 <__divsi3+0x58>
     d24:	294b883a 	add	r5,r5,r5
     d28:	10bfffc4 	addi	r2,r2,-1
     d2c:	18c7883a 	add	r3,r3,r3
     d30:	293ffb36 	bltu	r5,r4,d20 <__alt_mem_VGA_Subsystem_Char_Buf_Subsystem_Onchip_SRAM+0xf7000d20>
     d34:	0005883a 	mov	r2,zero
     d38:	18000726 	beq	r3,zero,d58 <__divsi3+0x58>
     d3c:	0005883a 	mov	r2,zero
     d40:	31400236 	bltu	r6,r5,d4c <__divsi3+0x4c>
     d44:	314dc83a 	sub	r6,r6,r5
     d48:	10c4b03a 	or	r2,r2,r3
     d4c:	1806d07a 	srli	r3,r3,1
     d50:	280ad07a 	srli	r5,r5,1
     d54:	183ffa1e 	bne	r3,zero,d40 <__alt_mem_VGA_Subsystem_Char_Buf_Subsystem_Onchip_SRAM+0xf7000d40>
     d58:	38000126 	beq	r7,zero,d60 <__divsi3+0x60>
     d5c:	0085c83a 	sub	r2,zero,r2
     d60:	f800283a 	ret
     d64:	014bc83a 	sub	r5,zero,r5
     d68:	39c0005c 	xori	r7,r7,1
     d6c:	003fe706 	br	d0c <__alt_mem_VGA_Subsystem_Char_Buf_Subsystem_Onchip_SRAM+0xf7000d0c>
     d70:	0109c83a 	sub	r4,zero,r4
     d74:	01c00044 	movi	r7,1
     d78:	003fe306 	br	d08 <__alt_mem_VGA_Subsystem_Char_Buf_Subsystem_Onchip_SRAM+0xf7000d08>
     d7c:	00c00044 	movi	r3,1
     d80:	003fee06 	br	d3c <__alt_mem_VGA_Subsystem_Char_Buf_Subsystem_Onchip_SRAM+0xf7000d3c>

00000d84 <__modsi3>:
     d84:	20001716 	blt	r4,zero,de4 <__modsi3+0x60>
     d88:	000f883a 	mov	r7,zero
     d8c:	2005883a 	mov	r2,r4
     d90:	28001216 	blt	r5,zero,ddc <__modsi3+0x58>
     d94:	2900162e 	bgeu	r5,r4,df0 <__modsi3+0x6c>
     d98:	01800804 	movi	r6,32
     d9c:	00c00044 	movi	r3,1
     da0:	00000106 	br	da8 <__modsi3+0x24>
     da4:	30000a26 	beq	r6,zero,dd0 <__modsi3+0x4c>
     da8:	294b883a 	add	r5,r5,r5
     dac:	31bfffc4 	addi	r6,r6,-1
     db0:	18c7883a 	add	r3,r3,r3
     db4:	293ffb36 	bltu	r5,r4,da4 <__alt_mem_VGA_Subsystem_Char_Buf_Subsystem_Onchip_SRAM+0xf7000da4>
     db8:	18000526 	beq	r3,zero,dd0 <__modsi3+0x4c>
     dbc:	1806d07a 	srli	r3,r3,1
     dc0:	11400136 	bltu	r2,r5,dc8 <__modsi3+0x44>
     dc4:	1145c83a 	sub	r2,r2,r5
     dc8:	280ad07a 	srli	r5,r5,1
     dcc:	183ffb1e 	bne	r3,zero,dbc <__alt_mem_VGA_Subsystem_Char_Buf_Subsystem_Onchip_SRAM+0xf7000dbc>
     dd0:	38000126 	beq	r7,zero,dd8 <__modsi3+0x54>
     dd4:	0085c83a 	sub	r2,zero,r2
     dd8:	f800283a 	ret
     ddc:	014bc83a 	sub	r5,zero,r5
     de0:	003fec06 	br	d94 <__alt_mem_VGA_Subsystem_Char_Buf_Subsystem_Onchip_SRAM+0xf7000d94>
     de4:	0109c83a 	sub	r4,zero,r4
     de8:	01c00044 	movi	r7,1
     dec:	003fe706 	br	d8c <__alt_mem_VGA_Subsystem_Char_Buf_Subsystem_Onchip_SRAM+0xf7000d8c>
     df0:	00c00044 	movi	r3,1
     df4:	003ff106 	br	dbc <__alt_mem_VGA_Subsystem_Char_Buf_Subsystem_Onchip_SRAM+0xf7000dbc>

00000df8 <__udivsi3>:
     df8:	200d883a 	mov	r6,r4
     dfc:	2900152e 	bgeu	r5,r4,e54 <__udivsi3+0x5c>
     e00:	28001416 	blt	r5,zero,e54 <__udivsi3+0x5c>
     e04:	00800804 	movi	r2,32
     e08:	00c00044 	movi	r3,1
     e0c:	00000206 	br	e18 <__udivsi3+0x20>
     e10:	10000e26 	beq	r2,zero,e4c <__udivsi3+0x54>
     e14:	28000516 	blt	r5,zero,e2c <__udivsi3+0x34>
     e18:	294b883a 	add	r5,r5,r5
     e1c:	10bfffc4 	addi	r2,r2,-1
     e20:	18c7883a 	add	r3,r3,r3
     e24:	293ffa36 	bltu	r5,r4,e10 <__alt_mem_VGA_Subsystem_Char_Buf_Subsystem_Onchip_SRAM+0xf7000e10>
     e28:	18000826 	beq	r3,zero,e4c <__udivsi3+0x54>
     e2c:	0005883a 	mov	r2,zero
     e30:	31400236 	bltu	r6,r5,e3c <__udivsi3+0x44>
     e34:	314dc83a 	sub	r6,r6,r5
     e38:	10c4b03a 	or	r2,r2,r3
     e3c:	1806d07a 	srli	r3,r3,1
     e40:	280ad07a 	srli	r5,r5,1
     e44:	183ffa1e 	bne	r3,zero,e30 <__alt_mem_VGA_Subsystem_Char_Buf_Subsystem_Onchip_SRAM+0xf7000e30>
     e48:	f800283a 	ret
     e4c:	0005883a 	mov	r2,zero
     e50:	f800283a 	ret
     e54:	00c00044 	movi	r3,1
     e58:	003ff406 	br	e2c <__alt_mem_VGA_Subsystem_Char_Buf_Subsystem_Onchip_SRAM+0xf7000e2c>

00000e5c <__umodsi3>:
     e5c:	2005883a 	mov	r2,r4
     e60:	2900122e 	bgeu	r5,r4,eac <__umodsi3+0x50>
     e64:	28001116 	blt	r5,zero,eac <__umodsi3+0x50>
     e68:	01800804 	movi	r6,32
     e6c:	00c00044 	movi	r3,1
     e70:	00000206 	br	e7c <__umodsi3+0x20>
     e74:	30000c26 	beq	r6,zero,ea8 <__umodsi3+0x4c>
     e78:	28000516 	blt	r5,zero,e90 <__umodsi3+0x34>
     e7c:	294b883a 	add	r5,r5,r5
     e80:	31bfffc4 	addi	r6,r6,-1
     e84:	18c7883a 	add	r3,r3,r3
     e88:	293ffa36 	bltu	r5,r4,e74 <__alt_mem_VGA_Subsystem_Char_Buf_Subsystem_Onchip_SRAM+0xf7000e74>
     e8c:	18000626 	beq	r3,zero,ea8 <__umodsi3+0x4c>
     e90:	1806d07a 	srli	r3,r3,1
     e94:	11400136 	bltu	r2,r5,e9c <__umodsi3+0x40>
     e98:	1145c83a 	sub	r2,r2,r5
     e9c:	280ad07a 	srli	r5,r5,1
     ea0:	183ffb1e 	bne	r3,zero,e90 <__alt_mem_VGA_Subsystem_Char_Buf_Subsystem_Onchip_SRAM+0xf7000e90>
     ea4:	f800283a 	ret
     ea8:	f800283a 	ret
     eac:	00c00044 	movi	r3,1
     eb0:	003ff706 	br	e90 <__alt_mem_VGA_Subsystem_Char_Buf_Subsystem_Onchip_SRAM+0xf7000e90>

00000eb4 <__mulsi3>:
     eb4:	0005883a 	mov	r2,zero
     eb8:	20000726 	beq	r4,zero,ed8 <__mulsi3+0x24>
     ebc:	20c0004c 	andi	r3,r4,1
     ec0:	2008d07a 	srli	r4,r4,1
     ec4:	18000126 	beq	r3,zero,ecc <__mulsi3+0x18>
     ec8:	1145883a 	add	r2,r2,r5
     ecc:	294b883a 	add	r5,r5,r5
     ed0:	203ffa1e 	bne	r4,zero,ebc <__alt_mem_VGA_Subsystem_Char_Buf_Subsystem_Onchip_SRAM+0xf7000ebc>
     ed4:	f800283a 	ret
     ed8:	f800283a 	ret

00000edc <__fixsfsi>:
     edc:	200ad5fa 	srli	r5,r4,23
     ee0:	00c02034 	movhi	r3,128
     ee4:	18ffffc4 	addi	r3,r3,-1
     ee8:	29403fcc 	andi	r5,r5,255
     eec:	00801f84 	movi	r2,126
     ef0:	1906703a 	and	r3,r3,r4
     ef4:	2008d7fa 	srli	r4,r4,31
     ef8:	11400e0e 	bge	r2,r5,f34 <__fixsfsi+0x58>
     efc:	00802744 	movi	r2,157
     f00:	11400816 	blt	r2,r5,f24 <__fixsfsi+0x48>
     f04:	00802544 	movi	r2,149
     f08:	18c02034 	orhi	r3,r3,128
     f0c:	11400b0e 	bge	r2,r5,f3c <__fixsfsi+0x60>
     f10:	28bfda84 	addi	r2,r5,-150
     f14:	1884983a 	sll	r2,r3,r2
     f18:	20000726 	beq	r4,zero,f38 <__fixsfsi+0x5c>
     f1c:	0085c83a 	sub	r2,zero,r2
     f20:	f800283a 	ret
     f24:	00a00034 	movhi	r2,32768
     f28:	10bfffc4 	addi	r2,r2,-1
     f2c:	2085883a 	add	r2,r4,r2
     f30:	f800283a 	ret
     f34:	0005883a 	mov	r2,zero
     f38:	f800283a 	ret
     f3c:	00802584 	movi	r2,150
     f40:	1145c83a 	sub	r2,r2,r5
     f44:	1884d83a 	srl	r2,r3,r2
     f48:	003ff306 	br	f18 <__alt_mem_VGA_Subsystem_Char_Buf_Subsystem_Onchip_SRAM+0xf7000f18>

00000f4c <__floatsisf>:
     f4c:	defffd04 	addi	sp,sp,-12
     f50:	dfc00215 	stw	ra,8(sp)
     f54:	dc400115 	stw	r17,4(sp)
     f58:	dc000015 	stw	r16,0(sp)
     f5c:	20003526 	beq	r4,zero,1034 <__floatsisf+0xe8>
     f60:	2021883a 	mov	r16,r4
     f64:	2022d7fa 	srli	r17,r4,31
     f68:	20003616 	blt	r4,zero,1044 <__floatsisf+0xf8>
     f6c:	8009883a 	mov	r4,r16
     f70:	00011800 	call	1180 <__clzsi2>
     f74:	00c02784 	movi	r3,158
     f78:	1887c83a 	sub	r3,r3,r2
     f7c:	01002584 	movi	r4,150
     f80:	20c01416 	blt	r4,r3,fd4 <__floatsisf+0x88>
     f84:	20c9c83a 	sub	r4,r4,r3
     f88:	8120983a 	sll	r16,r16,r4
     f8c:	00802034 	movhi	r2,128
     f90:	10bfffc4 	addi	r2,r2,-1
     f94:	8809883a 	mov	r4,r17
     f98:	80a0703a 	and	r16,r16,r2
     f9c:	18803fcc 	andi	r2,r3,255
     fa0:	100695fa 	slli	r3,r2,23
     fa4:	20803fcc 	andi	r2,r4,255
     fa8:	100897fa 	slli	r4,r2,31
     fac:	00802034 	movhi	r2,128
     fb0:	10bfffc4 	addi	r2,r2,-1
     fb4:	8084703a 	and	r2,r16,r2
     fb8:	10c4b03a 	or	r2,r2,r3
     fbc:	1104b03a 	or	r2,r2,r4
     fc0:	dfc00217 	ldw	ra,8(sp)
     fc4:	dc400117 	ldw	r17,4(sp)
     fc8:	dc000017 	ldw	r16,0(sp)
     fcc:	dec00304 	addi	sp,sp,12
     fd0:	f800283a 	ret
     fd4:	01002644 	movi	r4,153
     fd8:	20c01c16 	blt	r4,r3,104c <__floatsisf+0x100>
     fdc:	20c9c83a 	sub	r4,r4,r3
     fe0:	8120983a 	sll	r16,r16,r4
     fe4:	013f0034 	movhi	r4,64512
     fe8:	213fffc4 	addi	r4,r4,-1
     fec:	814001cc 	andi	r5,r16,7
     ff0:	8108703a 	and	r4,r16,r4
     ff4:	28000426 	beq	r5,zero,1008 <__floatsisf+0xbc>
     ff8:	840003cc 	andi	r16,r16,15
     ffc:	01400104 	movi	r5,4
    1000:	81400126 	beq	r16,r5,1008 <__floatsisf+0xbc>
    1004:	2149883a 	add	r4,r4,r5
    1008:	2141002c 	andhi	r5,r4,1024
    100c:	28000526 	beq	r5,zero,1024 <__floatsisf+0xd8>
    1010:	00c027c4 	movi	r3,159
    1014:	1887c83a 	sub	r3,r3,r2
    1018:	00bf0034 	movhi	r2,64512
    101c:	10bfffc4 	addi	r2,r2,-1
    1020:	2088703a 	and	r4,r4,r2
    1024:	202091ba 	slli	r16,r4,6
    1028:	8809883a 	mov	r4,r17
    102c:	8020d27a 	srli	r16,r16,9
    1030:	003fda06 	br	f9c <__alt_mem_VGA_Subsystem_Char_Buf_Subsystem_Onchip_SRAM+0xf7000f9c>
    1034:	0009883a 	mov	r4,zero
    1038:	0007883a 	mov	r3,zero
    103c:	0021883a 	mov	r16,zero
    1040:	003fd606 	br	f9c <__alt_mem_VGA_Subsystem_Char_Buf_Subsystem_Onchip_SRAM+0xf7000f9c>
    1044:	0121c83a 	sub	r16,zero,r4
    1048:	003fc806 	br	f6c <__alt_mem_VGA_Subsystem_Char_Buf_Subsystem_Onchip_SRAM+0xf7000f6c>
    104c:	01002e44 	movi	r4,185
    1050:	20c9c83a 	sub	r4,r4,r3
    1054:	01400144 	movi	r5,5
    1058:	8108983a 	sll	r4,r16,r4
    105c:	288bc83a 	sub	r5,r5,r2
    1060:	8160d83a 	srl	r16,r16,r5
    1064:	2008c03a 	cmpne	r4,r4,zero
    1068:	8120b03a 	or	r16,r16,r4
    106c:	003fdd06 	br	fe4 <__alt_mem_VGA_Subsystem_Char_Buf_Subsystem_Onchip_SRAM+0xf7000fe4>

00001070 <__extendsfdf2>:
    1070:	200ad5fa 	srli	r5,r4,23
    1074:	defffd04 	addi	sp,sp,-12
    1078:	dc400115 	stw	r17,4(sp)
    107c:	29403fcc 	andi	r5,r5,255
    1080:	29800044 	addi	r6,r5,1
    1084:	04402034 	movhi	r17,128
    1088:	dc000015 	stw	r16,0(sp)
    108c:	8c7fffc4 	addi	r17,r17,-1
    1090:	dfc00215 	stw	ra,8(sp)
    1094:	31803fcc 	andi	r6,r6,255
    1098:	00800044 	movi	r2,1
    109c:	8922703a 	and	r17,r17,r4
    10a0:	2020d7fa 	srli	r16,r4,31
    10a4:	1180110e 	bge	r2,r6,10ec <__extendsfdf2+0x7c>
    10a8:	880cd0fa 	srli	r6,r17,3
    10ac:	8822977a 	slli	r17,r17,29
    10b0:	2940e004 	addi	r5,r5,896
    10b4:	2941ffcc 	andi	r5,r5,2047
    10b8:	2804953a 	slli	r2,r5,20
    10bc:	01400434 	movhi	r5,16
    10c0:	800697fa 	slli	r3,r16,31
    10c4:	297fffc4 	addi	r5,r5,-1
    10c8:	314a703a 	and	r5,r6,r5
    10cc:	288ab03a 	or	r5,r5,r2
    10d0:	28c6b03a 	or	r3,r5,r3
    10d4:	8805883a 	mov	r2,r17
    10d8:	dfc00217 	ldw	ra,8(sp)
    10dc:	dc400117 	ldw	r17,4(sp)
    10e0:	dc000017 	ldw	r16,0(sp)
    10e4:	dec00304 	addi	sp,sp,12
    10e8:	f800283a 	ret
    10ec:	2800111e 	bne	r5,zero,1134 <__extendsfdf2+0xc4>
    10f0:	88001c26 	beq	r17,zero,1164 <__extendsfdf2+0xf4>
    10f4:	8809883a 	mov	r4,r17
    10f8:	00011800 	call	1180 <__clzsi2>
    10fc:	00c00284 	movi	r3,10
    1100:	18801b16 	blt	r3,r2,1170 <__extendsfdf2+0x100>
    1104:	018002c4 	movi	r6,11
    1108:	308dc83a 	sub	r6,r6,r2
    110c:	11000544 	addi	r4,r2,21
    1110:	8986d83a 	srl	r3,r17,r6
    1114:	8922983a 	sll	r17,r17,r4
    1118:	0180e244 	movi	r6,905
    111c:	01400434 	movhi	r5,16
    1120:	3085c83a 	sub	r2,r6,r2
    1124:	297fffc4 	addi	r5,r5,-1
    1128:	194c703a 	and	r6,r3,r5
    112c:	1141ffcc 	andi	r5,r2,2047
    1130:	003fe006 	br	10b4 <__alt_mem_VGA_Subsystem_Char_Buf_Subsystem_Onchip_SRAM+0xf70010b4>
    1134:	88000826 	beq	r17,zero,1158 <__extendsfdf2+0xe8>
    1138:	880cd0fa 	srli	r6,r17,3
    113c:	00800434 	movhi	r2,16
    1140:	10bfffc4 	addi	r2,r2,-1
    1144:	31800234 	orhi	r6,r6,8
    1148:	8822977a 	slli	r17,r17,29
    114c:	308c703a 	and	r6,r6,r2
    1150:	0141ffc4 	movi	r5,2047
    1154:	003fd706 	br	10b4 <__alt_mem_VGA_Subsystem_Char_Buf_Subsystem_Onchip_SRAM+0xf70010b4>
    1158:	0141ffc4 	movi	r5,2047
    115c:	000d883a 	mov	r6,zero
    1160:	003fd406 	br	10b4 <__alt_mem_VGA_Subsystem_Char_Buf_Subsystem_Onchip_SRAM+0xf70010b4>
    1164:	000b883a 	mov	r5,zero
    1168:	000d883a 	mov	r6,zero
    116c:	003fd106 	br	10b4 <__alt_mem_VGA_Subsystem_Char_Buf_Subsystem_Onchip_SRAM+0xf70010b4>
    1170:	11bffd44 	addi	r6,r2,-11
    1174:	8986983a 	sll	r3,r17,r6
    1178:	0023883a 	mov	r17,zero
    117c:	003fe606 	br	1118 <__alt_mem_VGA_Subsystem_Char_Buf_Subsystem_Onchip_SRAM+0xf7001118>

00001180 <__clzsi2>:
    1180:	00bfffd4 	movui	r2,65535
    1184:	11000536 	bltu	r2,r4,119c <__clzsi2+0x1c>
    1188:	00803fc4 	movi	r2,255
    118c:	11000f36 	bltu	r2,r4,11cc <__clzsi2+0x4c>
    1190:	00800804 	movi	r2,32
    1194:	0007883a 	mov	r3,zero
    1198:	00000506 	br	11b0 <__clzsi2+0x30>
    119c:	00804034 	movhi	r2,256
    11a0:	10bfffc4 	addi	r2,r2,-1
    11a4:	11000c2e 	bgeu	r2,r4,11d8 <__clzsi2+0x58>
    11a8:	00800204 	movi	r2,8
    11ac:	00c00604 	movi	r3,24
    11b0:	20c8d83a 	srl	r4,r4,r3
    11b4:	00c00074 	movhi	r3,1
    11b8:	18d1fac4 	addi	r3,r3,18411
    11bc:	1909883a 	add	r4,r3,r4
    11c0:	20c00003 	ldbu	r3,0(r4)
    11c4:	10c5c83a 	sub	r2,r2,r3
    11c8:	f800283a 	ret
    11cc:	00800604 	movi	r2,24
    11d0:	00c00204 	movi	r3,8
    11d4:	003ff606 	br	11b0 <__alt_mem_VGA_Subsystem_Char_Buf_Subsystem_Onchip_SRAM+0xf70011b0>
    11d8:	00800404 	movi	r2,16
    11dc:	1007883a 	mov	r3,r2
    11e0:	003ff306 	br	11b0 <__alt_mem_VGA_Subsystem_Char_Buf_Subsystem_Onchip_SRAM+0xf70011b0>

000011e4 <_printf_r>:
    11e4:	defffd04 	addi	sp,sp,-12
    11e8:	2805883a 	mov	r2,r5
    11ec:	dfc00015 	stw	ra,0(sp)
    11f0:	d9800115 	stw	r6,4(sp)
    11f4:	d9c00215 	stw	r7,8(sp)
    11f8:	21400217 	ldw	r5,8(r4)
    11fc:	d9c00104 	addi	r7,sp,4
    1200:	100d883a 	mov	r6,r2
    1204:	00036c80 	call	36c8 <___vfprintf_internal_r>
    1208:	dfc00017 	ldw	ra,0(sp)
    120c:	dec00304 	addi	sp,sp,12
    1210:	f800283a 	ret

00001214 <printf>:
    1214:	defffc04 	addi	sp,sp,-16
    1218:	dfc00015 	stw	ra,0(sp)
    121c:	d9400115 	stw	r5,4(sp)
    1220:	d9800215 	stw	r6,8(sp)
    1224:	d9c00315 	stw	r7,12(sp)
    1228:	00800074 	movhi	r2,1
    122c:	1099ed04 	addi	r2,r2,26548
    1230:	10800017 	ldw	r2,0(r2)
    1234:	200b883a 	mov	r5,r4
    1238:	d9800104 	addi	r6,sp,4
    123c:	11000217 	ldw	r4,8(r2)
    1240:	00059a40 	call	59a4 <__vfprintf_internal>
    1244:	dfc00017 	ldw	ra,0(sp)
    1248:	dec00404 	addi	sp,sp,16
    124c:	f800283a 	ret

00001250 <_snprintf_r>:
    1250:	30003116 	blt	r6,zero,1318 <_snprintf_r+0xc8>
    1254:	deffe404 	addi	sp,sp,-112
    1258:	00c08204 	movi	r3,520
    125c:	dc001a15 	stw	r16,104(sp)
    1260:	3005883a 	mov	r2,r6
    1264:	dfc01b15 	stw	ra,108(sp)
    1268:	d8c0030d 	sth	r3,12(sp)
    126c:	d9400015 	stw	r5,0(sp)
    1270:	d9400415 	stw	r5,16(sp)
    1274:	380d883a 	mov	r6,r7
    1278:	2021883a 	mov	r16,r4
    127c:	10001026 	beq	r2,zero,12c0 <_snprintf_r+0x70>
    1280:	10bfffc4 	addi	r2,r2,-1
    1284:	d8800215 	stw	r2,8(sp)
    1288:	d8800515 	stw	r2,20(sp)
    128c:	d9c01c04 	addi	r7,sp,112
    1290:	00bfffc4 	movi	r2,-1
    1294:	d80b883a 	mov	r5,sp
    1298:	d880038d 	sth	r2,14(sp)
    129c:	000140c0 	call	140c <___svfprintf_internal_r>
    12a0:	00ffffc4 	movi	r3,-1
    12a4:	10c01316 	blt	r2,r3,12f4 <_snprintf_r+0xa4>
    12a8:	d8c00017 	ldw	r3,0(sp)
    12ac:	18000005 	stb	zero,0(r3)
    12b0:	dfc01b17 	ldw	ra,108(sp)
    12b4:	dc001a17 	ldw	r16,104(sp)
    12b8:	dec01c04 	addi	sp,sp,112
    12bc:	f800283a 	ret
    12c0:	00bfffc4 	movi	r2,-1
    12c4:	d9c01c04 	addi	r7,sp,112
    12c8:	d80b883a 	mov	r5,sp
    12cc:	d8000215 	stw	zero,8(sp)
    12d0:	d8000515 	stw	zero,20(sp)
    12d4:	d880038d 	sth	r2,14(sp)
    12d8:	000140c0 	call	140c <___svfprintf_internal_r>
    12dc:	00ffffc4 	movi	r3,-1
    12e0:	10c00716 	blt	r2,r3,1300 <_snprintf_r+0xb0>
    12e4:	dfc01b17 	ldw	ra,108(sp)
    12e8:	dc001a17 	ldw	r16,104(sp)
    12ec:	dec01c04 	addi	sp,sp,112
    12f0:	f800283a 	ret
    12f4:	00c022c4 	movi	r3,139
    12f8:	80c00015 	stw	r3,0(r16)
    12fc:	003fea06 	br	12a8 <__alt_mem_VGA_Subsystem_Char_Buf_Subsystem_Onchip_SRAM+0xf70012a8>
    1300:	00c022c4 	movi	r3,139
    1304:	80c00015 	stw	r3,0(r16)
    1308:	dfc01b17 	ldw	ra,108(sp)
    130c:	dc001a17 	ldw	r16,104(sp)
    1310:	dec01c04 	addi	sp,sp,112
    1314:	f800283a 	ret
    1318:	008022c4 	movi	r2,139
    131c:	20800015 	stw	r2,0(r4)
    1320:	00bfffc4 	movi	r2,-1
    1324:	f800283a 	ret

00001328 <snprintf>:
    1328:	deffe304 	addi	sp,sp,-116
    132c:	dfc01b15 	stw	ra,108(sp)
    1330:	dc001a15 	stw	r16,104(sp)
    1334:	d9c01c15 	stw	r7,112(sp)
    1338:	00800074 	movhi	r2,1
    133c:	1099ed04 	addi	r2,r2,26548
    1340:	14000017 	ldw	r16,0(r2)
    1344:	28002d16 	blt	r5,zero,13fc <snprintf+0xd4>
    1348:	00808204 	movi	r2,520
    134c:	d880030d 	sth	r2,12(sp)
    1350:	d9000015 	stw	r4,0(sp)
    1354:	d9000415 	stw	r4,16(sp)
    1358:	28001126 	beq	r5,zero,13a0 <snprintf+0x78>
    135c:	28bfffc4 	addi	r2,r5,-1
    1360:	d8800215 	stw	r2,8(sp)
    1364:	d8800515 	stw	r2,20(sp)
    1368:	d9c01c04 	addi	r7,sp,112
    136c:	00bfffc4 	movi	r2,-1
    1370:	d80b883a 	mov	r5,sp
    1374:	8009883a 	mov	r4,r16
    1378:	d880038d 	sth	r2,14(sp)
    137c:	000140c0 	call	140c <___svfprintf_internal_r>
    1380:	00ffffc4 	movi	r3,-1
    1384:	10c01416 	blt	r2,r3,13d8 <snprintf+0xb0>
    1388:	d8c00017 	ldw	r3,0(sp)
    138c:	18000005 	stb	zero,0(r3)
    1390:	dfc01b17 	ldw	ra,108(sp)
    1394:	dc001a17 	ldw	r16,104(sp)
    1398:	dec01d04 	addi	sp,sp,116
    139c:	f800283a 	ret
    13a0:	00bfffc4 	movi	r2,-1
    13a4:	d9c01c04 	addi	r7,sp,112
    13a8:	d80b883a 	mov	r5,sp
    13ac:	8009883a 	mov	r4,r16
    13b0:	d8000215 	stw	zero,8(sp)
    13b4:	d8000515 	stw	zero,20(sp)
    13b8:	d880038d 	sth	r2,14(sp)
    13bc:	000140c0 	call	140c <___svfprintf_internal_r>
    13c0:	00ffffc4 	movi	r3,-1
    13c4:	10c00716 	blt	r2,r3,13e4 <snprintf+0xbc>
    13c8:	dfc01b17 	ldw	ra,108(sp)
    13cc:	dc001a17 	ldw	r16,104(sp)
    13d0:	dec01d04 	addi	sp,sp,116
    13d4:	f800283a 	ret
    13d8:	00c022c4 	movi	r3,139
    13dc:	80c00015 	stw	r3,0(r16)
    13e0:	003fe906 	br	1388 <__alt_mem_VGA_Subsystem_Char_Buf_Subsystem_Onchip_SRAM+0xf7001388>
    13e4:	00c022c4 	movi	r3,139
    13e8:	80c00015 	stw	r3,0(r16)
    13ec:	dfc01b17 	ldw	ra,108(sp)
    13f0:	dc001a17 	ldw	r16,104(sp)
    13f4:	dec01d04 	addi	sp,sp,116
    13f8:	f800283a 	ret
    13fc:	008022c4 	movi	r2,139
    1400:	80800015 	stw	r2,0(r16)
    1404:	00bfffc4 	movi	r2,-1
    1408:	003fef06 	br	13c8 <__alt_mem_VGA_Subsystem_Char_Buf_Subsystem_Onchip_SRAM+0xf70013c8>

0000140c <___svfprintf_internal_r>:
    140c:	deffb704 	addi	sp,sp,-292
    1410:	dfc04815 	stw	ra,288(sp)
    1414:	ddc04615 	stw	r23,280(sp)
    1418:	d9402d15 	stw	r5,180(sp)
    141c:	d9003915 	stw	r4,228(sp)
    1420:	302f883a 	mov	r23,r6
    1424:	d9c02e15 	stw	r7,184(sp)
    1428:	df004715 	stw	fp,284(sp)
    142c:	dd804515 	stw	r22,276(sp)
    1430:	dd404415 	stw	r21,272(sp)
    1434:	dd004315 	stw	r20,268(sp)
    1438:	dcc04215 	stw	r19,264(sp)
    143c:	dc804115 	stw	r18,260(sp)
    1440:	dc404015 	stw	r17,256(sp)
    1444:	dc003f15 	stw	r16,252(sp)
    1448:	00081400 	call	8140 <_localeconv_r>
    144c:	10800017 	ldw	r2,0(r2)
    1450:	1009883a 	mov	r4,r2
    1454:	d8803415 	stw	r2,208(sp)
    1458:	000a2240 	call	a224 <strlen>
    145c:	d8c02d17 	ldw	r3,180(sp)
    1460:	d8803815 	stw	r2,224(sp)
    1464:	1880030b 	ldhu	r2,12(r3)
    1468:	1080200c 	andi	r2,r2,128
    146c:	10000226 	beq	r2,zero,1478 <___svfprintf_internal_r+0x6c>
    1470:	18800417 	ldw	r2,16(r3)
    1474:	1006b126 	beq	r2,zero,2f3c <___svfprintf_internal_r+0x1b30>
    1478:	dcc03917 	ldw	r19,228(sp)
    147c:	d8c00404 	addi	r3,sp,16
    1480:	05400074 	movhi	r21,1
    1484:	d9001e04 	addi	r4,sp,120
    1488:	ad524b84 	addi	r21,r21,18734
    148c:	d8c01e15 	stw	r3,120(sp)
    1490:	d8002015 	stw	zero,128(sp)
    1494:	d8001f15 	stw	zero,124(sp)
    1498:	d8003315 	stw	zero,204(sp)
    149c:	d8003615 	stw	zero,216(sp)
    14a0:	d8003715 	stw	zero,220(sp)
    14a4:	1811883a 	mov	r8,r3
    14a8:	d8003a15 	stw	zero,232(sp)
    14ac:	d8003b15 	stw	zero,236(sp)
    14b0:	d8002f15 	stw	zero,188(sp)
    14b4:	d9002815 	stw	r4,160(sp)
    14b8:	b8800007 	ldb	r2,0(r23)
    14bc:	10027726 	beq	r2,zero,1e9c <___svfprintf_internal_r+0xa90>
    14c0:	00c00944 	movi	r3,37
    14c4:	b823883a 	mov	r17,r23
    14c8:	10c0021e 	bne	r2,r3,14d4 <___svfprintf_internal_r+0xc8>
    14cc:	00001406 	br	1520 <___svfprintf_internal_r+0x114>
    14d0:	10c00326 	beq	r2,r3,14e0 <___svfprintf_internal_r+0xd4>
    14d4:	8c400044 	addi	r17,r17,1
    14d8:	88800007 	ldb	r2,0(r17)
    14dc:	103ffc1e 	bne	r2,zero,14d0 <__alt_mem_VGA_Subsystem_Char_Buf_Subsystem_Onchip_SRAM+0xf70014d0>
    14e0:	8de1c83a 	sub	r16,r17,r23
    14e4:	80000e26 	beq	r16,zero,1520 <___svfprintf_internal_r+0x114>
    14e8:	d8c02017 	ldw	r3,128(sp)
    14ec:	d8801f17 	ldw	r2,124(sp)
    14f0:	45c00015 	stw	r23,0(r8)
    14f4:	1c07883a 	add	r3,r3,r16
    14f8:	10800044 	addi	r2,r2,1
    14fc:	d8c02015 	stw	r3,128(sp)
    1500:	44000115 	stw	r16,4(r8)
    1504:	d8801f15 	stw	r2,124(sp)
    1508:	00c001c4 	movi	r3,7
    150c:	18809916 	blt	r3,r2,1774 <___svfprintf_internal_r+0x368>
    1510:	42000204 	addi	r8,r8,8
    1514:	d9402f17 	ldw	r5,188(sp)
    1518:	2c0b883a 	add	r5,r5,r16
    151c:	d9402f15 	stw	r5,188(sp)
    1520:	88800007 	ldb	r2,0(r17)
    1524:	10009a26 	beq	r2,zero,1790 <___svfprintf_internal_r+0x384>
    1528:	8dc00044 	addi	r23,r17,1
    152c:	8c400047 	ldb	r17,1(r17)
    1530:	0021883a 	mov	r16,zero
    1534:	00bfffc4 	movi	r2,-1
    1538:	0025883a 	mov	r18,zero
    153c:	dc002905 	stb	r16,164(sp)
    1540:	d8002785 	stb	zero,158(sp)
    1544:	d8002b05 	stb	zero,172(sp)
    1548:	d8802a15 	stw	r2,168(sp)
    154c:	d8003115 	stw	zero,196(sp)
    1550:	05001604 	movi	r20,88
    1554:	05800244 	movi	r22,9
    1558:	4039883a 	mov	fp,r8
    155c:	9021883a 	mov	r16,r18
    1560:	bdc00044 	addi	r23,r23,1
    1564:	88bff804 	addi	r2,r17,-32
    1568:	a0831e36 	bltu	r20,r2,21e4 <___svfprintf_internal_r+0xdd8>
    156c:	100490ba 	slli	r2,r2,2
    1570:	00c00034 	movhi	r3,0
    1574:	18c56104 	addi	r3,r3,5508
    1578:	10c5883a 	add	r2,r2,r3
    157c:	10800017 	ldw	r2,0(r2)
    1580:	1000683a 	jmp	r2
    1584:	0000212c 	andhi	zero,zero,132
    1588:	000021e4 	muli	zero,zero,135
    158c:	000021e4 	muli	zero,zero,135
    1590:	00002120 	cmpeqi	zero,zero,132
    1594:	000021e4 	muli	zero,zero,135
    1598:	000021e4 	muli	zero,zero,135
    159c:	000021e4 	muli	zero,zero,135
    15a0:	000021e4 	muli	zero,zero,135
    15a4:	000021e4 	muli	zero,zero,135
    15a8:	000021e4 	muli	zero,zero,135
    15ac:	000017ec 	andhi	zero,zero,95
    15b0:	00002030 	cmpltui	zero,zero,128
    15b4:	000021e4 	muli	zero,zero,135
    15b8:	000016f8 	rdprs	zero,zero,91
    15bc:	00001810 	cmplti	zero,zero,96
    15c0:	000021e4 	muli	zero,zero,135
    15c4:	0000189c 	xori	zero,zero,98
    15c8:	00001860 	cmpeqi	zero,zero,97
    15cc:	00001860 	cmpeqi	zero,zero,97
    15d0:	00001860 	cmpeqi	zero,zero,97
    15d4:	00001860 	cmpeqi	zero,zero,97
    15d8:	00001860 	cmpeqi	zero,zero,97
    15dc:	00001860 	cmpeqi	zero,zero,97
    15e0:	00001860 	cmpeqi	zero,zero,97
    15e4:	00001860 	cmpeqi	zero,zero,97
    15e8:	00001860 	cmpeqi	zero,zero,97
    15ec:	000021e4 	muli	zero,zero,135
    15f0:	000021e4 	muli	zero,zero,135
    15f4:	000021e4 	muli	zero,zero,135
    15f8:	000021e4 	muli	zero,zero,135
    15fc:	000021e4 	muli	zero,zero,135
    1600:	000021e4 	muli	zero,zero,135
    1604:	000021e4 	muli	zero,zero,135
    1608:	000021e4 	muli	zero,zero,135
    160c:	000021e4 	muli	zero,zero,135
    1610:	000021e4 	muli	zero,zero,135
    1614:	00001960 	cmpeqi	zero,zero,101
    1618:	000018a8 	cmpgeui	zero,zero,98
    161c:	000021e4 	muli	zero,zero,135
    1620:	000018a8 	cmpgeui	zero,zero,98
    1624:	000021e4 	muli	zero,zero,135
    1628:	000021e4 	muli	zero,zero,135
    162c:	000021e4 	muli	zero,zero,135
    1630:	000021e4 	muli	zero,zero,135
    1634:	00001954 	movui	zero,101
    1638:	000021e4 	muli	zero,zero,135
    163c:	000021e4 	muli	zero,zero,135
    1640:	00001a28 	cmpgeui	zero,zero,104
    1644:	000021e4 	muli	zero,zero,135
    1648:	000021e4 	muli	zero,zero,135
    164c:	000021e4 	muli	zero,zero,135
    1650:	000021e4 	muli	zero,zero,135
    1654:	000021e4 	muli	zero,zero,135
    1658:	00001ea4 	muli	zero,zero,122
    165c:	000021e4 	muli	zero,zero,135
    1660:	000021e4 	muli	zero,zero,135
    1664:	00001f10 	cmplti	zero,zero,124
    1668:	000021e4 	muli	zero,zero,135
    166c:	000021e4 	muli	zero,zero,135
    1670:	000021e4 	muli	zero,zero,135
    1674:	000021e4 	muli	zero,zero,135
    1678:	000021e4 	muli	zero,zero,135
    167c:	000021e4 	muli	zero,zero,135
    1680:	000021e4 	muli	zero,zero,135
    1684:	000021e4 	muli	zero,zero,135
    1688:	000021e4 	muli	zero,zero,135
    168c:	000021e4 	muli	zero,zero,135
    1690:	00001fcc 	andi	zero,zero,127
    1694:	0000214c 	andi	zero,zero,133
    1698:	000018a8 	cmpgeui	zero,zero,98
    169c:	000018a8 	cmpgeui	zero,zero,98
    16a0:	000018a8 	cmpgeui	zero,zero,98
    16a4:	000021c0 	call	21c <alt_instruction_exception_entry+0x4c>
    16a8:	0000214c 	andi	zero,zero,133
    16ac:	000021e4 	muli	zero,zero,135
    16b0:	000021e4 	muli	zero,zero,135
    16b4:	0000216c 	andhi	zero,zero,133
    16b8:	000021e4 	muli	zero,zero,135
    16bc:	00002180 	call	218 <alt_instruction_exception_entry+0x48>
    16c0:	00002010 	cmplti	zero,zero,128
    16c4:	00001704 	movi	zero,92
    16c8:	00002048 	cmpgei	zero,zero,129
    16cc:	000021e4 	muli	zero,zero,135
    16d0:	00002054 	movui	zero,129
    16d4:	000021e4 	muli	zero,zero,135
    16d8:	000020b8 	rdprs	zero,zero,130
    16dc:	000021e4 	muli	zero,zero,135
    16e0:	000021e4 	muli	zero,zero,135
    16e4:	000020d8 	cmpnei	zero,zero,131
    16e8:	d8c03117 	ldw	r3,196(sp)
    16ec:	d8802e15 	stw	r2,184(sp)
    16f0:	00c7c83a 	sub	r3,zero,r3
    16f4:	d8c03115 	stw	r3,196(sp)
    16f8:	84000114 	ori	r16,r16,4
    16fc:	bc400007 	ldb	r17,0(r23)
    1700:	003f9706 	br	1560 <__alt_mem_VGA_Subsystem_Char_Buf_Subsystem_Onchip_SRAM+0xf7001560>
    1704:	00800c04 	movi	r2,48
    1708:	d8802705 	stb	r2,156(sp)
    170c:	00801e04 	movi	r2,120
    1710:	d8802745 	stb	r2,157(sp)
    1714:	d9002a17 	ldw	r4,168(sp)
    1718:	d8802e17 	ldw	r2,184(sp)
    171c:	d8002785 	stb	zero,158(sp)
    1720:	e011883a 	mov	r8,fp
    1724:	10c00104 	addi	r3,r2,4
    1728:	15000017 	ldw	r20,0(r2)
    172c:	002d883a 	mov	r22,zero
    1730:	80800094 	ori	r2,r16,2
    1734:	2002b616 	blt	r4,zero,2210 <___svfprintf_internal_r+0xe04>
    1738:	00bfdfc4 	movi	r2,-129
    173c:	80a4703a 	and	r18,r16,r2
    1740:	d8c02e15 	stw	r3,184(sp)
    1744:	94800094 	ori	r18,r18,2
    1748:	a002a01e 	bne	r20,zero,21cc <___svfprintf_internal_r+0xdc0>
    174c:	01400074 	movhi	r5,1
    1750:	29524404 	addi	r5,r5,18704
    1754:	d9403a15 	stw	r5,232(sp)
    1758:	04401e04 	movi	r17,120
    175c:	d8c02a17 	ldw	r3,168(sp)
    1760:	0039883a 	mov	fp,zero
    1764:	1801e626 	beq	r3,zero,1f00 <___svfprintf_internal_r+0xaf4>
    1768:	0029883a 	mov	r20,zero
    176c:	002d883a 	mov	r22,zero
    1770:	00020506 	br	1f88 <___svfprintf_internal_r+0xb7c>
    1774:	d9402d17 	ldw	r5,180(sp)
    1778:	d9801e04 	addi	r6,sp,120
    177c:	9809883a 	mov	r4,r19
    1780:	000a2bc0 	call	a2bc <__ssprint_r>
    1784:	1000081e 	bne	r2,zero,17a8 <___svfprintf_internal_r+0x39c>
    1788:	da000404 	addi	r8,sp,16
    178c:	003f6106 	br	1514 <__alt_mem_VGA_Subsystem_Char_Buf_Subsystem_Onchip_SRAM+0xf7001514>
    1790:	d8802017 	ldw	r2,128(sp)
    1794:	10000426 	beq	r2,zero,17a8 <___svfprintf_internal_r+0x39c>
    1798:	d9402d17 	ldw	r5,180(sp)
    179c:	d9003917 	ldw	r4,228(sp)
    17a0:	d9801e04 	addi	r6,sp,120
    17a4:	000a2bc0 	call	a2bc <__ssprint_r>
    17a8:	d8802d17 	ldw	r2,180(sp)
    17ac:	10c0030b 	ldhu	r3,12(r2)
    17b0:	d8802f17 	ldw	r2,188(sp)
    17b4:	18c0100c 	andi	r3,r3,64
    17b8:	1806251e 	bne	r3,zero,3050 <___svfprintf_internal_r+0x1c44>
    17bc:	dfc04817 	ldw	ra,288(sp)
    17c0:	df004717 	ldw	fp,284(sp)
    17c4:	ddc04617 	ldw	r23,280(sp)
    17c8:	dd804517 	ldw	r22,276(sp)
    17cc:	dd404417 	ldw	r21,272(sp)
    17d0:	dd004317 	ldw	r20,268(sp)
    17d4:	dcc04217 	ldw	r19,264(sp)
    17d8:	dc804117 	ldw	r18,260(sp)
    17dc:	dc404017 	ldw	r17,256(sp)
    17e0:	dc003f17 	ldw	r16,252(sp)
    17e4:	dec04904 	addi	sp,sp,292
    17e8:	f800283a 	ret
    17ec:	d9002e17 	ldw	r4,184(sp)
    17f0:	d9402e17 	ldw	r5,184(sp)
    17f4:	21000017 	ldw	r4,0(r4)
    17f8:	28800104 	addi	r2,r5,4
    17fc:	d9003115 	stw	r4,196(sp)
    1800:	203fb916 	blt	r4,zero,16e8 <__alt_mem_VGA_Subsystem_Char_Buf_Subsystem_Onchip_SRAM+0xf70016e8>
    1804:	d8802e15 	stw	r2,184(sp)
    1808:	bc400007 	ldb	r17,0(r23)
    180c:	003f5406 	br	1560 <__alt_mem_VGA_Subsystem_Char_Buf_Subsystem_Onchip_SRAM+0xf7001560>
    1810:	bc400007 	ldb	r17,0(r23)
    1814:	01000a84 	movi	r4,42
    1818:	b8c00044 	addi	r3,r23,1
    181c:	89076926 	beq	r17,r4,35c4 <___svfprintf_internal_r+0x21b8>
    1820:	8cbff404 	addi	r18,r17,-48
    1824:	b486b936 	bltu	r22,r18,330c <___svfprintf_internal_r+0x1f00>
    1828:	0009883a 	mov	r4,zero
    182c:	1823883a 	mov	r17,r3
    1830:	01400284 	movi	r5,10
    1834:	0000eb40 	call	eb4 <__mulsi3>
    1838:	88c00007 	ldb	r3,0(r17)
    183c:	1489883a 	add	r4,r2,r18
    1840:	8dc00044 	addi	r23,r17,1
    1844:	1cbff404 	addi	r18,r3,-48
    1848:	b823883a 	mov	r17,r23
    184c:	b4bff82e 	bgeu	r22,r18,1830 <__alt_mem_VGA_Subsystem_Char_Buf_Subsystem_Onchip_SRAM+0xf7001830>
    1850:	1823883a 	mov	r17,r3
    1854:	20060416 	blt	r4,zero,3068 <___svfprintf_internal_r+0x1c5c>
    1858:	d9002a15 	stw	r4,168(sp)
    185c:	003f4106 	br	1564 <__alt_mem_VGA_Subsystem_Char_Buf_Subsystem_Onchip_SRAM+0xf7001564>
    1860:	8cbff404 	addi	r18,r17,-48
    1864:	d8003115 	stw	zero,196(sp)
    1868:	0009883a 	mov	r4,zero
    186c:	b823883a 	mov	r17,r23
    1870:	01400284 	movi	r5,10
    1874:	0000eb40 	call	eb4 <__mulsi3>
    1878:	88c00007 	ldb	r3,0(r17)
    187c:	9089883a 	add	r4,r18,r2
    1880:	bdc00044 	addi	r23,r23,1
    1884:	1cbff404 	addi	r18,r3,-48
    1888:	b823883a 	mov	r17,r23
    188c:	b4bff82e 	bgeu	r22,r18,1870 <__alt_mem_VGA_Subsystem_Char_Buf_Subsystem_Onchip_SRAM+0xf7001870>
    1890:	1823883a 	mov	r17,r3
    1894:	d9003115 	stw	r4,196(sp)
    1898:	003f3206 	br	1564 <__alt_mem_VGA_Subsystem_Char_Buf_Subsystem_Onchip_SRAM+0xf7001564>
    189c:	84002014 	ori	r16,r16,128
    18a0:	bc400007 	ldb	r17,0(r23)
    18a4:	003f2e06 	br	1560 <__alt_mem_VGA_Subsystem_Char_Buf_Subsystem_Onchip_SRAM+0xf7001560>
    18a8:	8025883a 	mov	r18,r16
    18ac:	dc002903 	ldbu	r16,164(sp)
    18b0:	e011883a 	mov	r8,fp
    18b4:	84003fcc 	andi	r16,r16,255
    18b8:	8007721e 	bne	r16,zero,3684 <___svfprintf_internal_r+0x2278>
    18bc:	9080020c 	andi	r2,r18,8
    18c0:	1004a526 	beq	r2,zero,2b58 <___svfprintf_internal_r+0x174c>
    18c4:	d9002e17 	ldw	r4,184(sp)
    18c8:	d9402e17 	ldw	r5,184(sp)
    18cc:	d8802e17 	ldw	r2,184(sp)
    18d0:	21000017 	ldw	r4,0(r4)
    18d4:	29400117 	ldw	r5,4(r5)
    18d8:	10800204 	addi	r2,r2,8
    18dc:	d9003615 	stw	r4,216(sp)
    18e0:	d9403715 	stw	r5,220(sp)
    18e4:	d8802e15 	stw	r2,184(sp)
    18e8:	d9003617 	ldw	r4,216(sp)
    18ec:	d9403717 	ldw	r5,220(sp)
    18f0:	da003e15 	stw	r8,248(sp)
    18f4:	04000044 	movi	r16,1
    18f8:	0009f440 	call	9f44 <__fpclassifyd>
    18fc:	da003e17 	ldw	r8,248(sp)
    1900:	1404731e 	bne	r2,r16,2ad0 <___svfprintf_internal_r+0x16c4>
    1904:	d9003617 	ldw	r4,216(sp)
    1908:	d9403717 	ldw	r5,220(sp)
    190c:	000d883a 	mov	r6,zero
    1910:	000f883a 	mov	r7,zero
    1914:	00103980 	call	10398 <__ledf2>
    1918:	da003e17 	ldw	r8,248(sp)
    191c:	10061b16 	blt	r2,zero,318c <___svfprintf_internal_r+0x1d80>
    1920:	df002783 	ldbu	fp,158(sp)
    1924:	008011c4 	movi	r2,71
    1928:	1445810e 	bge	r2,r17,2f30 <___svfprintf_internal_r+0x1b24>
    192c:	04000074 	movhi	r16,1
    1930:	84123c04 	addi	r16,r16,18672
    1934:	00c000c4 	movi	r3,3
    1938:	00bfdfc4 	movi	r2,-129
    193c:	d8c02915 	stw	r3,164(sp)
    1940:	90a4703a 	and	r18,r18,r2
    1944:	d8c02b15 	stw	r3,172(sp)
    1948:	d8002a15 	stw	zero,168(sp)
    194c:	d8003215 	stw	zero,200(sp)
    1950:	00006c06 	br	1b04 <___svfprintf_internal_r+0x6f8>
    1954:	84000214 	ori	r16,r16,8
    1958:	bc400007 	ldb	r17,0(r23)
    195c:	003f0006 	br	1560 <__alt_mem_VGA_Subsystem_Char_Buf_Subsystem_Onchip_SRAM+0xf7001560>
    1960:	8025883a 	mov	r18,r16
    1964:	dc002903 	ldbu	r16,164(sp)
    1968:	e011883a 	mov	r8,fp
    196c:	84003fcc 	andi	r16,r16,255
    1970:	80073f1e 	bne	r16,zero,3670 <___svfprintf_internal_r+0x2264>
    1974:	94800414 	ori	r18,r18,16
    1978:	9080080c 	andi	r2,r18,32
    197c:	1003bb26 	beq	r2,zero,286c <___svfprintf_internal_r+0x1460>
    1980:	d9002e17 	ldw	r4,184(sp)
    1984:	20800117 	ldw	r2,4(r4)
    1988:	25000017 	ldw	r20,0(r4)
    198c:	21000204 	addi	r4,r4,8
    1990:	d9002e15 	stw	r4,184(sp)
    1994:	102d883a 	mov	r22,r2
    1998:	1003bd16 	blt	r2,zero,2890 <___svfprintf_internal_r+0x1484>
    199c:	d9002a17 	ldw	r4,168(sp)
    19a0:	df002783 	ldbu	fp,158(sp)
    19a4:	2003d016 	blt	r4,zero,28e8 <___svfprintf_internal_r+0x14dc>
    19a8:	00ffdfc4 	movi	r3,-129
    19ac:	a584b03a 	or	r2,r20,r22
    19b0:	90e4703a 	and	r18,r18,r3
    19b4:	10015026 	beq	r2,zero,1ef8 <___svfprintf_internal_r+0xaec>
    19b8:	b0037026 	beq	r22,zero,277c <___svfprintf_internal_r+0x1370>
    19bc:	dc402915 	stw	r17,164(sp)
    19c0:	dc001e04 	addi	r16,sp,120
    19c4:	b023883a 	mov	r17,r22
    19c8:	402d883a 	mov	r22,r8
    19cc:	a009883a 	mov	r4,r20
    19d0:	880b883a 	mov	r5,r17
    19d4:	01800284 	movi	r6,10
    19d8:	000f883a 	mov	r7,zero
    19dc:	000e9f40 	call	e9f4 <__umoddi3>
    19e0:	10800c04 	addi	r2,r2,48
    19e4:	843fffc4 	addi	r16,r16,-1
    19e8:	a009883a 	mov	r4,r20
    19ec:	880b883a 	mov	r5,r17
    19f0:	80800005 	stb	r2,0(r16)
    19f4:	01800284 	movi	r6,10
    19f8:	000f883a 	mov	r7,zero
    19fc:	000e3f80 	call	e3f8 <__udivdi3>
    1a00:	1029883a 	mov	r20,r2
    1a04:	10c4b03a 	or	r2,r2,r3
    1a08:	1823883a 	mov	r17,r3
    1a0c:	103fef1e 	bne	r2,zero,19cc <__alt_mem_VGA_Subsystem_Char_Buf_Subsystem_Onchip_SRAM+0xf70019cc>
    1a10:	d8c02817 	ldw	r3,160(sp)
    1a14:	dc402917 	ldw	r17,164(sp)
    1a18:	b011883a 	mov	r8,r22
    1a1c:	1c07c83a 	sub	r3,r3,r16
    1a20:	d8c02b15 	stw	r3,172(sp)
    1a24:	00003106 	br	1aec <___svfprintf_internal_r+0x6e0>
    1a28:	8025883a 	mov	r18,r16
    1a2c:	dc002903 	ldbu	r16,164(sp)
    1a30:	e011883a 	mov	r8,fp
    1a34:	84003fcc 	andi	r16,r16,255
    1a38:	80070a1e 	bne	r16,zero,3664 <___svfprintf_internal_r+0x2258>
    1a3c:	94800414 	ori	r18,r18,16
    1a40:	9080080c 	andi	r2,r18,32
    1a44:	1002f626 	beq	r2,zero,2620 <___svfprintf_internal_r+0x1214>
    1a48:	d9002e17 	ldw	r4,184(sp)
    1a4c:	d9402a17 	ldw	r5,168(sp)
    1a50:	d8002785 	stb	zero,158(sp)
    1a54:	20800204 	addi	r2,r4,8
    1a58:	25000017 	ldw	r20,0(r4)
    1a5c:	25800117 	ldw	r22,4(r4)
    1a60:	28043716 	blt	r5,zero,2b40 <___svfprintf_internal_r+0x1734>
    1a64:	013fdfc4 	movi	r4,-129
    1a68:	a586b03a 	or	r3,r20,r22
    1a6c:	d8802e15 	stw	r2,184(sp)
    1a70:	9124703a 	and	r18,r18,r4
    1a74:	1802f71e 	bne	r3,zero,2654 <___svfprintf_internal_r+0x1248>
    1a78:	d9402a17 	ldw	r5,168(sp)
    1a7c:	0039883a 	mov	fp,zero
    1a80:	2806df26 	beq	r5,zero,3600 <___svfprintf_internal_r+0x21f4>
    1a84:	0029883a 	mov	r20,zero
    1a88:	002d883a 	mov	r22,zero
    1a8c:	dc001e04 	addi	r16,sp,120
    1a90:	a006d0fa 	srli	r3,r20,3
    1a94:	b008977a 	slli	r4,r22,29
    1a98:	b02cd0fa 	srli	r22,r22,3
    1a9c:	a50001cc 	andi	r20,r20,7
    1aa0:	a0800c04 	addi	r2,r20,48
    1aa4:	843fffc4 	addi	r16,r16,-1
    1aa8:	20e8b03a 	or	r20,r4,r3
    1aac:	80800005 	stb	r2,0(r16)
    1ab0:	a586b03a 	or	r3,r20,r22
    1ab4:	183ff61e 	bne	r3,zero,1a90 <__alt_mem_VGA_Subsystem_Char_Buf_Subsystem_Onchip_SRAM+0xf7001a90>
    1ab8:	90c0004c 	andi	r3,r18,1
    1abc:	18013f26 	beq	r3,zero,1fbc <___svfprintf_internal_r+0xbb0>
    1ac0:	10803fcc 	andi	r2,r2,255
    1ac4:	1080201c 	xori	r2,r2,128
    1ac8:	10bfe004 	addi	r2,r2,-128
    1acc:	00c00c04 	movi	r3,48
    1ad0:	10c13a26 	beq	r2,r3,1fbc <___svfprintf_internal_r+0xbb0>
    1ad4:	80ffffc5 	stb	r3,-1(r16)
    1ad8:	d8c02817 	ldw	r3,160(sp)
    1adc:	80bfffc4 	addi	r2,r16,-1
    1ae0:	1021883a 	mov	r16,r2
    1ae4:	1887c83a 	sub	r3,r3,r2
    1ae8:	d8c02b15 	stw	r3,172(sp)
    1aec:	d8802b17 	ldw	r2,172(sp)
    1af0:	d9002a17 	ldw	r4,168(sp)
    1af4:	1100010e 	bge	r2,r4,1afc <___svfprintf_internal_r+0x6f0>
    1af8:	2005883a 	mov	r2,r4
    1afc:	d8802915 	stw	r2,164(sp)
    1b00:	d8003215 	stw	zero,200(sp)
    1b04:	e7003fcc 	andi	fp,fp,255
    1b08:	e700201c 	xori	fp,fp,128
    1b0c:	e73fe004 	addi	fp,fp,-128
    1b10:	e0000326 	beq	fp,zero,1b20 <___svfprintf_internal_r+0x714>
    1b14:	d8c02917 	ldw	r3,164(sp)
    1b18:	18c00044 	addi	r3,r3,1
    1b1c:	d8c02915 	stw	r3,164(sp)
    1b20:	90c0008c 	andi	r3,r18,2
    1b24:	d8c02c15 	stw	r3,176(sp)
    1b28:	18000326 	beq	r3,zero,1b38 <___svfprintf_internal_r+0x72c>
    1b2c:	d8c02917 	ldw	r3,164(sp)
    1b30:	18c00084 	addi	r3,r3,2
    1b34:	d8c02915 	stw	r3,164(sp)
    1b38:	90c0210c 	andi	r3,r18,132
    1b3c:	d8c03015 	stw	r3,192(sp)
    1b40:	1801c31e 	bne	r3,zero,2250 <___svfprintf_internal_r+0xe44>
    1b44:	d9003117 	ldw	r4,196(sp)
    1b48:	d8c02917 	ldw	r3,164(sp)
    1b4c:	20e9c83a 	sub	r20,r4,r3
    1b50:	0501bf0e 	bge	zero,r20,2250 <___svfprintf_internal_r+0xe44>
    1b54:	02400404 	movi	r9,16
    1b58:	d8c02017 	ldw	r3,128(sp)
    1b5c:	d8801f17 	ldw	r2,124(sp)
    1b60:	4d053d0e 	bge	r9,r20,3058 <___svfprintf_internal_r+0x1c4c>
    1b64:	01400074 	movhi	r5,1
    1b68:	29524f84 	addi	r5,r5,18750
    1b6c:	dc403c15 	stw	r17,240(sp)
    1b70:	d9403515 	stw	r5,212(sp)
    1b74:	a023883a 	mov	r17,r20
    1b78:	482d883a 	mov	r22,r9
    1b7c:	9029883a 	mov	r20,r18
    1b80:	070001c4 	movi	fp,7
    1b84:	8025883a 	mov	r18,r16
    1b88:	dc002d17 	ldw	r16,180(sp)
    1b8c:	00000306 	br	1b9c <___svfprintf_internal_r+0x790>
    1b90:	8c7ffc04 	addi	r17,r17,-16
    1b94:	42000204 	addi	r8,r8,8
    1b98:	b440130e 	bge	r22,r17,1be8 <___svfprintf_internal_r+0x7dc>
    1b9c:	01000074 	movhi	r4,1
    1ba0:	18c00404 	addi	r3,r3,16
    1ba4:	10800044 	addi	r2,r2,1
    1ba8:	21124f84 	addi	r4,r4,18750
    1bac:	41000015 	stw	r4,0(r8)
    1bb0:	45800115 	stw	r22,4(r8)
    1bb4:	d8c02015 	stw	r3,128(sp)
    1bb8:	d8801f15 	stw	r2,124(sp)
    1bbc:	e0bff40e 	bge	fp,r2,1b90 <__alt_mem_VGA_Subsystem_Char_Buf_Subsystem_Onchip_SRAM+0xf7001b90>
    1bc0:	d9801e04 	addi	r6,sp,120
    1bc4:	800b883a 	mov	r5,r16
    1bc8:	9809883a 	mov	r4,r19
    1bcc:	000a2bc0 	call	a2bc <__ssprint_r>
    1bd0:	103ef51e 	bne	r2,zero,17a8 <__alt_mem_VGA_Subsystem_Char_Buf_Subsystem_Onchip_SRAM+0xf70017a8>
    1bd4:	8c7ffc04 	addi	r17,r17,-16
    1bd8:	d8c02017 	ldw	r3,128(sp)
    1bdc:	d8801f17 	ldw	r2,124(sp)
    1be0:	da000404 	addi	r8,sp,16
    1be4:	b47fed16 	blt	r22,r17,1b9c <__alt_mem_VGA_Subsystem_Char_Buf_Subsystem_Onchip_SRAM+0xf7001b9c>
    1be8:	9021883a 	mov	r16,r18
    1bec:	a025883a 	mov	r18,r20
    1bf0:	8829883a 	mov	r20,r17
    1bf4:	dc403c17 	ldw	r17,240(sp)
    1bf8:	d9403517 	ldw	r5,212(sp)
    1bfc:	a0c7883a 	add	r3,r20,r3
    1c00:	10800044 	addi	r2,r2,1
    1c04:	41400015 	stw	r5,0(r8)
    1c08:	45000115 	stw	r20,4(r8)
    1c0c:	d8c02015 	stw	r3,128(sp)
    1c10:	d8801f15 	stw	r2,124(sp)
    1c14:	010001c4 	movi	r4,7
    1c18:	2082c116 	blt	r4,r2,2720 <___svfprintf_internal_r+0x1314>
    1c1c:	df002787 	ldb	fp,158(sp)
    1c20:	42000204 	addi	r8,r8,8
    1c24:	e0000c26 	beq	fp,zero,1c58 <___svfprintf_internal_r+0x84c>
    1c28:	d8801f17 	ldw	r2,124(sp)
    1c2c:	d9002784 	addi	r4,sp,158
    1c30:	18c00044 	addi	r3,r3,1
    1c34:	10800044 	addi	r2,r2,1
    1c38:	41000015 	stw	r4,0(r8)
    1c3c:	01000044 	movi	r4,1
    1c40:	41000115 	stw	r4,4(r8)
    1c44:	d8c02015 	stw	r3,128(sp)
    1c48:	d8801f15 	stw	r2,124(sp)
    1c4c:	010001c4 	movi	r4,7
    1c50:	20825a16 	blt	r4,r2,25bc <___svfprintf_internal_r+0x11b0>
    1c54:	42000204 	addi	r8,r8,8
    1c58:	d8802c17 	ldw	r2,176(sp)
    1c5c:	10000c26 	beq	r2,zero,1c90 <___svfprintf_internal_r+0x884>
    1c60:	d8801f17 	ldw	r2,124(sp)
    1c64:	d9002704 	addi	r4,sp,156
    1c68:	18c00084 	addi	r3,r3,2
    1c6c:	10800044 	addi	r2,r2,1
    1c70:	41000015 	stw	r4,0(r8)
    1c74:	01000084 	movi	r4,2
    1c78:	41000115 	stw	r4,4(r8)
    1c7c:	d8c02015 	stw	r3,128(sp)
    1c80:	d8801f15 	stw	r2,124(sp)
    1c84:	010001c4 	movi	r4,7
    1c88:	20825416 	blt	r4,r2,25dc <___svfprintf_internal_r+0x11d0>
    1c8c:	42000204 	addi	r8,r8,8
    1c90:	d9003017 	ldw	r4,192(sp)
    1c94:	00802004 	movi	r2,128
    1c98:	2081b926 	beq	r4,r2,2380 <___svfprintf_internal_r+0xf74>
    1c9c:	d9402a17 	ldw	r5,168(sp)
    1ca0:	d8802b17 	ldw	r2,172(sp)
    1ca4:	28adc83a 	sub	r22,r5,r2
    1ca8:	05802f0e 	bge	zero,r22,1d68 <___svfprintf_internal_r+0x95c>
    1cac:	07000404 	movi	fp,16
    1cb0:	d8801f17 	ldw	r2,124(sp)
    1cb4:	e583e20e 	bge	fp,r22,2c40 <___svfprintf_internal_r+0x1834>
    1cb8:	01400074 	movhi	r5,1
    1cbc:	29524b84 	addi	r5,r5,18734
    1cc0:	dc402a15 	stw	r17,168(sp)
    1cc4:	d9402c15 	stw	r5,176(sp)
    1cc8:	b023883a 	mov	r17,r22
    1ccc:	050001c4 	movi	r20,7
    1cd0:	902d883a 	mov	r22,r18
    1cd4:	8025883a 	mov	r18,r16
    1cd8:	dc002d17 	ldw	r16,180(sp)
    1cdc:	00000306 	br	1cec <___svfprintf_internal_r+0x8e0>
    1ce0:	8c7ffc04 	addi	r17,r17,-16
    1ce4:	42000204 	addi	r8,r8,8
    1ce8:	e440110e 	bge	fp,r17,1d30 <___svfprintf_internal_r+0x924>
    1cec:	18c00404 	addi	r3,r3,16
    1cf0:	10800044 	addi	r2,r2,1
    1cf4:	45400015 	stw	r21,0(r8)
    1cf8:	47000115 	stw	fp,4(r8)
    1cfc:	d8c02015 	stw	r3,128(sp)
    1d00:	d8801f15 	stw	r2,124(sp)
    1d04:	a0bff60e 	bge	r20,r2,1ce0 <__alt_mem_VGA_Subsystem_Char_Buf_Subsystem_Onchip_SRAM+0xf7001ce0>
    1d08:	d9801e04 	addi	r6,sp,120
    1d0c:	800b883a 	mov	r5,r16
    1d10:	9809883a 	mov	r4,r19
    1d14:	000a2bc0 	call	a2bc <__ssprint_r>
    1d18:	103ea31e 	bne	r2,zero,17a8 <__alt_mem_VGA_Subsystem_Char_Buf_Subsystem_Onchip_SRAM+0xf70017a8>
    1d1c:	8c7ffc04 	addi	r17,r17,-16
    1d20:	d8c02017 	ldw	r3,128(sp)
    1d24:	d8801f17 	ldw	r2,124(sp)
    1d28:	da000404 	addi	r8,sp,16
    1d2c:	e47fef16 	blt	fp,r17,1cec <__alt_mem_VGA_Subsystem_Char_Buf_Subsystem_Onchip_SRAM+0xf7001cec>
    1d30:	9021883a 	mov	r16,r18
    1d34:	b025883a 	mov	r18,r22
    1d38:	882d883a 	mov	r22,r17
    1d3c:	dc402a17 	ldw	r17,168(sp)
    1d40:	d9002c17 	ldw	r4,176(sp)
    1d44:	1d87883a 	add	r3,r3,r22
    1d48:	10800044 	addi	r2,r2,1
    1d4c:	41000015 	stw	r4,0(r8)
    1d50:	45800115 	stw	r22,4(r8)
    1d54:	d8c02015 	stw	r3,128(sp)
    1d58:	d8801f15 	stw	r2,124(sp)
    1d5c:	010001c4 	movi	r4,7
    1d60:	20820e16 	blt	r4,r2,259c <___svfprintf_internal_r+0x1190>
    1d64:	42000204 	addi	r8,r8,8
    1d68:	9080400c 	andi	r2,r18,256
    1d6c:	10013a1e 	bne	r2,zero,2258 <___svfprintf_internal_r+0xe4c>
    1d70:	d9402b17 	ldw	r5,172(sp)
    1d74:	d8801f17 	ldw	r2,124(sp)
    1d78:	44000015 	stw	r16,0(r8)
    1d7c:	1947883a 	add	r3,r3,r5
    1d80:	10800044 	addi	r2,r2,1
    1d84:	41400115 	stw	r5,4(r8)
    1d88:	d8c02015 	stw	r3,128(sp)
    1d8c:	d8801f15 	stw	r2,124(sp)
    1d90:	010001c4 	movi	r4,7
    1d94:	2081f316 	blt	r4,r2,2564 <___svfprintf_internal_r+0x1158>
    1d98:	42000204 	addi	r8,r8,8
    1d9c:	9480010c 	andi	r18,r18,4
    1da0:	90003226 	beq	r18,zero,1e6c <___svfprintf_internal_r+0xa60>
    1da4:	d9403117 	ldw	r5,196(sp)
    1da8:	d8802917 	ldw	r2,164(sp)
    1dac:	28a1c83a 	sub	r16,r5,r2
    1db0:	04002e0e 	bge	zero,r16,1e6c <___svfprintf_internal_r+0xa60>
    1db4:	04400404 	movi	r17,16
    1db8:	d8801f17 	ldw	r2,124(sp)
    1dbc:	8c04db0e 	bge	r17,r16,312c <___svfprintf_internal_r+0x1d20>
    1dc0:	01400074 	movhi	r5,1
    1dc4:	29524f84 	addi	r5,r5,18750
    1dc8:	d9403515 	stw	r5,212(sp)
    1dcc:	048001c4 	movi	r18,7
    1dd0:	dd002d17 	ldw	r20,180(sp)
    1dd4:	00000306 	br	1de4 <___svfprintf_internal_r+0x9d8>
    1dd8:	843ffc04 	addi	r16,r16,-16
    1ddc:	42000204 	addi	r8,r8,8
    1de0:	8c00130e 	bge	r17,r16,1e30 <___svfprintf_internal_r+0xa24>
    1de4:	01000074 	movhi	r4,1
    1de8:	18c00404 	addi	r3,r3,16
    1dec:	10800044 	addi	r2,r2,1
    1df0:	21124f84 	addi	r4,r4,18750
    1df4:	41000015 	stw	r4,0(r8)
    1df8:	44400115 	stw	r17,4(r8)
    1dfc:	d8c02015 	stw	r3,128(sp)
    1e00:	d8801f15 	stw	r2,124(sp)
    1e04:	90bff40e 	bge	r18,r2,1dd8 <__alt_mem_VGA_Subsystem_Char_Buf_Subsystem_Onchip_SRAM+0xf7001dd8>
    1e08:	d9801e04 	addi	r6,sp,120
    1e0c:	a00b883a 	mov	r5,r20
    1e10:	9809883a 	mov	r4,r19
    1e14:	000a2bc0 	call	a2bc <__ssprint_r>
    1e18:	103e631e 	bne	r2,zero,17a8 <__alt_mem_VGA_Subsystem_Char_Buf_Subsystem_Onchip_SRAM+0xf70017a8>
    1e1c:	843ffc04 	addi	r16,r16,-16
    1e20:	d8c02017 	ldw	r3,128(sp)
    1e24:	d8801f17 	ldw	r2,124(sp)
    1e28:	da000404 	addi	r8,sp,16
    1e2c:	8c3fed16 	blt	r17,r16,1de4 <__alt_mem_VGA_Subsystem_Char_Buf_Subsystem_Onchip_SRAM+0xf7001de4>
    1e30:	d9403517 	ldw	r5,212(sp)
    1e34:	1c07883a 	add	r3,r3,r16
    1e38:	10800044 	addi	r2,r2,1
    1e3c:	41400015 	stw	r5,0(r8)
    1e40:	44000115 	stw	r16,4(r8)
    1e44:	d8c02015 	stw	r3,128(sp)
    1e48:	d8801f15 	stw	r2,124(sp)
    1e4c:	010001c4 	movi	r4,7
    1e50:	2080060e 	bge	r4,r2,1e6c <___svfprintf_internal_r+0xa60>
    1e54:	d9402d17 	ldw	r5,180(sp)
    1e58:	d9801e04 	addi	r6,sp,120
    1e5c:	9809883a 	mov	r4,r19
    1e60:	000a2bc0 	call	a2bc <__ssprint_r>
    1e64:	103e501e 	bne	r2,zero,17a8 <__alt_mem_VGA_Subsystem_Char_Buf_Subsystem_Onchip_SRAM+0xf70017a8>
    1e68:	d8c02017 	ldw	r3,128(sp)
    1e6c:	d8803117 	ldw	r2,196(sp)
    1e70:	d9002917 	ldw	r4,164(sp)
    1e74:	1100010e 	bge	r2,r4,1e7c <___svfprintf_internal_r+0xa70>
    1e78:	2005883a 	mov	r2,r4
    1e7c:	d9402f17 	ldw	r5,188(sp)
    1e80:	288b883a 	add	r5,r5,r2
    1e84:	d9402f15 	stw	r5,188(sp)
    1e88:	1801be1e 	bne	r3,zero,2584 <___svfprintf_internal_r+0x1178>
    1e8c:	b8800007 	ldb	r2,0(r23)
    1e90:	d8001f15 	stw	zero,124(sp)
    1e94:	da000404 	addi	r8,sp,16
    1e98:	103d891e 	bne	r2,zero,14c0 <__alt_mem_VGA_Subsystem_Char_Buf_Subsystem_Onchip_SRAM+0xf70014c0>
    1e9c:	b823883a 	mov	r17,r23
    1ea0:	003d9f06 	br	1520 <__alt_mem_VGA_Subsystem_Char_Buf_Subsystem_Onchip_SRAM+0xf7001520>
    1ea4:	8025883a 	mov	r18,r16
    1ea8:	dc002903 	ldbu	r16,164(sp)
    1eac:	e011883a 	mov	r8,fp
    1eb0:	84003fcc 	andi	r16,r16,255
    1eb4:	8005e61e 	bne	r16,zero,3650 <___svfprintf_internal_r+0x2244>
    1eb8:	94800414 	ori	r18,r18,16
    1ebc:	9080080c 	andi	r2,r18,32
    1ec0:	10022026 	beq	r2,zero,2744 <___svfprintf_internal_r+0x1338>
    1ec4:	d9002e17 	ldw	r4,184(sp)
    1ec8:	d9402a17 	ldw	r5,168(sp)
    1ecc:	d8002785 	stb	zero,158(sp)
    1ed0:	20c00204 	addi	r3,r4,8
    1ed4:	25000017 	ldw	r20,0(r4)
    1ed8:	25800117 	ldw	r22,4(r4)
    1edc:	2803ad16 	blt	r5,zero,2d94 <___svfprintf_internal_r+0x1988>
    1ee0:	013fdfc4 	movi	r4,-129
    1ee4:	a584b03a 	or	r2,r20,r22
    1ee8:	d8c02e15 	stw	r3,184(sp)
    1eec:	9124703a 	and	r18,r18,r4
    1ef0:	0039883a 	mov	fp,zero
    1ef4:	103eb01e 	bne	r2,zero,19b8 <__alt_mem_VGA_Subsystem_Char_Buf_Subsystem_Onchip_SRAM+0xf70019b8>
    1ef8:	d8802a17 	ldw	r2,168(sp)
    1efc:	1002e71e 	bne	r2,zero,2a9c <___svfprintf_internal_r+0x1690>
    1f00:	d8002a15 	stw	zero,168(sp)
    1f04:	d8002b15 	stw	zero,172(sp)
    1f08:	dc001e04 	addi	r16,sp,120
    1f0c:	003ef706 	br	1aec <__alt_mem_VGA_Subsystem_Char_Buf_Subsystem_Onchip_SRAM+0xf7001aec>
    1f10:	8025883a 	mov	r18,r16
    1f14:	dc002903 	ldbu	r16,164(sp)
    1f18:	e011883a 	mov	r8,fp
    1f1c:	84003fcc 	andi	r16,r16,255
    1f20:	8005c81e 	bne	r16,zero,3644 <___svfprintf_internal_r+0x2238>
    1f24:	01000074 	movhi	r4,1
    1f28:	21123f04 	addi	r4,r4,18684
    1f2c:	d9003a15 	stw	r4,232(sp)
    1f30:	9080080c 	andi	r2,r18,32
    1f34:	10007226 	beq	r2,zero,2100 <___svfprintf_internal_r+0xcf4>
    1f38:	d9402e17 	ldw	r5,184(sp)
    1f3c:	2d000017 	ldw	r20,0(r5)
    1f40:	2d800117 	ldw	r22,4(r5)
    1f44:	29400204 	addi	r5,r5,8
    1f48:	d9402e15 	stw	r5,184(sp)
    1f4c:	9080004c 	andi	r2,r18,1
    1f50:	1001aa26 	beq	r2,zero,25fc <___svfprintf_internal_r+0x11f0>
    1f54:	a584b03a 	or	r2,r20,r22
    1f58:	10032526 	beq	r2,zero,2bf0 <___svfprintf_internal_r+0x17e4>
    1f5c:	d8c02a17 	ldw	r3,168(sp)
    1f60:	00800c04 	movi	r2,48
    1f64:	d8802705 	stb	r2,156(sp)
    1f68:	dc402745 	stb	r17,157(sp)
    1f6c:	d8002785 	stb	zero,158(sp)
    1f70:	90800094 	ori	r2,r18,2
    1f74:	1804a316 	blt	r3,zero,3204 <___svfprintf_internal_r+0x1df8>
    1f78:	00bfdfc4 	movi	r2,-129
    1f7c:	90a4703a 	and	r18,r18,r2
    1f80:	94800094 	ori	r18,r18,2
    1f84:	0039883a 	mov	fp,zero
    1f88:	d9003a17 	ldw	r4,232(sp)
    1f8c:	dc001e04 	addi	r16,sp,120
    1f90:	a08003cc 	andi	r2,r20,15
    1f94:	b006973a 	slli	r3,r22,28
    1f98:	2085883a 	add	r2,r4,r2
    1f9c:	a028d13a 	srli	r20,r20,4
    1fa0:	10800003 	ldbu	r2,0(r2)
    1fa4:	b02cd13a 	srli	r22,r22,4
    1fa8:	843fffc4 	addi	r16,r16,-1
    1fac:	1d28b03a 	or	r20,r3,r20
    1fb0:	80800005 	stb	r2,0(r16)
    1fb4:	a584b03a 	or	r2,r20,r22
    1fb8:	103ff51e 	bne	r2,zero,1f90 <__alt_mem_VGA_Subsystem_Char_Buf_Subsystem_Onchip_SRAM+0xf7001f90>
    1fbc:	d8c02817 	ldw	r3,160(sp)
    1fc0:	1c07c83a 	sub	r3,r3,r16
    1fc4:	d8c02b15 	stw	r3,172(sp)
    1fc8:	003ec806 	br	1aec <__alt_mem_VGA_Subsystem_Char_Buf_Subsystem_Onchip_SRAM+0xf7001aec>
    1fcc:	d8c02e17 	ldw	r3,184(sp)
    1fd0:	d9002e17 	ldw	r4,184(sp)
    1fd4:	8025883a 	mov	r18,r16
    1fd8:	18800017 	ldw	r2,0(r3)
    1fdc:	21000104 	addi	r4,r4,4
    1fe0:	00c00044 	movi	r3,1
    1fe4:	e011883a 	mov	r8,fp
    1fe8:	d8c02915 	stw	r3,164(sp)
    1fec:	d8002785 	stb	zero,158(sp)
    1ff0:	d8801405 	stb	r2,80(sp)
    1ff4:	d9002e15 	stw	r4,184(sp)
    1ff8:	d8c02b15 	stw	r3,172(sp)
    1ffc:	d8002a15 	stw	zero,168(sp)
    2000:	d8003215 	stw	zero,200(sp)
    2004:	dc001404 	addi	r16,sp,80
    2008:	0039883a 	mov	fp,zero
    200c:	003ec406 	br	1b20 <__alt_mem_VGA_Subsystem_Char_Buf_Subsystem_Onchip_SRAM+0xf7001b20>
    2010:	8025883a 	mov	r18,r16
    2014:	dc002903 	ldbu	r16,164(sp)
    2018:	e011883a 	mov	r8,fp
    201c:	84003fcc 	andi	r16,r16,255
    2020:	803e8726 	beq	r16,zero,1a40 <__alt_mem_VGA_Subsystem_Char_Buf_Subsystem_Onchip_SRAM+0xf7001a40>
    2024:	d8c02b03 	ldbu	r3,172(sp)
    2028:	d8c02785 	stb	r3,158(sp)
    202c:	003e8406 	br	1a40 <__alt_mem_VGA_Subsystem_Char_Buf_Subsystem_Onchip_SRAM+0xf7001a40>
    2030:	00c00044 	movi	r3,1
    2034:	d8c02905 	stb	r3,164(sp)
    2038:	00c00ac4 	movi	r3,43
    203c:	d8c02b05 	stb	r3,172(sp)
    2040:	bc400007 	ldb	r17,0(r23)
    2044:	003d4606 	br	1560 <__alt_mem_VGA_Subsystem_Char_Buf_Subsystem_Onchip_SRAM+0xf7001560>
    2048:	84000814 	ori	r16,r16,32
    204c:	bc400007 	ldb	r17,0(r23)
    2050:	003d4306 	br	1560 <__alt_mem_VGA_Subsystem_Char_Buf_Subsystem_Onchip_SRAM+0xf7001560>
    2054:	d8802e17 	ldw	r2,184(sp)
    2058:	8025883a 	mov	r18,r16
    205c:	d8002785 	stb	zero,158(sp)
    2060:	14000017 	ldw	r16,0(r2)
    2064:	e011883a 	mov	r8,fp
    2068:	15000104 	addi	r20,r2,4
    206c:	80042126 	beq	r16,zero,30f4 <___svfprintf_internal_r+0x1ce8>
    2070:	d8c02a17 	ldw	r3,168(sp)
    2074:	1803ee16 	blt	r3,zero,3030 <___svfprintf_internal_r+0x1c24>
    2078:	180d883a 	mov	r6,r3
    207c:	000b883a 	mov	r5,zero
    2080:	8009883a 	mov	r4,r16
    2084:	df003e15 	stw	fp,248(sp)
    2088:	0008b380 	call	8b38 <memchr>
    208c:	da003e17 	ldw	r8,248(sp)
    2090:	10046a26 	beq	r2,zero,323c <___svfprintf_internal_r+0x1e30>
    2094:	1405c83a 	sub	r2,r2,r16
    2098:	d8802b15 	stw	r2,172(sp)
    209c:	1003ea16 	blt	r2,zero,3048 <___svfprintf_internal_r+0x1c3c>
    20a0:	df002783 	ldbu	fp,158(sp)
    20a4:	d8802915 	stw	r2,164(sp)
    20a8:	dd002e15 	stw	r20,184(sp)
    20ac:	d8002a15 	stw	zero,168(sp)
    20b0:	d8003215 	stw	zero,200(sp)
    20b4:	003e9306 	br	1b04 <__alt_mem_VGA_Subsystem_Char_Buf_Subsystem_Onchip_SRAM+0xf7001b04>
    20b8:	8025883a 	mov	r18,r16
    20bc:	dc002903 	ldbu	r16,164(sp)
    20c0:	e011883a 	mov	r8,fp
    20c4:	84003fcc 	andi	r16,r16,255
    20c8:	803f7c26 	beq	r16,zero,1ebc <__alt_mem_VGA_Subsystem_Char_Buf_Subsystem_Onchip_SRAM+0xf7001ebc>
    20cc:	d8c02b03 	ldbu	r3,172(sp)
    20d0:	d8c02785 	stb	r3,158(sp)
    20d4:	003f7906 	br	1ebc <__alt_mem_VGA_Subsystem_Char_Buf_Subsystem_Onchip_SRAM+0xf7001ebc>
    20d8:	8025883a 	mov	r18,r16
    20dc:	dc002903 	ldbu	r16,164(sp)
    20e0:	e011883a 	mov	r8,fp
    20e4:	84003fcc 	andi	r16,r16,255
    20e8:	8005741e 	bne	r16,zero,36bc <___svfprintf_internal_r+0x22b0>
    20ec:	01000074 	movhi	r4,1
    20f0:	21124404 	addi	r4,r4,18704
    20f4:	d9003a15 	stw	r4,232(sp)
    20f8:	9080080c 	andi	r2,r18,32
    20fc:	103f8e1e 	bne	r2,zero,1f38 <__alt_mem_VGA_Subsystem_Char_Buf_Subsystem_Onchip_SRAM+0xf7001f38>
    2100:	9080040c 	andi	r2,r18,16
    2104:	1002a726 	beq	r2,zero,2ba4 <___svfprintf_internal_r+0x1798>
    2108:	d8802e17 	ldw	r2,184(sp)
    210c:	002d883a 	mov	r22,zero
    2110:	15000017 	ldw	r20,0(r2)
    2114:	10800104 	addi	r2,r2,4
    2118:	d8802e15 	stw	r2,184(sp)
    211c:	003f8b06 	br	1f4c <__alt_mem_VGA_Subsystem_Char_Buf_Subsystem_Onchip_SRAM+0xf7001f4c>
    2120:	84000054 	ori	r16,r16,1
    2124:	bc400007 	ldb	r17,0(r23)
    2128:	003d0d06 	br	1560 <__alt_mem_VGA_Subsystem_Char_Buf_Subsystem_Onchip_SRAM+0xf7001560>
    212c:	d8802b07 	ldb	r2,172(sp)
    2130:	1002a41e 	bne	r2,zero,2bc4 <___svfprintf_internal_r+0x17b8>
    2134:	00c00044 	movi	r3,1
    2138:	d8c02905 	stb	r3,164(sp)
    213c:	00c00804 	movi	r3,32
    2140:	d8c02b05 	stb	r3,172(sp)
    2144:	bc400007 	ldb	r17,0(r23)
    2148:	003d0506 	br	1560 <__alt_mem_VGA_Subsystem_Char_Buf_Subsystem_Onchip_SRAM+0xf7001560>
    214c:	8025883a 	mov	r18,r16
    2150:	dc002903 	ldbu	r16,164(sp)
    2154:	e011883a 	mov	r8,fp
    2158:	84003fcc 	andi	r16,r16,255
    215c:	803e0626 	beq	r16,zero,1978 <__alt_mem_VGA_Subsystem_Char_Buf_Subsystem_Onchip_SRAM+0xf7001978>
    2160:	d8c02b03 	ldbu	r3,172(sp)
    2164:	d8c02785 	stb	r3,158(sp)
    2168:	003e0306 	br	1978 <__alt_mem_VGA_Subsystem_Char_Buf_Subsystem_Onchip_SRAM+0xf7001978>
    216c:	bc400007 	ldb	r17,0(r23)
    2170:	00801b04 	movi	r2,108
    2174:	88830a26 	beq	r17,r2,2da0 <___svfprintf_internal_r+0x1994>
    2178:	84000414 	ori	r16,r16,16
    217c:	003cf806 	br	1560 <__alt_mem_VGA_Subsystem_Char_Buf_Subsystem_Onchip_SRAM+0xf7001560>
    2180:	8025883a 	mov	r18,r16
    2184:	dc002903 	ldbu	r16,164(sp)
    2188:	e011883a 	mov	r8,fp
    218c:	84003fcc 	andi	r16,r16,255
    2190:	8005471e 	bne	r16,zero,36b0 <___svfprintf_internal_r+0x22a4>
    2194:	9080080c 	andi	r2,r18,32
    2198:	10028c26 	beq	r2,zero,2bcc <___svfprintf_internal_r+0x17c0>
    219c:	d9002e17 	ldw	r4,184(sp)
    21a0:	d9402f17 	ldw	r5,188(sp)
    21a4:	20800017 	ldw	r2,0(r4)
    21a8:	2807d7fa 	srai	r3,r5,31
    21ac:	21000104 	addi	r4,r4,4
    21b0:	d9002e15 	stw	r4,184(sp)
    21b4:	11400015 	stw	r5,0(r2)
    21b8:	10c00115 	stw	r3,4(r2)
    21bc:	003cbe06 	br	14b8 <__alt_mem_VGA_Subsystem_Char_Buf_Subsystem_Onchip_SRAM+0xf70014b8>
    21c0:	84001014 	ori	r16,r16,64
    21c4:	bc400007 	ldb	r17,0(r23)
    21c8:	003ce506 	br	1560 <__alt_mem_VGA_Subsystem_Char_Buf_Subsystem_Onchip_SRAM+0xf7001560>
    21cc:	01000074 	movhi	r4,1
    21d0:	21124404 	addi	r4,r4,18704
    21d4:	0039883a 	mov	fp,zero
    21d8:	d9003a15 	stw	r4,232(sp)
    21dc:	04401e04 	movi	r17,120
    21e0:	003f6906 	br	1f88 <__alt_mem_VGA_Subsystem_Char_Buf_Subsystem_Onchip_SRAM+0xf7001f88>
    21e4:	8025883a 	mov	r18,r16
    21e8:	dc002903 	ldbu	r16,164(sp)
    21ec:	e011883a 	mov	r8,fp
    21f0:	84003fcc 	andi	r16,r16,255
    21f4:	8005261e 	bne	r16,zero,3690 <___svfprintf_internal_r+0x2284>
    21f8:	883d6526 	beq	r17,zero,1790 <__alt_mem_VGA_Subsystem_Char_Buf_Subsystem_Onchip_SRAM+0xf7001790>
    21fc:	00c00044 	movi	r3,1
    2200:	d8c02915 	stw	r3,164(sp)
    2204:	dc401405 	stb	r17,80(sp)
    2208:	d8002785 	stb	zero,158(sp)
    220c:	003f7a06 	br	1ff8 <__alt_mem_VGA_Subsystem_Char_Buf_Subsystem_Onchip_SRAM+0xf7001ff8>
    2210:	01000074 	movhi	r4,1
    2214:	21124404 	addi	r4,r4,18704
    2218:	d9003a15 	stw	r4,232(sp)
    221c:	d8c02e15 	stw	r3,184(sp)
    2220:	1025883a 	mov	r18,r2
    2224:	04401e04 	movi	r17,120
    2228:	a584b03a 	or	r2,r20,r22
    222c:	1000fa1e 	bne	r2,zero,2618 <___svfprintf_internal_r+0x120c>
    2230:	0039883a 	mov	fp,zero
    2234:	00800084 	movi	r2,2
    2238:	10803fcc 	andi	r2,r2,255
    223c:	00c00044 	movi	r3,1
    2240:	10c21626 	beq	r2,r3,2a9c <___svfprintf_internal_r+0x1690>
    2244:	00c00084 	movi	r3,2
    2248:	10fe0e1e 	bne	r2,r3,1a84 <__alt_mem_VGA_Subsystem_Char_Buf_Subsystem_Onchip_SRAM+0xf7001a84>
    224c:	003d4606 	br	1768 <__alt_mem_VGA_Subsystem_Char_Buf_Subsystem_Onchip_SRAM+0xf7001768>
    2250:	d8c02017 	ldw	r3,128(sp)
    2254:	003e7306 	br	1c24 <__alt_mem_VGA_Subsystem_Char_Buf_Subsystem_Onchip_SRAM+0xf7001c24>
    2258:	00801944 	movi	r2,101
    225c:	14407c0e 	bge	r2,r17,2450 <___svfprintf_internal_r+0x1044>
    2260:	d9003617 	ldw	r4,216(sp)
    2264:	d9403717 	ldw	r5,220(sp)
    2268:	000d883a 	mov	r6,zero
    226c:	000f883a 	mov	r7,zero
    2270:	d8c03d15 	stw	r3,244(sp)
    2274:	da003e15 	stw	r8,248(sp)
    2278:	00102340 	call	10234 <__eqdf2>
    227c:	d8c03d17 	ldw	r3,244(sp)
    2280:	da003e17 	ldw	r8,248(sp)
    2284:	1000f51e 	bne	r2,zero,265c <___svfprintf_internal_r+0x1250>
    2288:	d8801f17 	ldw	r2,124(sp)
    228c:	01000074 	movhi	r4,1
    2290:	21124b04 	addi	r4,r4,18732
    2294:	18c00044 	addi	r3,r3,1
    2298:	10800044 	addi	r2,r2,1
    229c:	41000015 	stw	r4,0(r8)
    22a0:	01000044 	movi	r4,1
    22a4:	41000115 	stw	r4,4(r8)
    22a8:	d8c02015 	stw	r3,128(sp)
    22ac:	d8801f15 	stw	r2,124(sp)
    22b0:	010001c4 	movi	r4,7
    22b4:	20826616 	blt	r4,r2,2c50 <___svfprintf_internal_r+0x1844>
    22b8:	42000204 	addi	r8,r8,8
    22bc:	d8802617 	ldw	r2,152(sp)
    22c0:	d9403317 	ldw	r5,204(sp)
    22c4:	11400216 	blt	r2,r5,22d0 <___svfprintf_internal_r+0xec4>
    22c8:	9080004c 	andi	r2,r18,1
    22cc:	103eb326 	beq	r2,zero,1d9c <__alt_mem_VGA_Subsystem_Char_Buf_Subsystem_Onchip_SRAM+0xf7001d9c>
    22d0:	d8803817 	ldw	r2,224(sp)
    22d4:	d9003417 	ldw	r4,208(sp)
    22d8:	d9403817 	ldw	r5,224(sp)
    22dc:	1887883a 	add	r3,r3,r2
    22e0:	d8801f17 	ldw	r2,124(sp)
    22e4:	41000015 	stw	r4,0(r8)
    22e8:	41400115 	stw	r5,4(r8)
    22ec:	10800044 	addi	r2,r2,1
    22f0:	d8c02015 	stw	r3,128(sp)
    22f4:	d8801f15 	stw	r2,124(sp)
    22f8:	010001c4 	movi	r4,7
    22fc:	2082af16 	blt	r4,r2,2dbc <___svfprintf_internal_r+0x19b0>
    2300:	42000204 	addi	r8,r8,8
    2304:	d8803317 	ldw	r2,204(sp)
    2308:	143fffc4 	addi	r16,r2,-1
    230c:	043ea30e 	bge	zero,r16,1d9c <__alt_mem_VGA_Subsystem_Char_Buf_Subsystem_Onchip_SRAM+0xf7001d9c>
    2310:	04400404 	movi	r17,16
    2314:	d8801f17 	ldw	r2,124(sp)
    2318:	8c00860e 	bge	r17,r16,2534 <___svfprintf_internal_r+0x1128>
    231c:	01400074 	movhi	r5,1
    2320:	29524b84 	addi	r5,r5,18734
    2324:	d9402c15 	stw	r5,176(sp)
    2328:	058001c4 	movi	r22,7
    232c:	dd002d17 	ldw	r20,180(sp)
    2330:	00000306 	br	2340 <___svfprintf_internal_r+0xf34>
    2334:	42000204 	addi	r8,r8,8
    2338:	843ffc04 	addi	r16,r16,-16
    233c:	8c00800e 	bge	r17,r16,2540 <___svfprintf_internal_r+0x1134>
    2340:	18c00404 	addi	r3,r3,16
    2344:	10800044 	addi	r2,r2,1
    2348:	45400015 	stw	r21,0(r8)
    234c:	44400115 	stw	r17,4(r8)
    2350:	d8c02015 	stw	r3,128(sp)
    2354:	d8801f15 	stw	r2,124(sp)
    2358:	b0bff60e 	bge	r22,r2,2334 <__alt_mem_VGA_Subsystem_Char_Buf_Subsystem_Onchip_SRAM+0xf7002334>
    235c:	d9801e04 	addi	r6,sp,120
    2360:	a00b883a 	mov	r5,r20
    2364:	9809883a 	mov	r4,r19
    2368:	000a2bc0 	call	a2bc <__ssprint_r>
    236c:	103d0e1e 	bne	r2,zero,17a8 <__alt_mem_VGA_Subsystem_Char_Buf_Subsystem_Onchip_SRAM+0xf70017a8>
    2370:	d8c02017 	ldw	r3,128(sp)
    2374:	d8801f17 	ldw	r2,124(sp)
    2378:	da000404 	addi	r8,sp,16
    237c:	003fee06 	br	2338 <__alt_mem_VGA_Subsystem_Char_Buf_Subsystem_Onchip_SRAM+0xf7002338>
    2380:	d9403117 	ldw	r5,196(sp)
    2384:	d8802917 	ldw	r2,164(sp)
    2388:	28adc83a 	sub	r22,r5,r2
    238c:	05be430e 	bge	zero,r22,1c9c <__alt_mem_VGA_Subsystem_Char_Buf_Subsystem_Onchip_SRAM+0xf7001c9c>
    2390:	07000404 	movi	fp,16
    2394:	d8801f17 	ldw	r2,124(sp)
    2398:	e583a20e 	bge	fp,r22,3224 <___svfprintf_internal_r+0x1e18>
    239c:	01400074 	movhi	r5,1
    23a0:	29524b84 	addi	r5,r5,18734
    23a4:	dc403015 	stw	r17,192(sp)
    23a8:	d9402c15 	stw	r5,176(sp)
    23ac:	b023883a 	mov	r17,r22
    23b0:	050001c4 	movi	r20,7
    23b4:	902d883a 	mov	r22,r18
    23b8:	8025883a 	mov	r18,r16
    23bc:	dc002d17 	ldw	r16,180(sp)
    23c0:	00000306 	br	23d0 <___svfprintf_internal_r+0xfc4>
    23c4:	8c7ffc04 	addi	r17,r17,-16
    23c8:	42000204 	addi	r8,r8,8
    23cc:	e440110e 	bge	fp,r17,2414 <___svfprintf_internal_r+0x1008>
    23d0:	18c00404 	addi	r3,r3,16
    23d4:	10800044 	addi	r2,r2,1
    23d8:	45400015 	stw	r21,0(r8)
    23dc:	47000115 	stw	fp,4(r8)
    23e0:	d8c02015 	stw	r3,128(sp)
    23e4:	d8801f15 	stw	r2,124(sp)
    23e8:	a0bff60e 	bge	r20,r2,23c4 <__alt_mem_VGA_Subsystem_Char_Buf_Subsystem_Onchip_SRAM+0xf70023c4>
    23ec:	d9801e04 	addi	r6,sp,120
    23f0:	800b883a 	mov	r5,r16
    23f4:	9809883a 	mov	r4,r19
    23f8:	000a2bc0 	call	a2bc <__ssprint_r>
    23fc:	103cea1e 	bne	r2,zero,17a8 <__alt_mem_VGA_Subsystem_Char_Buf_Subsystem_Onchip_SRAM+0xf70017a8>
    2400:	8c7ffc04 	addi	r17,r17,-16
    2404:	d8c02017 	ldw	r3,128(sp)
    2408:	d8801f17 	ldw	r2,124(sp)
    240c:	da000404 	addi	r8,sp,16
    2410:	e47fef16 	blt	fp,r17,23d0 <__alt_mem_VGA_Subsystem_Char_Buf_Subsystem_Onchip_SRAM+0xf70023d0>
    2414:	9021883a 	mov	r16,r18
    2418:	b025883a 	mov	r18,r22
    241c:	882d883a 	mov	r22,r17
    2420:	dc403017 	ldw	r17,192(sp)
    2424:	d9002c17 	ldw	r4,176(sp)
    2428:	1d87883a 	add	r3,r3,r22
    242c:	10800044 	addi	r2,r2,1
    2430:	41000015 	stw	r4,0(r8)
    2434:	45800115 	stw	r22,4(r8)
    2438:	d8c02015 	stw	r3,128(sp)
    243c:	d8801f15 	stw	r2,124(sp)
    2440:	010001c4 	movi	r4,7
    2444:	20819a16 	blt	r4,r2,2ab0 <___svfprintf_internal_r+0x16a4>
    2448:	42000204 	addi	r8,r8,8
    244c:	003e1306 	br	1c9c <__alt_mem_VGA_Subsystem_Char_Buf_Subsystem_Onchip_SRAM+0xf7001c9c>
    2450:	d9403317 	ldw	r5,204(sp)
    2454:	00800044 	movi	r2,1
    2458:	18c00044 	addi	r3,r3,1
    245c:	1141710e 	bge	r2,r5,2a24 <___svfprintf_internal_r+0x1618>
    2460:	dc401f17 	ldw	r17,124(sp)
    2464:	00800044 	movi	r2,1
    2468:	40800115 	stw	r2,4(r8)
    246c:	8c400044 	addi	r17,r17,1
    2470:	44000015 	stw	r16,0(r8)
    2474:	d8c02015 	stw	r3,128(sp)
    2478:	dc401f15 	stw	r17,124(sp)
    247c:	008001c4 	movi	r2,7
    2480:	14417416 	blt	r2,r17,2a54 <___svfprintf_internal_r+0x1648>
    2484:	42000204 	addi	r8,r8,8
    2488:	d8803817 	ldw	r2,224(sp)
    248c:	d9003417 	ldw	r4,208(sp)
    2490:	8c400044 	addi	r17,r17,1
    2494:	10c7883a 	add	r3,r2,r3
    2498:	40800115 	stw	r2,4(r8)
    249c:	41000015 	stw	r4,0(r8)
    24a0:	d8c02015 	stw	r3,128(sp)
    24a4:	dc401f15 	stw	r17,124(sp)
    24a8:	008001c4 	movi	r2,7
    24ac:	14417216 	blt	r2,r17,2a78 <___svfprintf_internal_r+0x166c>
    24b0:	45800204 	addi	r22,r8,8
    24b4:	d9003617 	ldw	r4,216(sp)
    24b8:	d9403717 	ldw	r5,220(sp)
    24bc:	000d883a 	mov	r6,zero
    24c0:	000f883a 	mov	r7,zero
    24c4:	d8c03d15 	stw	r3,244(sp)
    24c8:	00102340 	call	10234 <__eqdf2>
    24cc:	d8c03d17 	ldw	r3,244(sp)
    24d0:	1000b326 	beq	r2,zero,27a0 <___svfprintf_internal_r+0x1394>
    24d4:	d9403317 	ldw	r5,204(sp)
    24d8:	84000044 	addi	r16,r16,1
    24dc:	8c400044 	addi	r17,r17,1
    24e0:	28bfffc4 	addi	r2,r5,-1
    24e4:	1887883a 	add	r3,r3,r2
    24e8:	b0800115 	stw	r2,4(r22)
    24ec:	b4000015 	stw	r16,0(r22)
    24f0:	d8c02015 	stw	r3,128(sp)
    24f4:	dc401f15 	stw	r17,124(sp)
    24f8:	008001c4 	movi	r2,7
    24fc:	1440d216 	blt	r2,r17,2848 <___svfprintf_internal_r+0x143c>
    2500:	b5800204 	addi	r22,r22,8
    2504:	d9003b17 	ldw	r4,236(sp)
    2508:	df0022c4 	addi	fp,sp,139
    250c:	8c400044 	addi	r17,r17,1
    2510:	20c7883a 	add	r3,r4,r3
    2514:	b7000015 	stw	fp,0(r22)
    2518:	b1000115 	stw	r4,4(r22)
    251c:	d8c02015 	stw	r3,128(sp)
    2520:	dc401f15 	stw	r17,124(sp)
    2524:	008001c4 	movi	r2,7
    2528:	14400e16 	blt	r2,r17,2564 <___svfprintf_internal_r+0x1158>
    252c:	b2000204 	addi	r8,r22,8
    2530:	003e1a06 	br	1d9c <__alt_mem_VGA_Subsystem_Char_Buf_Subsystem_Onchip_SRAM+0xf7001d9c>
    2534:	01000074 	movhi	r4,1
    2538:	21124b84 	addi	r4,r4,18734
    253c:	d9002c15 	stw	r4,176(sp)
    2540:	d9002c17 	ldw	r4,176(sp)
    2544:	1c07883a 	add	r3,r3,r16
    2548:	44000115 	stw	r16,4(r8)
    254c:	41000015 	stw	r4,0(r8)
    2550:	10800044 	addi	r2,r2,1
    2554:	d8c02015 	stw	r3,128(sp)
    2558:	d8801f15 	stw	r2,124(sp)
    255c:	010001c4 	movi	r4,7
    2560:	20be0d0e 	bge	r4,r2,1d98 <__alt_mem_VGA_Subsystem_Char_Buf_Subsystem_Onchip_SRAM+0xf7001d98>
    2564:	d9402d17 	ldw	r5,180(sp)
    2568:	d9801e04 	addi	r6,sp,120
    256c:	9809883a 	mov	r4,r19
    2570:	000a2bc0 	call	a2bc <__ssprint_r>
    2574:	103c8c1e 	bne	r2,zero,17a8 <__alt_mem_VGA_Subsystem_Char_Buf_Subsystem_Onchip_SRAM+0xf70017a8>
    2578:	d8c02017 	ldw	r3,128(sp)
    257c:	da000404 	addi	r8,sp,16
    2580:	003e0606 	br	1d9c <__alt_mem_VGA_Subsystem_Char_Buf_Subsystem_Onchip_SRAM+0xf7001d9c>
    2584:	d9402d17 	ldw	r5,180(sp)
    2588:	d9801e04 	addi	r6,sp,120
    258c:	9809883a 	mov	r4,r19
    2590:	000a2bc0 	call	a2bc <__ssprint_r>
    2594:	103e3d26 	beq	r2,zero,1e8c <__alt_mem_VGA_Subsystem_Char_Buf_Subsystem_Onchip_SRAM+0xf7001e8c>
    2598:	003c8306 	br	17a8 <__alt_mem_VGA_Subsystem_Char_Buf_Subsystem_Onchip_SRAM+0xf70017a8>
    259c:	d9402d17 	ldw	r5,180(sp)
    25a0:	d9801e04 	addi	r6,sp,120
    25a4:	9809883a 	mov	r4,r19
    25a8:	000a2bc0 	call	a2bc <__ssprint_r>
    25ac:	103c7e1e 	bne	r2,zero,17a8 <__alt_mem_VGA_Subsystem_Char_Buf_Subsystem_Onchip_SRAM+0xf70017a8>
    25b0:	d8c02017 	ldw	r3,128(sp)
    25b4:	da000404 	addi	r8,sp,16
    25b8:	003deb06 	br	1d68 <__alt_mem_VGA_Subsystem_Char_Buf_Subsystem_Onchip_SRAM+0xf7001d68>
    25bc:	d9402d17 	ldw	r5,180(sp)
    25c0:	d9801e04 	addi	r6,sp,120
    25c4:	9809883a 	mov	r4,r19
    25c8:	000a2bc0 	call	a2bc <__ssprint_r>
    25cc:	103c761e 	bne	r2,zero,17a8 <__alt_mem_VGA_Subsystem_Char_Buf_Subsystem_Onchip_SRAM+0xf70017a8>
    25d0:	d8c02017 	ldw	r3,128(sp)
    25d4:	da000404 	addi	r8,sp,16
    25d8:	003d9f06 	br	1c58 <__alt_mem_VGA_Subsystem_Char_Buf_Subsystem_Onchip_SRAM+0xf7001c58>
    25dc:	d9402d17 	ldw	r5,180(sp)
    25e0:	d9801e04 	addi	r6,sp,120
    25e4:	9809883a 	mov	r4,r19
    25e8:	000a2bc0 	call	a2bc <__ssprint_r>
    25ec:	103c6e1e 	bne	r2,zero,17a8 <__alt_mem_VGA_Subsystem_Char_Buf_Subsystem_Onchip_SRAM+0xf70017a8>
    25f0:	d8c02017 	ldw	r3,128(sp)
    25f4:	da000404 	addi	r8,sp,16
    25f8:	003da506 	br	1c90 <__alt_mem_VGA_Subsystem_Char_Buf_Subsystem_Onchip_SRAM+0xf7001c90>
    25fc:	d9402a17 	ldw	r5,168(sp)
    2600:	d8002785 	stb	zero,158(sp)
    2604:	283f0816 	blt	r5,zero,2228 <__alt_mem_VGA_Subsystem_Char_Buf_Subsystem_Onchip_SRAM+0xf7002228>
    2608:	00ffdfc4 	movi	r3,-129
    260c:	a584b03a 	or	r2,r20,r22
    2610:	90e4703a 	and	r18,r18,r3
    2614:	103c5126 	beq	r2,zero,175c <__alt_mem_VGA_Subsystem_Char_Buf_Subsystem_Onchip_SRAM+0xf700175c>
    2618:	0039883a 	mov	fp,zero
    261c:	003e5a06 	br	1f88 <__alt_mem_VGA_Subsystem_Char_Buf_Subsystem_Onchip_SRAM+0xf7001f88>
    2620:	9080040c 	andi	r2,r18,16
    2624:	10013d26 	beq	r2,zero,2b1c <___svfprintf_internal_r+0x1710>
    2628:	d8c02e17 	ldw	r3,184(sp)
    262c:	d9002a17 	ldw	r4,168(sp)
    2630:	d8002785 	stb	zero,158(sp)
    2634:	18800104 	addi	r2,r3,4
    2638:	1d000017 	ldw	r20,0(r3)
    263c:	002d883a 	mov	r22,zero
    2640:	20013f16 	blt	r4,zero,2b40 <___svfprintf_internal_r+0x1734>
    2644:	00ffdfc4 	movi	r3,-129
    2648:	d8802e15 	stw	r2,184(sp)
    264c:	90e4703a 	and	r18,r18,r3
    2650:	a03d0926 	beq	r20,zero,1a78 <__alt_mem_VGA_Subsystem_Char_Buf_Subsystem_Onchip_SRAM+0xf7001a78>
    2654:	0039883a 	mov	fp,zero
    2658:	003d0c06 	br	1a8c <__alt_mem_VGA_Subsystem_Char_Buf_Subsystem_Onchip_SRAM+0xf7001a8c>
    265c:	dc402617 	ldw	r17,152(sp)
    2660:	0441830e 	bge	zero,r17,2c70 <___svfprintf_internal_r+0x1864>
    2664:	dc403217 	ldw	r17,200(sp)
    2668:	d8803317 	ldw	r2,204(sp)
    266c:	1440010e 	bge	r2,r17,2674 <___svfprintf_internal_r+0x1268>
    2670:	1023883a 	mov	r17,r2
    2674:	04400a0e 	bge	zero,r17,26a0 <___svfprintf_internal_r+0x1294>
    2678:	d8801f17 	ldw	r2,124(sp)
    267c:	1c47883a 	add	r3,r3,r17
    2680:	44000015 	stw	r16,0(r8)
    2684:	10800044 	addi	r2,r2,1
    2688:	44400115 	stw	r17,4(r8)
    268c:	d8c02015 	stw	r3,128(sp)
    2690:	d8801f15 	stw	r2,124(sp)
    2694:	010001c4 	movi	r4,7
    2698:	20827516 	blt	r4,r2,3070 <___svfprintf_internal_r+0x1c64>
    269c:	42000204 	addi	r8,r8,8
    26a0:	88027b16 	blt	r17,zero,3090 <___svfprintf_internal_r+0x1c84>
    26a4:	d9003217 	ldw	r4,200(sp)
    26a8:	2463c83a 	sub	r17,r4,r17
    26ac:	0440990e 	bge	zero,r17,2914 <___svfprintf_internal_r+0x1508>
    26b0:	05800404 	movi	r22,16
    26b4:	d8801f17 	ldw	r2,124(sp)
    26b8:	b441530e 	bge	r22,r17,2c08 <___svfprintf_internal_r+0x17fc>
    26bc:	01000074 	movhi	r4,1
    26c0:	21124b84 	addi	r4,r4,18734
    26c4:	d9002c15 	stw	r4,176(sp)
    26c8:	070001c4 	movi	fp,7
    26cc:	dd002d17 	ldw	r20,180(sp)
    26d0:	00000306 	br	26e0 <___svfprintf_internal_r+0x12d4>
    26d4:	42000204 	addi	r8,r8,8
    26d8:	8c7ffc04 	addi	r17,r17,-16
    26dc:	b4414d0e 	bge	r22,r17,2c14 <___svfprintf_internal_r+0x1808>
    26e0:	18c00404 	addi	r3,r3,16
    26e4:	10800044 	addi	r2,r2,1
    26e8:	45400015 	stw	r21,0(r8)
    26ec:	45800115 	stw	r22,4(r8)
    26f0:	d8c02015 	stw	r3,128(sp)
    26f4:	d8801f15 	stw	r2,124(sp)
    26f8:	e0bff60e 	bge	fp,r2,26d4 <__alt_mem_VGA_Subsystem_Char_Buf_Subsystem_Onchip_SRAM+0xf70026d4>
    26fc:	d9801e04 	addi	r6,sp,120
    2700:	a00b883a 	mov	r5,r20
    2704:	9809883a 	mov	r4,r19
    2708:	000a2bc0 	call	a2bc <__ssprint_r>
    270c:	103c261e 	bne	r2,zero,17a8 <__alt_mem_VGA_Subsystem_Char_Buf_Subsystem_Onchip_SRAM+0xf70017a8>
    2710:	d8c02017 	ldw	r3,128(sp)
    2714:	d8801f17 	ldw	r2,124(sp)
    2718:	da000404 	addi	r8,sp,16
    271c:	003fee06 	br	26d8 <__alt_mem_VGA_Subsystem_Char_Buf_Subsystem_Onchip_SRAM+0xf70026d8>
    2720:	d9402d17 	ldw	r5,180(sp)
    2724:	d9801e04 	addi	r6,sp,120
    2728:	9809883a 	mov	r4,r19
    272c:	000a2bc0 	call	a2bc <__ssprint_r>
    2730:	103c1d1e 	bne	r2,zero,17a8 <__alt_mem_VGA_Subsystem_Char_Buf_Subsystem_Onchip_SRAM+0xf70017a8>
    2734:	d8c02017 	ldw	r3,128(sp)
    2738:	df002787 	ldb	fp,158(sp)
    273c:	da000404 	addi	r8,sp,16
    2740:	003d3806 	br	1c24 <__alt_mem_VGA_Subsystem_Char_Buf_Subsystem_Onchip_SRAM+0xf7001c24>
    2744:	9080040c 	andi	r2,r18,16
    2748:	10005c26 	beq	r2,zero,28bc <___svfprintf_internal_r+0x14b0>
    274c:	d8c02e17 	ldw	r3,184(sp)
    2750:	d9002a17 	ldw	r4,168(sp)
    2754:	d8002785 	stb	zero,158(sp)
    2758:	18800104 	addi	r2,r3,4
    275c:	1d000017 	ldw	r20,0(r3)
    2760:	002d883a 	mov	r22,zero
    2764:	20005e16 	blt	r4,zero,28e0 <___svfprintf_internal_r+0x14d4>
    2768:	00ffdfc4 	movi	r3,-129
    276c:	d8802e15 	stw	r2,184(sp)
    2770:	90e4703a 	and	r18,r18,r3
    2774:	0039883a 	mov	fp,zero
    2778:	a03ddf26 	beq	r20,zero,1ef8 <__alt_mem_VGA_Subsystem_Char_Buf_Subsystem_Onchip_SRAM+0xf7001ef8>
    277c:	00800244 	movi	r2,9
    2780:	153c8e36 	bltu	r2,r20,19bc <__alt_mem_VGA_Subsystem_Char_Buf_Subsystem_Onchip_SRAM+0xf70019bc>
    2784:	a5000c04 	addi	r20,r20,48
    2788:	dc001dc4 	addi	r16,sp,119
    278c:	dd001dc5 	stb	r20,119(sp)
    2790:	d8c02817 	ldw	r3,160(sp)
    2794:	1c07c83a 	sub	r3,r3,r16
    2798:	d8c02b15 	stw	r3,172(sp)
    279c:	003cd306 	br	1aec <__alt_mem_VGA_Subsystem_Char_Buf_Subsystem_Onchip_SRAM+0xf7001aec>
    27a0:	d8803317 	ldw	r2,204(sp)
    27a4:	143fffc4 	addi	r16,r2,-1
    27a8:	043f560e 	bge	zero,r16,2504 <__alt_mem_VGA_Subsystem_Char_Buf_Subsystem_Onchip_SRAM+0xf7002504>
    27ac:	07000404 	movi	fp,16
    27b0:	e403530e 	bge	fp,r16,3500 <___svfprintf_internal_r+0x20f4>
    27b4:	01400074 	movhi	r5,1
    27b8:	29524b84 	addi	r5,r5,18734
    27bc:	d9402c15 	stw	r5,176(sp)
    27c0:	01c001c4 	movi	r7,7
    27c4:	dd002d17 	ldw	r20,180(sp)
    27c8:	00000306 	br	27d8 <___svfprintf_internal_r+0x13cc>
    27cc:	843ffc04 	addi	r16,r16,-16
    27d0:	b5800204 	addi	r22,r22,8
    27d4:	e400130e 	bge	fp,r16,2824 <___svfprintf_internal_r+0x1418>
    27d8:	18c00404 	addi	r3,r3,16
    27dc:	8c400044 	addi	r17,r17,1
    27e0:	b5400015 	stw	r21,0(r22)
    27e4:	b7000115 	stw	fp,4(r22)
    27e8:	d8c02015 	stw	r3,128(sp)
    27ec:	dc401f15 	stw	r17,124(sp)
    27f0:	3c7ff60e 	bge	r7,r17,27cc <__alt_mem_VGA_Subsystem_Char_Buf_Subsystem_Onchip_SRAM+0xf70027cc>
    27f4:	d9801e04 	addi	r6,sp,120
    27f8:	a00b883a 	mov	r5,r20
    27fc:	9809883a 	mov	r4,r19
    2800:	d9c03d15 	stw	r7,244(sp)
    2804:	000a2bc0 	call	a2bc <__ssprint_r>
    2808:	d9c03d17 	ldw	r7,244(sp)
    280c:	103be61e 	bne	r2,zero,17a8 <__alt_mem_VGA_Subsystem_Char_Buf_Subsystem_Onchip_SRAM+0xf70017a8>
    2810:	843ffc04 	addi	r16,r16,-16
    2814:	d8c02017 	ldw	r3,128(sp)
    2818:	dc401f17 	ldw	r17,124(sp)
    281c:	dd800404 	addi	r22,sp,16
    2820:	e43fed16 	blt	fp,r16,27d8 <__alt_mem_VGA_Subsystem_Char_Buf_Subsystem_Onchip_SRAM+0xf70027d8>
    2824:	d8802c17 	ldw	r2,176(sp)
    2828:	1c07883a 	add	r3,r3,r16
    282c:	8c400044 	addi	r17,r17,1
    2830:	b0800015 	stw	r2,0(r22)
    2834:	b4000115 	stw	r16,4(r22)
    2838:	d8c02015 	stw	r3,128(sp)
    283c:	dc401f15 	stw	r17,124(sp)
    2840:	008001c4 	movi	r2,7
    2844:	147f2e0e 	bge	r2,r17,2500 <__alt_mem_VGA_Subsystem_Char_Buf_Subsystem_Onchip_SRAM+0xf7002500>
    2848:	d9402d17 	ldw	r5,180(sp)
    284c:	d9801e04 	addi	r6,sp,120
    2850:	9809883a 	mov	r4,r19
    2854:	000a2bc0 	call	a2bc <__ssprint_r>
    2858:	103bd31e 	bne	r2,zero,17a8 <__alt_mem_VGA_Subsystem_Char_Buf_Subsystem_Onchip_SRAM+0xf70017a8>
    285c:	d8c02017 	ldw	r3,128(sp)
    2860:	dc401f17 	ldw	r17,124(sp)
    2864:	dd800404 	addi	r22,sp,16
    2868:	003f2606 	br	2504 <__alt_mem_VGA_Subsystem_Char_Buf_Subsystem_Onchip_SRAM+0xf7002504>
    286c:	9080040c 	andi	r2,r18,16
    2870:	1000c326 	beq	r2,zero,2b80 <___svfprintf_internal_r+0x1774>
    2874:	d9402e17 	ldw	r5,184(sp)
    2878:	2d000017 	ldw	r20,0(r5)
    287c:	29400104 	addi	r5,r5,4
    2880:	d9402e15 	stw	r5,184(sp)
    2884:	a02dd7fa 	srai	r22,r20,31
    2888:	b005883a 	mov	r2,r22
    288c:	103c430e 	bge	r2,zero,199c <__alt_mem_VGA_Subsystem_Char_Buf_Subsystem_Onchip_SRAM+0xf700199c>
    2890:	d9402a17 	ldw	r5,168(sp)
    2894:	0529c83a 	sub	r20,zero,r20
    2898:	07000b44 	movi	fp,45
    289c:	a004c03a 	cmpne	r2,r20,zero
    28a0:	05adc83a 	sub	r22,zero,r22
    28a4:	df002785 	stb	fp,158(sp)
    28a8:	b0adc83a 	sub	r22,r22,r2
    28ac:	28022e16 	blt	r5,zero,3168 <___svfprintf_internal_r+0x1d5c>
    28b0:	00bfdfc4 	movi	r2,-129
    28b4:	90a4703a 	and	r18,r18,r2
    28b8:	003c3f06 	br	19b8 <__alt_mem_VGA_Subsystem_Char_Buf_Subsystem_Onchip_SRAM+0xf70019b8>
    28bc:	9080100c 	andi	r2,r18,64
    28c0:	d8002785 	stb	zero,158(sp)
    28c4:	10012526 	beq	r2,zero,2d5c <___svfprintf_internal_r+0x1950>
    28c8:	d9402e17 	ldw	r5,184(sp)
    28cc:	d8c02a17 	ldw	r3,168(sp)
    28d0:	002d883a 	mov	r22,zero
    28d4:	28800104 	addi	r2,r5,4
    28d8:	2d00000b 	ldhu	r20,0(r5)
    28dc:	183fa20e 	bge	r3,zero,2768 <__alt_mem_VGA_Subsystem_Char_Buf_Subsystem_Onchip_SRAM+0xf7002768>
    28e0:	d8802e15 	stw	r2,184(sp)
    28e4:	0039883a 	mov	fp,zero
    28e8:	a584b03a 	or	r2,r20,r22
    28ec:	103c321e 	bne	r2,zero,19b8 <__alt_mem_VGA_Subsystem_Char_Buf_Subsystem_Onchip_SRAM+0xf70019b8>
    28f0:	00800044 	movi	r2,1
    28f4:	003e5006 	br	2238 <__alt_mem_VGA_Subsystem_Char_Buf_Subsystem_Onchip_SRAM+0xf7002238>
    28f8:	d9402d17 	ldw	r5,180(sp)
    28fc:	d9801e04 	addi	r6,sp,120
    2900:	9809883a 	mov	r4,r19
    2904:	000a2bc0 	call	a2bc <__ssprint_r>
    2908:	103ba71e 	bne	r2,zero,17a8 <__alt_mem_VGA_Subsystem_Char_Buf_Subsystem_Onchip_SRAM+0xf70017a8>
    290c:	d8c02017 	ldw	r3,128(sp)
    2910:	da000404 	addi	r8,sp,16
    2914:	d9003217 	ldw	r4,200(sp)
    2918:	d8802617 	ldw	r2,152(sp)
    291c:	d9403317 	ldw	r5,204(sp)
    2920:	8123883a 	add	r17,r16,r4
    2924:	11400216 	blt	r2,r5,2930 <___svfprintf_internal_r+0x1524>
    2928:	9100004c 	andi	r4,r18,1
    292c:	20000d26 	beq	r4,zero,2964 <___svfprintf_internal_r+0x1558>
    2930:	d9003817 	ldw	r4,224(sp)
    2934:	d9403417 	ldw	r5,208(sp)
    2938:	1907883a 	add	r3,r3,r4
    293c:	d9001f17 	ldw	r4,124(sp)
    2940:	41400015 	stw	r5,0(r8)
    2944:	d9403817 	ldw	r5,224(sp)
    2948:	21000044 	addi	r4,r4,1
    294c:	d8c02015 	stw	r3,128(sp)
    2950:	41400115 	stw	r5,4(r8)
    2954:	d9001f15 	stw	r4,124(sp)
    2958:	014001c4 	movi	r5,7
    295c:	2901dc16 	blt	r5,r4,30d0 <___svfprintf_internal_r+0x1cc4>
    2960:	42000204 	addi	r8,r8,8
    2964:	d9003317 	ldw	r4,204(sp)
    2968:	8121883a 	add	r16,r16,r4
    296c:	2085c83a 	sub	r2,r4,r2
    2970:	8461c83a 	sub	r16,r16,r17
    2974:	1400010e 	bge	r2,r16,297c <___svfprintf_internal_r+0x1570>
    2978:	1021883a 	mov	r16,r2
    297c:	04000a0e 	bge	zero,r16,29a8 <___svfprintf_internal_r+0x159c>
    2980:	d9001f17 	ldw	r4,124(sp)
    2984:	1c07883a 	add	r3,r3,r16
    2988:	44400015 	stw	r17,0(r8)
    298c:	21000044 	addi	r4,r4,1
    2990:	44000115 	stw	r16,4(r8)
    2994:	d8c02015 	stw	r3,128(sp)
    2998:	d9001f15 	stw	r4,124(sp)
    299c:	014001c4 	movi	r5,7
    29a0:	2901e616 	blt	r5,r4,313c <___svfprintf_internal_r+0x1d30>
    29a4:	42000204 	addi	r8,r8,8
    29a8:	8001f616 	blt	r16,zero,3184 <___svfprintf_internal_r+0x1d78>
    29ac:	1421c83a 	sub	r16,r2,r16
    29b0:	043cfa0e 	bge	zero,r16,1d9c <__alt_mem_VGA_Subsystem_Char_Buf_Subsystem_Onchip_SRAM+0xf7001d9c>
    29b4:	04400404 	movi	r17,16
    29b8:	d8801f17 	ldw	r2,124(sp)
    29bc:	8c3edd0e 	bge	r17,r16,2534 <__alt_mem_VGA_Subsystem_Char_Buf_Subsystem_Onchip_SRAM+0xf7002534>
    29c0:	01400074 	movhi	r5,1
    29c4:	29524b84 	addi	r5,r5,18734
    29c8:	d9402c15 	stw	r5,176(sp)
    29cc:	058001c4 	movi	r22,7
    29d0:	dd002d17 	ldw	r20,180(sp)
    29d4:	00000306 	br	29e4 <___svfprintf_internal_r+0x15d8>
    29d8:	42000204 	addi	r8,r8,8
    29dc:	843ffc04 	addi	r16,r16,-16
    29e0:	8c3ed70e 	bge	r17,r16,2540 <__alt_mem_VGA_Subsystem_Char_Buf_Subsystem_Onchip_SRAM+0xf7002540>
    29e4:	18c00404 	addi	r3,r3,16
    29e8:	10800044 	addi	r2,r2,1
    29ec:	45400015 	stw	r21,0(r8)
    29f0:	44400115 	stw	r17,4(r8)
    29f4:	d8c02015 	stw	r3,128(sp)
    29f8:	d8801f15 	stw	r2,124(sp)
    29fc:	b0bff60e 	bge	r22,r2,29d8 <__alt_mem_VGA_Subsystem_Char_Buf_Subsystem_Onchip_SRAM+0xf70029d8>
    2a00:	d9801e04 	addi	r6,sp,120
    2a04:	a00b883a 	mov	r5,r20
    2a08:	9809883a 	mov	r4,r19
    2a0c:	000a2bc0 	call	a2bc <__ssprint_r>
    2a10:	103b651e 	bne	r2,zero,17a8 <__alt_mem_VGA_Subsystem_Char_Buf_Subsystem_Onchip_SRAM+0xf70017a8>
    2a14:	d8c02017 	ldw	r3,128(sp)
    2a18:	d8801f17 	ldw	r2,124(sp)
    2a1c:	da000404 	addi	r8,sp,16
    2a20:	003fee06 	br	29dc <__alt_mem_VGA_Subsystem_Char_Buf_Subsystem_Onchip_SRAM+0xf70029dc>
    2a24:	9088703a 	and	r4,r18,r2
    2a28:	203e8d1e 	bne	r4,zero,2460 <__alt_mem_VGA_Subsystem_Char_Buf_Subsystem_Onchip_SRAM+0xf7002460>
    2a2c:	dc401f17 	ldw	r17,124(sp)
    2a30:	40800115 	stw	r2,4(r8)
    2a34:	44000015 	stw	r16,0(r8)
    2a38:	8c400044 	addi	r17,r17,1
    2a3c:	d8c02015 	stw	r3,128(sp)
    2a40:	dc401f15 	stw	r17,124(sp)
    2a44:	008001c4 	movi	r2,7
    2a48:	147f7f16 	blt	r2,r17,2848 <__alt_mem_VGA_Subsystem_Char_Buf_Subsystem_Onchip_SRAM+0xf7002848>
    2a4c:	45800204 	addi	r22,r8,8
    2a50:	003eac06 	br	2504 <__alt_mem_VGA_Subsystem_Char_Buf_Subsystem_Onchip_SRAM+0xf7002504>
    2a54:	d9402d17 	ldw	r5,180(sp)
    2a58:	d9801e04 	addi	r6,sp,120
    2a5c:	9809883a 	mov	r4,r19
    2a60:	000a2bc0 	call	a2bc <__ssprint_r>
    2a64:	103b501e 	bne	r2,zero,17a8 <__alt_mem_VGA_Subsystem_Char_Buf_Subsystem_Onchip_SRAM+0xf70017a8>
    2a68:	d8c02017 	ldw	r3,128(sp)
    2a6c:	dc401f17 	ldw	r17,124(sp)
    2a70:	da000404 	addi	r8,sp,16
    2a74:	003e8406 	br	2488 <__alt_mem_VGA_Subsystem_Char_Buf_Subsystem_Onchip_SRAM+0xf7002488>
    2a78:	d9402d17 	ldw	r5,180(sp)
    2a7c:	d9801e04 	addi	r6,sp,120
    2a80:	9809883a 	mov	r4,r19
    2a84:	000a2bc0 	call	a2bc <__ssprint_r>
    2a88:	103b471e 	bne	r2,zero,17a8 <__alt_mem_VGA_Subsystem_Char_Buf_Subsystem_Onchip_SRAM+0xf70017a8>
    2a8c:	d8c02017 	ldw	r3,128(sp)
    2a90:	dc401f17 	ldw	r17,124(sp)
    2a94:	dd800404 	addi	r22,sp,16
    2a98:	003e8606 	br	24b4 <__alt_mem_VGA_Subsystem_Char_Buf_Subsystem_Onchip_SRAM+0xf70024b4>
    2a9c:	0029883a 	mov	r20,zero
    2aa0:	a5000c04 	addi	r20,r20,48
    2aa4:	dc001dc4 	addi	r16,sp,119
    2aa8:	dd001dc5 	stb	r20,119(sp)
    2aac:	003f3806 	br	2790 <__alt_mem_VGA_Subsystem_Char_Buf_Subsystem_Onchip_SRAM+0xf7002790>
    2ab0:	d9402d17 	ldw	r5,180(sp)
    2ab4:	d9801e04 	addi	r6,sp,120
    2ab8:	9809883a 	mov	r4,r19
    2abc:	000a2bc0 	call	a2bc <__ssprint_r>
    2ac0:	103b391e 	bne	r2,zero,17a8 <__alt_mem_VGA_Subsystem_Char_Buf_Subsystem_Onchip_SRAM+0xf70017a8>
    2ac4:	d8c02017 	ldw	r3,128(sp)
    2ac8:	da000404 	addi	r8,sp,16
    2acc:	003c7306 	br	1c9c <__alt_mem_VGA_Subsystem_Char_Buf_Subsystem_Onchip_SRAM+0xf7001c9c>
    2ad0:	d9003617 	ldw	r4,216(sp)
    2ad4:	d9403717 	ldw	r5,220(sp)
    2ad8:	da003e15 	stw	r8,248(sp)
    2adc:	0009f440 	call	9f44 <__fpclassifyd>
    2ae0:	da003e17 	ldw	r8,248(sp)
    2ae4:	1000bd1e 	bne	r2,zero,2ddc <___svfprintf_internal_r+0x19d0>
    2ae8:	008011c4 	movi	r2,71
    2aec:	14411e0e 	bge	r2,r17,2f68 <___svfprintf_internal_r+0x1b5c>
    2af0:	04000074 	movhi	r16,1
    2af4:	84123e04 	addi	r16,r16,18680
    2af8:	00c000c4 	movi	r3,3
    2afc:	00bfdfc4 	movi	r2,-129
    2b00:	d8c02915 	stw	r3,164(sp)
    2b04:	90a4703a 	and	r18,r18,r2
    2b08:	df002783 	ldbu	fp,158(sp)
    2b0c:	d8c02b15 	stw	r3,172(sp)
    2b10:	d8002a15 	stw	zero,168(sp)
    2b14:	d8003215 	stw	zero,200(sp)
    2b18:	003bfa06 	br	1b04 <__alt_mem_VGA_Subsystem_Char_Buf_Subsystem_Onchip_SRAM+0xf7001b04>
    2b1c:	9080100c 	andi	r2,r18,64
    2b20:	d8002785 	stb	zero,158(sp)
    2b24:	10009426 	beq	r2,zero,2d78 <___svfprintf_internal_r+0x196c>
    2b28:	d9402e17 	ldw	r5,184(sp)
    2b2c:	d8c02a17 	ldw	r3,168(sp)
    2b30:	002d883a 	mov	r22,zero
    2b34:	28800104 	addi	r2,r5,4
    2b38:	2d00000b 	ldhu	r20,0(r5)
    2b3c:	183ec10e 	bge	r3,zero,2644 <__alt_mem_VGA_Subsystem_Char_Buf_Subsystem_Onchip_SRAM+0xf7002644>
    2b40:	a586b03a 	or	r3,r20,r22
    2b44:	d8802e15 	stw	r2,184(sp)
    2b48:	183ec21e 	bne	r3,zero,2654 <__alt_mem_VGA_Subsystem_Char_Buf_Subsystem_Onchip_SRAM+0xf7002654>
    2b4c:	0039883a 	mov	fp,zero
    2b50:	0005883a 	mov	r2,zero
    2b54:	003db806 	br	2238 <__alt_mem_VGA_Subsystem_Char_Buf_Subsystem_Onchip_SRAM+0xf7002238>
    2b58:	d8c02e17 	ldw	r3,184(sp)
    2b5c:	d9002e17 	ldw	r4,184(sp)
    2b60:	d9402e17 	ldw	r5,184(sp)
    2b64:	18c00017 	ldw	r3,0(r3)
    2b68:	21000117 	ldw	r4,4(r4)
    2b6c:	29400204 	addi	r5,r5,8
    2b70:	d8c03615 	stw	r3,216(sp)
    2b74:	d9003715 	stw	r4,220(sp)
    2b78:	d9402e15 	stw	r5,184(sp)
    2b7c:	003b5a06 	br	18e8 <__alt_mem_VGA_Subsystem_Char_Buf_Subsystem_Onchip_SRAM+0xf70018e8>
    2b80:	9080100c 	andi	r2,r18,64
    2b84:	10010726 	beq	r2,zero,2fa4 <___svfprintf_internal_r+0x1b98>
    2b88:	d8802e17 	ldw	r2,184(sp)
    2b8c:	1500000f 	ldh	r20,0(r2)
    2b90:	10800104 	addi	r2,r2,4
    2b94:	d8802e15 	stw	r2,184(sp)
    2b98:	a02dd7fa 	srai	r22,r20,31
    2b9c:	b005883a 	mov	r2,r22
    2ba0:	003b7d06 	br	1998 <__alt_mem_VGA_Subsystem_Char_Buf_Subsystem_Onchip_SRAM+0xf7001998>
    2ba4:	9080100c 	andi	r2,r18,64
    2ba8:	10010526 	beq	r2,zero,2fc0 <___svfprintf_internal_r+0x1bb4>
    2bac:	d8c02e17 	ldw	r3,184(sp)
    2bb0:	002d883a 	mov	r22,zero
    2bb4:	1d00000b 	ldhu	r20,0(r3)
    2bb8:	18c00104 	addi	r3,r3,4
    2bbc:	d8c02e15 	stw	r3,184(sp)
    2bc0:	003ce206 	br	1f4c <__alt_mem_VGA_Subsystem_Char_Buf_Subsystem_Onchip_SRAM+0xf7001f4c>
    2bc4:	bc400007 	ldb	r17,0(r23)
    2bc8:	003a6506 	br	1560 <__alt_mem_VGA_Subsystem_Char_Buf_Subsystem_Onchip_SRAM+0xf7001560>
    2bcc:	9080040c 	andi	r2,r18,16
    2bd0:	10010126 	beq	r2,zero,2fd8 <___svfprintf_internal_r+0x1bcc>
    2bd4:	d8c02e17 	ldw	r3,184(sp)
    2bd8:	d9002f17 	ldw	r4,188(sp)
    2bdc:	18800017 	ldw	r2,0(r3)
    2be0:	18c00104 	addi	r3,r3,4
    2be4:	d8c02e15 	stw	r3,184(sp)
    2be8:	11000015 	stw	r4,0(r2)
    2bec:	003a3206 	br	14b8 <__alt_mem_VGA_Subsystem_Char_Buf_Subsystem_Onchip_SRAM+0xf70014b8>
    2bf0:	d9002a17 	ldw	r4,168(sp)
    2bf4:	d8002785 	stb	zero,158(sp)
    2bf8:	203d8d16 	blt	r4,zero,2230 <__alt_mem_VGA_Subsystem_Char_Buf_Subsystem_Onchip_SRAM+0xf7002230>
    2bfc:	00bfdfc4 	movi	r2,-129
    2c00:	90a4703a 	and	r18,r18,r2
    2c04:	003ad506 	br	175c <__alt_mem_VGA_Subsystem_Char_Buf_Subsystem_Onchip_SRAM+0xf700175c>
    2c08:	01400074 	movhi	r5,1
    2c0c:	29524b84 	addi	r5,r5,18734
    2c10:	d9402c15 	stw	r5,176(sp)
    2c14:	d9402c17 	ldw	r5,176(sp)
    2c18:	1c47883a 	add	r3,r3,r17
    2c1c:	10800044 	addi	r2,r2,1
    2c20:	41400015 	stw	r5,0(r8)
    2c24:	44400115 	stw	r17,4(r8)
    2c28:	d8c02015 	stw	r3,128(sp)
    2c2c:	d8801f15 	stw	r2,124(sp)
    2c30:	010001c4 	movi	r4,7
    2c34:	20bf3016 	blt	r4,r2,28f8 <__alt_mem_VGA_Subsystem_Char_Buf_Subsystem_Onchip_SRAM+0xf70028f8>
    2c38:	42000204 	addi	r8,r8,8
    2c3c:	003f3506 	br	2914 <__alt_mem_VGA_Subsystem_Char_Buf_Subsystem_Onchip_SRAM+0xf7002914>
    2c40:	01000074 	movhi	r4,1
    2c44:	21124b84 	addi	r4,r4,18734
    2c48:	d9002c15 	stw	r4,176(sp)
    2c4c:	003c3c06 	br	1d40 <__alt_mem_VGA_Subsystem_Char_Buf_Subsystem_Onchip_SRAM+0xf7001d40>
    2c50:	d9402d17 	ldw	r5,180(sp)
    2c54:	d9801e04 	addi	r6,sp,120
    2c58:	9809883a 	mov	r4,r19
    2c5c:	000a2bc0 	call	a2bc <__ssprint_r>
    2c60:	103ad11e 	bne	r2,zero,17a8 <__alt_mem_VGA_Subsystem_Char_Buf_Subsystem_Onchip_SRAM+0xf70017a8>
    2c64:	d8c02017 	ldw	r3,128(sp)
    2c68:	da000404 	addi	r8,sp,16
    2c6c:	003d9306 	br	22bc <__alt_mem_VGA_Subsystem_Char_Buf_Subsystem_Onchip_SRAM+0xf70022bc>
    2c70:	d8801f17 	ldw	r2,124(sp)
    2c74:	01400074 	movhi	r5,1
    2c78:	01000044 	movi	r4,1
    2c7c:	18c00044 	addi	r3,r3,1
    2c80:	10800044 	addi	r2,r2,1
    2c84:	29524b04 	addi	r5,r5,18732
    2c88:	41000115 	stw	r4,4(r8)
    2c8c:	41400015 	stw	r5,0(r8)
    2c90:	d8c02015 	stw	r3,128(sp)
    2c94:	d8801f15 	stw	r2,124(sp)
    2c98:	010001c4 	movi	r4,7
    2c9c:	2080b516 	blt	r4,r2,2f74 <___svfprintf_internal_r+0x1b68>
    2ca0:	42000204 	addi	r8,r8,8
    2ca4:	8800041e 	bne	r17,zero,2cb8 <___svfprintf_internal_r+0x18ac>
    2ca8:	d8803317 	ldw	r2,204(sp)
    2cac:	1000021e 	bne	r2,zero,2cb8 <___svfprintf_internal_r+0x18ac>
    2cb0:	9080004c 	andi	r2,r18,1
    2cb4:	103c3926 	beq	r2,zero,1d9c <__alt_mem_VGA_Subsystem_Char_Buf_Subsystem_Onchip_SRAM+0xf7001d9c>
    2cb8:	d9003817 	ldw	r4,224(sp)
    2cbc:	d8801f17 	ldw	r2,124(sp)
    2cc0:	d9403417 	ldw	r5,208(sp)
    2cc4:	20c7883a 	add	r3,r4,r3
    2cc8:	10800044 	addi	r2,r2,1
    2ccc:	41000115 	stw	r4,4(r8)
    2cd0:	41400015 	stw	r5,0(r8)
    2cd4:	d8c02015 	stw	r3,128(sp)
    2cd8:	d8801f15 	stw	r2,124(sp)
    2cdc:	010001c4 	movi	r4,7
    2ce0:	20818016 	blt	r4,r2,32e4 <___svfprintf_internal_r+0x1ed8>
    2ce4:	42000204 	addi	r8,r8,8
    2ce8:	0463c83a 	sub	r17,zero,r17
    2cec:	0440cb0e 	bge	zero,r17,301c <___svfprintf_internal_r+0x1c10>
    2cf0:	05800404 	movi	r22,16
    2cf4:	b440e80e 	bge	r22,r17,3098 <___svfprintf_internal_r+0x1c8c>
    2cf8:	01400074 	movhi	r5,1
    2cfc:	29524b84 	addi	r5,r5,18734
    2d00:	d9402c15 	stw	r5,176(sp)
    2d04:	070001c4 	movi	fp,7
    2d08:	dd002d17 	ldw	r20,180(sp)
    2d0c:	00000306 	br	2d1c <___svfprintf_internal_r+0x1910>
    2d10:	42000204 	addi	r8,r8,8
    2d14:	8c7ffc04 	addi	r17,r17,-16
    2d18:	b440e20e 	bge	r22,r17,30a4 <___svfprintf_internal_r+0x1c98>
    2d1c:	18c00404 	addi	r3,r3,16
    2d20:	10800044 	addi	r2,r2,1
    2d24:	45400015 	stw	r21,0(r8)
    2d28:	45800115 	stw	r22,4(r8)
    2d2c:	d8c02015 	stw	r3,128(sp)
    2d30:	d8801f15 	stw	r2,124(sp)
    2d34:	e0bff60e 	bge	fp,r2,2d10 <__alt_mem_VGA_Subsystem_Char_Buf_Subsystem_Onchip_SRAM+0xf7002d10>
    2d38:	d9801e04 	addi	r6,sp,120
    2d3c:	a00b883a 	mov	r5,r20
    2d40:	9809883a 	mov	r4,r19
    2d44:	000a2bc0 	call	a2bc <__ssprint_r>
    2d48:	103a971e 	bne	r2,zero,17a8 <__alt_mem_VGA_Subsystem_Char_Buf_Subsystem_Onchip_SRAM+0xf70017a8>
    2d4c:	d8c02017 	ldw	r3,128(sp)
    2d50:	d8801f17 	ldw	r2,124(sp)
    2d54:	da000404 	addi	r8,sp,16
    2d58:	003fee06 	br	2d14 <__alt_mem_VGA_Subsystem_Char_Buf_Subsystem_Onchip_SRAM+0xf7002d14>
    2d5c:	d9002e17 	ldw	r4,184(sp)
    2d60:	d9402a17 	ldw	r5,168(sp)
    2d64:	002d883a 	mov	r22,zero
    2d68:	20800104 	addi	r2,r4,4
    2d6c:	25000017 	ldw	r20,0(r4)
    2d70:	283e7d0e 	bge	r5,zero,2768 <__alt_mem_VGA_Subsystem_Char_Buf_Subsystem_Onchip_SRAM+0xf7002768>
    2d74:	003eda06 	br	28e0 <__alt_mem_VGA_Subsystem_Char_Buf_Subsystem_Onchip_SRAM+0xf70028e0>
    2d78:	d9002e17 	ldw	r4,184(sp)
    2d7c:	d9402a17 	ldw	r5,168(sp)
    2d80:	002d883a 	mov	r22,zero
    2d84:	20800104 	addi	r2,r4,4
    2d88:	25000017 	ldw	r20,0(r4)
    2d8c:	283e2d0e 	bge	r5,zero,2644 <__alt_mem_VGA_Subsystem_Char_Buf_Subsystem_Onchip_SRAM+0xf7002644>
    2d90:	003f6b06 	br	2b40 <__alt_mem_VGA_Subsystem_Char_Buf_Subsystem_Onchip_SRAM+0xf7002b40>
    2d94:	d8c02e15 	stw	r3,184(sp)
    2d98:	0039883a 	mov	fp,zero
    2d9c:	003ed206 	br	28e8 <__alt_mem_VGA_Subsystem_Char_Buf_Subsystem_Onchip_SRAM+0xf70028e8>
    2da0:	bc400043 	ldbu	r17,1(r23)
    2da4:	84000814 	ori	r16,r16,32
    2da8:	bdc00044 	addi	r23,r23,1
    2dac:	8c403fcc 	andi	r17,r17,255
    2db0:	8c40201c 	xori	r17,r17,128
    2db4:	8c7fe004 	addi	r17,r17,-128
    2db8:	0039e906 	br	1560 <__alt_mem_VGA_Subsystem_Char_Buf_Subsystem_Onchip_SRAM+0xf7001560>
    2dbc:	d9402d17 	ldw	r5,180(sp)
    2dc0:	d9801e04 	addi	r6,sp,120
    2dc4:	9809883a 	mov	r4,r19
    2dc8:	000a2bc0 	call	a2bc <__ssprint_r>
    2dcc:	103a761e 	bne	r2,zero,17a8 <__alt_mem_VGA_Subsystem_Char_Buf_Subsystem_Onchip_SRAM+0xf70017a8>
    2dd0:	d8c02017 	ldw	r3,128(sp)
    2dd4:	da000404 	addi	r8,sp,16
    2dd8:	003d4a06 	br	2304 <__alt_mem_VGA_Subsystem_Char_Buf_Subsystem_Onchip_SRAM+0xf7002304>
    2ddc:	d9002a17 	ldw	r4,168(sp)
    2de0:	05bff7c4 	movi	r22,-33
    2de4:	00bfffc4 	movi	r2,-1
    2de8:	8dac703a 	and	r22,r17,r22
    2dec:	20806a26 	beq	r4,r2,2f98 <___svfprintf_internal_r+0x1b8c>
    2df0:	008011c4 	movi	r2,71
    2df4:	b0813726 	beq	r22,r2,32d4 <___svfprintf_internal_r+0x1ec8>
    2df8:	d9003717 	ldw	r4,220(sp)
    2dfc:	90c04014 	ori	r3,r18,256
    2e00:	d8c02c15 	stw	r3,176(sp)
    2e04:	20015d16 	blt	r4,zero,337c <___svfprintf_internal_r+0x1f70>
    2e08:	dd003717 	ldw	r20,220(sp)
    2e0c:	d8002905 	stb	zero,164(sp)
    2e10:	00801984 	movi	r2,102
    2e14:	88814026 	beq	r17,r2,3318 <___svfprintf_internal_r+0x1f0c>
    2e18:	00801184 	movi	r2,70
    2e1c:	88817126 	beq	r17,r2,33e4 <___svfprintf_internal_r+0x1fd8>
    2e20:	00801144 	movi	r2,69
    2e24:	b0816226 	beq	r22,r2,33b0 <___svfprintf_internal_r+0x1fa4>
    2e28:	d8c02a17 	ldw	r3,168(sp)
    2e2c:	d8802104 	addi	r2,sp,132
    2e30:	d8800315 	stw	r2,12(sp)
    2e34:	d9403617 	ldw	r5,216(sp)
    2e38:	d8802504 	addi	r2,sp,148
    2e3c:	d8800215 	stw	r2,8(sp)
    2e40:	d8802604 	addi	r2,sp,152
    2e44:	d8c00015 	stw	r3,0(sp)
    2e48:	d8800115 	stw	r2,4(sp)
    2e4c:	01c00084 	movi	r7,2
    2e50:	a00d883a 	mov	r6,r20
    2e54:	9809883a 	mov	r4,r19
    2e58:	d8c03d15 	stw	r3,244(sp)
    2e5c:	da003e15 	stw	r8,248(sp)
    2e60:	0005df80 	call	5df8 <_dtoa_r>
    2e64:	1021883a 	mov	r16,r2
    2e68:	008019c4 	movi	r2,103
    2e6c:	d8c03d17 	ldw	r3,244(sp)
    2e70:	da003e17 	ldw	r8,248(sp)
    2e74:	8880e726 	beq	r17,r2,3214 <___svfprintf_internal_r+0x1e08>
    2e78:	008011c4 	movi	r2,71
    2e7c:	8880d426 	beq	r17,r2,31d0 <___svfprintf_internal_r+0x1dc4>
    2e80:	80f9883a 	add	fp,r16,r3
    2e84:	d9003617 	ldw	r4,216(sp)
    2e88:	000d883a 	mov	r6,zero
    2e8c:	000f883a 	mov	r7,zero
    2e90:	a00b883a 	mov	r5,r20
    2e94:	da003e15 	stw	r8,248(sp)
    2e98:	00102340 	call	10234 <__eqdf2>
    2e9c:	da003e17 	ldw	r8,248(sp)
    2ea0:	1000e426 	beq	r2,zero,3234 <___svfprintf_internal_r+0x1e28>
    2ea4:	d8802117 	ldw	r2,132(sp)
    2ea8:	1700062e 	bgeu	r2,fp,2ec4 <___svfprintf_internal_r+0x1ab8>
    2eac:	01000c04 	movi	r4,48
    2eb0:	10c00044 	addi	r3,r2,1
    2eb4:	d8c02115 	stw	r3,132(sp)
    2eb8:	11000005 	stb	r4,0(r2)
    2ebc:	d8802117 	ldw	r2,132(sp)
    2ec0:	173ffb36 	bltu	r2,fp,2eb0 <__alt_mem_VGA_Subsystem_Char_Buf_Subsystem_Onchip_SRAM+0xf7002eb0>
    2ec4:	1405c83a 	sub	r2,r2,r16
    2ec8:	d8803315 	stw	r2,204(sp)
    2ecc:	008011c4 	movi	r2,71
    2ed0:	b080c526 	beq	r22,r2,31e8 <___svfprintf_internal_r+0x1ddc>
    2ed4:	00801944 	movi	r2,101
    2ed8:	1441d80e 	bge	r2,r17,363c <___svfprintf_internal_r+0x2230>
    2edc:	d8c02617 	ldw	r3,152(sp)
    2ee0:	00801984 	movi	r2,102
    2ee4:	d8c03215 	stw	r3,200(sp)
    2ee8:	88813426 	beq	r17,r2,33bc <___svfprintf_internal_r+0x1fb0>
    2eec:	d8c03217 	ldw	r3,200(sp)
    2ef0:	d9003317 	ldw	r4,204(sp)
    2ef4:	19012516 	blt	r3,r4,338c <___svfprintf_internal_r+0x1f80>
    2ef8:	9480004c 	andi	r18,r18,1
    2efc:	9001841e 	bne	r18,zero,3510 <___svfprintf_internal_r+0x2104>
    2f00:	1805883a 	mov	r2,r3
    2f04:	1801cb16 	blt	r3,zero,3634 <___svfprintf_internal_r+0x2228>
    2f08:	d8c03217 	ldw	r3,200(sp)
    2f0c:	044019c4 	movi	r17,103
    2f10:	d8c02b15 	stw	r3,172(sp)
    2f14:	df002907 	ldb	fp,164(sp)
    2f18:	e000a61e 	bne	fp,zero,31b4 <___svfprintf_internal_r+0x1da8>
    2f1c:	df002783 	ldbu	fp,158(sp)
    2f20:	d8802915 	stw	r2,164(sp)
    2f24:	dc802c17 	ldw	r18,176(sp)
    2f28:	d8002a15 	stw	zero,168(sp)
    2f2c:	003af506 	br	1b04 <__alt_mem_VGA_Subsystem_Char_Buf_Subsystem_Onchip_SRAM+0xf7001b04>
    2f30:	04000074 	movhi	r16,1
    2f34:	84123b04 	addi	r16,r16,18668
    2f38:	003a7e06 	br	1934 <__alt_mem_VGA_Subsystem_Char_Buf_Subsystem_Onchip_SRAM+0xf7001934>
    2f3c:	d9003917 	ldw	r4,228(sp)
    2f40:	04001004 	movi	r16,64
    2f44:	800b883a 	mov	r5,r16
    2f48:	000832c0 	call	832c <_malloc_r>
    2f4c:	d9002d17 	ldw	r4,180(sp)
    2f50:	20800015 	stw	r2,0(r4)
    2f54:	20800415 	stw	r2,16(r4)
    2f58:	1001d026 	beq	r2,zero,369c <___svfprintf_internal_r+0x2290>
    2f5c:	d8802d17 	ldw	r2,180(sp)
    2f60:	14000515 	stw	r16,20(r2)
    2f64:	00394406 	br	1478 <__alt_mem_VGA_Subsystem_Char_Buf_Subsystem_Onchip_SRAM+0xf7001478>
    2f68:	04000074 	movhi	r16,1
    2f6c:	84123d04 	addi	r16,r16,18676
    2f70:	003ee106 	br	2af8 <__alt_mem_VGA_Subsystem_Char_Buf_Subsystem_Onchip_SRAM+0xf7002af8>
    2f74:	d9402d17 	ldw	r5,180(sp)
    2f78:	d9801e04 	addi	r6,sp,120
    2f7c:	9809883a 	mov	r4,r19
    2f80:	000a2bc0 	call	a2bc <__ssprint_r>
    2f84:	103a081e 	bne	r2,zero,17a8 <__alt_mem_VGA_Subsystem_Char_Buf_Subsystem_Onchip_SRAM+0xf70017a8>
    2f88:	dc402617 	ldw	r17,152(sp)
    2f8c:	d8c02017 	ldw	r3,128(sp)
    2f90:	da000404 	addi	r8,sp,16
    2f94:	003f4306 	br	2ca4 <__alt_mem_VGA_Subsystem_Char_Buf_Subsystem_Onchip_SRAM+0xf7002ca4>
    2f98:	01400184 	movi	r5,6
    2f9c:	d9402a15 	stw	r5,168(sp)
    2fa0:	003f9506 	br	2df8 <__alt_mem_VGA_Subsystem_Char_Buf_Subsystem_Onchip_SRAM+0xf7002df8>
    2fa4:	d8c02e17 	ldw	r3,184(sp)
    2fa8:	1d000017 	ldw	r20,0(r3)
    2fac:	18c00104 	addi	r3,r3,4
    2fb0:	d8c02e15 	stw	r3,184(sp)
    2fb4:	a02dd7fa 	srai	r22,r20,31
    2fb8:	b005883a 	mov	r2,r22
    2fbc:	003a7606 	br	1998 <__alt_mem_VGA_Subsystem_Char_Buf_Subsystem_Onchip_SRAM+0xf7001998>
    2fc0:	d9002e17 	ldw	r4,184(sp)
    2fc4:	002d883a 	mov	r22,zero
    2fc8:	25000017 	ldw	r20,0(r4)
    2fcc:	21000104 	addi	r4,r4,4
    2fd0:	d9002e15 	stw	r4,184(sp)
    2fd4:	003bdd06 	br	1f4c <__alt_mem_VGA_Subsystem_Char_Buf_Subsystem_Onchip_SRAM+0xf7001f4c>
    2fd8:	9480100c 	andi	r18,r18,64
    2fdc:	90006e26 	beq	r18,zero,3198 <___svfprintf_internal_r+0x1d8c>
    2fe0:	d9402e17 	ldw	r5,184(sp)
    2fe4:	d8c02f17 	ldw	r3,188(sp)
    2fe8:	28800017 	ldw	r2,0(r5)
    2fec:	29400104 	addi	r5,r5,4
    2ff0:	d9402e15 	stw	r5,184(sp)
    2ff4:	10c0000d 	sth	r3,0(r2)
    2ff8:	00392f06 	br	14b8 <__alt_mem_VGA_Subsystem_Char_Buf_Subsystem_Onchip_SRAM+0xf70014b8>
    2ffc:	d9402d17 	ldw	r5,180(sp)
    3000:	d9801e04 	addi	r6,sp,120
    3004:	9809883a 	mov	r4,r19
    3008:	000a2bc0 	call	a2bc <__ssprint_r>
    300c:	1039e61e 	bne	r2,zero,17a8 <__alt_mem_VGA_Subsystem_Char_Buf_Subsystem_Onchip_SRAM+0xf70017a8>
    3010:	d8c02017 	ldw	r3,128(sp)
    3014:	d8801f17 	ldw	r2,124(sp)
    3018:	da000404 	addi	r8,sp,16
    301c:	d9403317 	ldw	r5,204(sp)
    3020:	10800044 	addi	r2,r2,1
    3024:	44000015 	stw	r16,0(r8)
    3028:	28c7883a 	add	r3,r5,r3
    302c:	003b5506 	br	1d84 <__alt_mem_VGA_Subsystem_Char_Buf_Subsystem_Onchip_SRAM+0xf7001d84>
    3030:	8009883a 	mov	r4,r16
    3034:	df003e15 	stw	fp,248(sp)
    3038:	000a2240 	call	a224 <strlen>
    303c:	d8802b15 	stw	r2,172(sp)
    3040:	da003e17 	ldw	r8,248(sp)
    3044:	103c160e 	bge	r2,zero,20a0 <__alt_mem_VGA_Subsystem_Char_Buf_Subsystem_Onchip_SRAM+0xf70020a0>
    3048:	0005883a 	mov	r2,zero
    304c:	003c1406 	br	20a0 <__alt_mem_VGA_Subsystem_Char_Buf_Subsystem_Onchip_SRAM+0xf70020a0>
    3050:	00bfffc4 	movi	r2,-1
    3054:	0039d906 	br	17bc <__alt_mem_VGA_Subsystem_Char_Buf_Subsystem_Onchip_SRAM+0xf70017bc>
    3058:	01000074 	movhi	r4,1
    305c:	21124f84 	addi	r4,r4,18750
    3060:	d9003515 	stw	r4,212(sp)
    3064:	003ae406 	br	1bf8 <__alt_mem_VGA_Subsystem_Char_Buf_Subsystem_Onchip_SRAM+0xf7001bf8>
    3068:	013fffc4 	movi	r4,-1
    306c:	0039fa06 	br	1858 <__alt_mem_VGA_Subsystem_Char_Buf_Subsystem_Onchip_SRAM+0xf7001858>
    3070:	d9402d17 	ldw	r5,180(sp)
    3074:	d9801e04 	addi	r6,sp,120
    3078:	9809883a 	mov	r4,r19
    307c:	000a2bc0 	call	a2bc <__ssprint_r>
    3080:	1039c91e 	bne	r2,zero,17a8 <__alt_mem_VGA_Subsystem_Char_Buf_Subsystem_Onchip_SRAM+0xf70017a8>
    3084:	d8c02017 	ldw	r3,128(sp)
    3088:	da000404 	addi	r8,sp,16
    308c:	003d8406 	br	26a0 <__alt_mem_VGA_Subsystem_Char_Buf_Subsystem_Onchip_SRAM+0xf70026a0>
    3090:	0023883a 	mov	r17,zero
    3094:	003d8306 	br	26a4 <__alt_mem_VGA_Subsystem_Char_Buf_Subsystem_Onchip_SRAM+0xf70026a4>
    3098:	01000074 	movhi	r4,1
    309c:	21124b84 	addi	r4,r4,18734
    30a0:	d9002c15 	stw	r4,176(sp)
    30a4:	d9002c17 	ldw	r4,176(sp)
    30a8:	1c47883a 	add	r3,r3,r17
    30ac:	10800044 	addi	r2,r2,1
    30b0:	41000015 	stw	r4,0(r8)
    30b4:	44400115 	stw	r17,4(r8)
    30b8:	d8c02015 	stw	r3,128(sp)
    30bc:	d8801f15 	stw	r2,124(sp)
    30c0:	010001c4 	movi	r4,7
    30c4:	20bfcd16 	blt	r4,r2,2ffc <__alt_mem_VGA_Subsystem_Char_Buf_Subsystem_Onchip_SRAM+0xf7002ffc>
    30c8:	42000204 	addi	r8,r8,8
    30cc:	003fd306 	br	301c <__alt_mem_VGA_Subsystem_Char_Buf_Subsystem_Onchip_SRAM+0xf700301c>
    30d0:	d9402d17 	ldw	r5,180(sp)
    30d4:	d9801e04 	addi	r6,sp,120
    30d8:	9809883a 	mov	r4,r19
    30dc:	000a2bc0 	call	a2bc <__ssprint_r>
    30e0:	1039b11e 	bne	r2,zero,17a8 <__alt_mem_VGA_Subsystem_Char_Buf_Subsystem_Onchip_SRAM+0xf70017a8>
    30e4:	d8802617 	ldw	r2,152(sp)
    30e8:	d8c02017 	ldw	r3,128(sp)
    30ec:	da000404 	addi	r8,sp,16
    30f0:	003e1c06 	br	2964 <__alt_mem_VGA_Subsystem_Char_Buf_Subsystem_Onchip_SRAM+0xf7002964>
    30f4:	d8802a17 	ldw	r2,168(sp)
    30f8:	00c00184 	movi	r3,6
    30fc:	1880012e 	bgeu	r3,r2,3104 <___svfprintf_internal_r+0x1cf8>
    3100:	1805883a 	mov	r2,r3
    3104:	d8802b15 	stw	r2,172(sp)
    3108:	1000f316 	blt	r2,zero,34d8 <___svfprintf_internal_r+0x20cc>
    310c:	04000074 	movhi	r16,1
    3110:	d8802915 	stw	r2,164(sp)
    3114:	dd002e15 	stw	r20,184(sp)
    3118:	d8002a15 	stw	zero,168(sp)
    311c:	d8003215 	stw	zero,200(sp)
    3120:	84124904 	addi	r16,r16,18724
    3124:	0039883a 	mov	fp,zero
    3128:	003a7d06 	br	1b20 <__alt_mem_VGA_Subsystem_Char_Buf_Subsystem_Onchip_SRAM+0xf7001b20>
    312c:	01000074 	movhi	r4,1
    3130:	21124f84 	addi	r4,r4,18750
    3134:	d9003515 	stw	r4,212(sp)
    3138:	003b3d06 	br	1e30 <__alt_mem_VGA_Subsystem_Char_Buf_Subsystem_Onchip_SRAM+0xf7001e30>
    313c:	d9402d17 	ldw	r5,180(sp)
    3140:	d9801e04 	addi	r6,sp,120
    3144:	9809883a 	mov	r4,r19
    3148:	000a2bc0 	call	a2bc <__ssprint_r>
    314c:	1039961e 	bne	r2,zero,17a8 <__alt_mem_VGA_Subsystem_Char_Buf_Subsystem_Onchip_SRAM+0xf70017a8>
    3150:	d8802617 	ldw	r2,152(sp)
    3154:	d9403317 	ldw	r5,204(sp)
    3158:	d8c02017 	ldw	r3,128(sp)
    315c:	da000404 	addi	r8,sp,16
    3160:	2885c83a 	sub	r2,r5,r2
    3164:	003e1006 	br	29a8 <__alt_mem_VGA_Subsystem_Char_Buf_Subsystem_Onchip_SRAM+0xf70029a8>
    3168:	00800044 	movi	r2,1
    316c:	10803fcc 	andi	r2,r2,255
    3170:	00c00044 	movi	r3,1
    3174:	10fa1026 	beq	r2,r3,19b8 <__alt_mem_VGA_Subsystem_Char_Buf_Subsystem_Onchip_SRAM+0xf70019b8>
    3178:	00c00084 	movi	r3,2
    317c:	10fb8226 	beq	r2,r3,1f88 <__alt_mem_VGA_Subsystem_Char_Buf_Subsystem_Onchip_SRAM+0xf7001f88>
    3180:	003a4206 	br	1a8c <__alt_mem_VGA_Subsystem_Char_Buf_Subsystem_Onchip_SRAM+0xf7001a8c>
    3184:	0021883a 	mov	r16,zero
    3188:	003e0806 	br	29ac <__alt_mem_VGA_Subsystem_Char_Buf_Subsystem_Onchip_SRAM+0xf70029ac>
    318c:	07000b44 	movi	fp,45
    3190:	df002785 	stb	fp,158(sp)
    3194:	0039e306 	br	1924 <__alt_mem_VGA_Subsystem_Char_Buf_Subsystem_Onchip_SRAM+0xf7001924>
    3198:	d9002e17 	ldw	r4,184(sp)
    319c:	d9402f17 	ldw	r5,188(sp)
    31a0:	20800017 	ldw	r2,0(r4)
    31a4:	21000104 	addi	r4,r4,4
    31a8:	d9002e15 	stw	r4,184(sp)
    31ac:	11400015 	stw	r5,0(r2)
    31b0:	0038c106 	br	14b8 <__alt_mem_VGA_Subsystem_Char_Buf_Subsystem_Onchip_SRAM+0xf70014b8>
    31b4:	00c00b44 	movi	r3,45
    31b8:	d8c02785 	stb	r3,158(sp)
    31bc:	d8802915 	stw	r2,164(sp)
    31c0:	dc802c17 	ldw	r18,176(sp)
    31c4:	d8002a15 	stw	zero,168(sp)
    31c8:	07000b44 	movi	fp,45
    31cc:	003a5106 	br	1b14 <__alt_mem_VGA_Subsystem_Char_Buf_Subsystem_Onchip_SRAM+0xf7001b14>
    31d0:	9080004c 	andi	r2,r18,1
    31d4:	1000941e 	bne	r2,zero,3428 <___svfprintf_internal_r+0x201c>
    31d8:	d8802117 	ldw	r2,132(sp)
    31dc:	1405c83a 	sub	r2,r2,r16
    31e0:	d8803315 	stw	r2,204(sp)
    31e4:	b441151e 	bne	r22,r17,363c <___svfprintf_internal_r+0x2230>
    31e8:	dd802617 	ldw	r22,152(sp)
    31ec:	00bfff44 	movi	r2,-3
    31f0:	b0801a16 	blt	r22,r2,325c <___svfprintf_internal_r+0x1e50>
    31f4:	d9402a17 	ldw	r5,168(sp)
    31f8:	2d801816 	blt	r5,r22,325c <___svfprintf_internal_r+0x1e50>
    31fc:	dd803215 	stw	r22,200(sp)
    3200:	003f3a06 	br	2eec <__alt_mem_VGA_Subsystem_Char_Buf_Subsystem_Onchip_SRAM+0xf7002eec>
    3204:	1025883a 	mov	r18,r2
    3208:	0039883a 	mov	fp,zero
    320c:	00800084 	movi	r2,2
    3210:	003fd606 	br	316c <__alt_mem_VGA_Subsystem_Char_Buf_Subsystem_Onchip_SRAM+0xf700316c>
    3214:	9080004c 	andi	r2,r18,1
    3218:	103f191e 	bne	r2,zero,2e80 <__alt_mem_VGA_Subsystem_Char_Buf_Subsystem_Onchip_SRAM+0xf7002e80>
    321c:	d8802117 	ldw	r2,132(sp)
    3220:	003f2806 	br	2ec4 <__alt_mem_VGA_Subsystem_Char_Buf_Subsystem_Onchip_SRAM+0xf7002ec4>
    3224:	01000074 	movhi	r4,1
    3228:	21124b84 	addi	r4,r4,18734
    322c:	d9002c15 	stw	r4,176(sp)
    3230:	003c7c06 	br	2424 <__alt_mem_VGA_Subsystem_Char_Buf_Subsystem_Onchip_SRAM+0xf7002424>
    3234:	e005883a 	mov	r2,fp
    3238:	003f2206 	br	2ec4 <__alt_mem_VGA_Subsystem_Char_Buf_Subsystem_Onchip_SRAM+0xf7002ec4>
    323c:	d9002a17 	ldw	r4,168(sp)
    3240:	df002783 	ldbu	fp,158(sp)
    3244:	dd002e15 	stw	r20,184(sp)
    3248:	d9002915 	stw	r4,164(sp)
    324c:	d9002b15 	stw	r4,172(sp)
    3250:	d8002a15 	stw	zero,168(sp)
    3254:	d8003215 	stw	zero,200(sp)
    3258:	003a2a06 	br	1b04 <__alt_mem_VGA_Subsystem_Char_Buf_Subsystem_Onchip_SRAM+0xf7001b04>
    325c:	8c7fff84 	addi	r17,r17,-2
    3260:	b5bfffc4 	addi	r22,r22,-1
    3264:	dd802615 	stw	r22,152(sp)
    3268:	dc4022c5 	stb	r17,139(sp)
    326c:	b000c316 	blt	r22,zero,357c <___svfprintf_internal_r+0x2170>
    3270:	00800ac4 	movi	r2,43
    3274:	d8802305 	stb	r2,140(sp)
    3278:	00800244 	movi	r2,9
    327c:	15806e16 	blt	r2,r22,3438 <___svfprintf_internal_r+0x202c>
    3280:	00800c04 	movi	r2,48
    3284:	b5800c04 	addi	r22,r22,48
    3288:	d8802345 	stb	r2,141(sp)
    328c:	dd802385 	stb	r22,142(sp)
    3290:	d88023c4 	addi	r2,sp,143
    3294:	df0022c4 	addi	fp,sp,139
    3298:	d8c03317 	ldw	r3,204(sp)
    329c:	1739c83a 	sub	fp,r2,fp
    32a0:	d9003317 	ldw	r4,204(sp)
    32a4:	e0c7883a 	add	r3,fp,r3
    32a8:	df003b15 	stw	fp,236(sp)
    32ac:	d8c02b15 	stw	r3,172(sp)
    32b0:	00800044 	movi	r2,1
    32b4:	1100b70e 	bge	r2,r4,3594 <___svfprintf_internal_r+0x2188>
    32b8:	d8c02b17 	ldw	r3,172(sp)
    32bc:	18c00044 	addi	r3,r3,1
    32c0:	d8c02b15 	stw	r3,172(sp)
    32c4:	1805883a 	mov	r2,r3
    32c8:	1800b016 	blt	r3,zero,358c <___svfprintf_internal_r+0x2180>
    32cc:	d8003215 	stw	zero,200(sp)
    32d0:	003f1006 	br	2f14 <__alt_mem_VGA_Subsystem_Char_Buf_Subsystem_Onchip_SRAM+0xf7002f14>
    32d4:	d8802a17 	ldw	r2,168(sp)
    32d8:	103ec71e 	bne	r2,zero,2df8 <__alt_mem_VGA_Subsystem_Char_Buf_Subsystem_Onchip_SRAM+0xf7002df8>
    32dc:	dc002a15 	stw	r16,168(sp)
    32e0:	003ec506 	br	2df8 <__alt_mem_VGA_Subsystem_Char_Buf_Subsystem_Onchip_SRAM+0xf7002df8>
    32e4:	d9402d17 	ldw	r5,180(sp)
    32e8:	d9801e04 	addi	r6,sp,120
    32ec:	9809883a 	mov	r4,r19
    32f0:	000a2bc0 	call	a2bc <__ssprint_r>
    32f4:	10392c1e 	bne	r2,zero,17a8 <__alt_mem_VGA_Subsystem_Char_Buf_Subsystem_Onchip_SRAM+0xf70017a8>
    32f8:	dc402617 	ldw	r17,152(sp)
    32fc:	d8c02017 	ldw	r3,128(sp)
    3300:	d8801f17 	ldw	r2,124(sp)
    3304:	da000404 	addi	r8,sp,16
    3308:	003e7706 	br	2ce8 <__alt_mem_VGA_Subsystem_Char_Buf_Subsystem_Onchip_SRAM+0xf7002ce8>
    330c:	182f883a 	mov	r23,r3
    3310:	d8002a15 	stw	zero,168(sp)
    3314:	00389306 	br	1564 <__alt_mem_VGA_Subsystem_Char_Buf_Subsystem_Onchip_SRAM+0xf7001564>
    3318:	d8c02a17 	ldw	r3,168(sp)
    331c:	d8802104 	addi	r2,sp,132
    3320:	d8800315 	stw	r2,12(sp)
    3324:	d9403617 	ldw	r5,216(sp)
    3328:	d8802504 	addi	r2,sp,148
    332c:	d8800215 	stw	r2,8(sp)
    3330:	d8802604 	addi	r2,sp,152
    3334:	d8c00015 	stw	r3,0(sp)
    3338:	9809883a 	mov	r4,r19
    333c:	d8800115 	stw	r2,4(sp)
    3340:	01c000c4 	movi	r7,3
    3344:	a00d883a 	mov	r6,r20
    3348:	da003e15 	stw	r8,248(sp)
    334c:	0005df80 	call	5df8 <_dtoa_r>
    3350:	d9002a17 	ldw	r4,168(sp)
    3354:	da003e17 	ldw	r8,248(sp)
    3358:	1021883a 	mov	r16,r2
    335c:	1139883a 	add	fp,r2,r4
    3360:	2007883a 	mov	r3,r4
    3364:	81000007 	ldb	r4,0(r16)
    3368:	00800c04 	movi	r2,48
    336c:	20806f26 	beq	r4,r2,352c <___svfprintf_internal_r+0x2120>
    3370:	d8c02617 	ldw	r3,152(sp)
    3374:	e0f9883a 	add	fp,fp,r3
    3378:	003ec206 	br	2e84 <__alt_mem_VGA_Subsystem_Char_Buf_Subsystem_Onchip_SRAM+0xf7002e84>
    337c:	00c00b44 	movi	r3,45
    3380:	2520003c 	xorhi	r20,r4,32768
    3384:	d8c02905 	stb	r3,164(sp)
    3388:	003ea106 	br	2e10 <__alt_mem_VGA_Subsystem_Char_Buf_Subsystem_Onchip_SRAM+0xf7002e10>
    338c:	d8c03217 	ldw	r3,200(sp)
    3390:	00c0890e 	bge	zero,r3,35b8 <___svfprintf_internal_r+0x21ac>
    3394:	00800044 	movi	r2,1
    3398:	d9003317 	ldw	r4,204(sp)
    339c:	1105883a 	add	r2,r2,r4
    33a0:	d8802b15 	stw	r2,172(sp)
    33a4:	10005f16 	blt	r2,zero,3524 <___svfprintf_internal_r+0x2118>
    33a8:	044019c4 	movi	r17,103
    33ac:	003ed906 	br	2f14 <__alt_mem_VGA_Subsystem_Char_Buf_Subsystem_Onchip_SRAM+0xf7002f14>
    33b0:	d9002a17 	ldw	r4,168(sp)
    33b4:	20c00044 	addi	r3,r4,1
    33b8:	003e9c06 	br	2e2c <__alt_mem_VGA_Subsystem_Char_Buf_Subsystem_Onchip_SRAM+0xf7002e2c>
    33bc:	d9002a17 	ldw	r4,168(sp)
    33c0:	00c0680e 	bge	zero,r3,3564 <___svfprintf_internal_r+0x2158>
    33c4:	2000461e 	bne	r4,zero,34e0 <___svfprintf_internal_r+0x20d4>
    33c8:	9480004c 	andi	r18,r18,1
    33cc:	9000441e 	bne	r18,zero,34e0 <___svfprintf_internal_r+0x20d4>
    33d0:	1805883a 	mov	r2,r3
    33d4:	1800a116 	blt	r3,zero,365c <___svfprintf_internal_r+0x2250>
    33d8:	d8c03217 	ldw	r3,200(sp)
    33dc:	d8c02b15 	stw	r3,172(sp)
    33e0:	003ecc06 	br	2f14 <__alt_mem_VGA_Subsystem_Char_Buf_Subsystem_Onchip_SRAM+0xf7002f14>
    33e4:	d9402a17 	ldw	r5,168(sp)
    33e8:	d8802104 	addi	r2,sp,132
    33ec:	d8800315 	stw	r2,12(sp)
    33f0:	d9400015 	stw	r5,0(sp)
    33f4:	d8802504 	addi	r2,sp,148
    33f8:	d9403617 	ldw	r5,216(sp)
    33fc:	d8800215 	stw	r2,8(sp)
    3400:	d8802604 	addi	r2,sp,152
    3404:	d8800115 	stw	r2,4(sp)
    3408:	01c000c4 	movi	r7,3
    340c:	a00d883a 	mov	r6,r20
    3410:	9809883a 	mov	r4,r19
    3414:	da003e15 	stw	r8,248(sp)
    3418:	0005df80 	call	5df8 <_dtoa_r>
    341c:	d8c02a17 	ldw	r3,168(sp)
    3420:	da003e17 	ldw	r8,248(sp)
    3424:	1021883a 	mov	r16,r2
    3428:	00801184 	movi	r2,70
    342c:	80f9883a 	add	fp,r16,r3
    3430:	88bfcc26 	beq	r17,r2,3364 <__alt_mem_VGA_Subsystem_Char_Buf_Subsystem_Onchip_SRAM+0xf7003364>
    3434:	003e9306 	br	2e84 <__alt_mem_VGA_Subsystem_Char_Buf_Subsystem_Onchip_SRAM+0xf7002e84>
    3438:	df0022c4 	addi	fp,sp,139
    343c:	dc002a15 	stw	r16,168(sp)
    3440:	9829883a 	mov	r20,r19
    3444:	e021883a 	mov	r16,fp
    3448:	4027883a 	mov	r19,r8
    344c:	b009883a 	mov	r4,r22
    3450:	01400284 	movi	r5,10
    3454:	0000d840 	call	d84 <__modsi3>
    3458:	10800c04 	addi	r2,r2,48
    345c:	843fffc4 	addi	r16,r16,-1
    3460:	b009883a 	mov	r4,r22
    3464:	01400284 	movi	r5,10
    3468:	80800005 	stb	r2,0(r16)
    346c:	0000d000 	call	d00 <__divsi3>
    3470:	102d883a 	mov	r22,r2
    3474:	00800244 	movi	r2,9
    3478:	15bff416 	blt	r2,r22,344c <__alt_mem_VGA_Subsystem_Char_Buf_Subsystem_Onchip_SRAM+0xf700344c>
    347c:	9811883a 	mov	r8,r19
    3480:	b0800c04 	addi	r2,r22,48
    3484:	a027883a 	mov	r19,r20
    3488:	8029883a 	mov	r20,r16
    348c:	a17fffc4 	addi	r5,r20,-1
    3490:	a0bfffc5 	stb	r2,-1(r20)
    3494:	dc002a17 	ldw	r16,168(sp)
    3498:	2f00782e 	bgeu	r5,fp,367c <___svfprintf_internal_r+0x2270>
    349c:	d9c02384 	addi	r7,sp,142
    34a0:	3d0fc83a 	sub	r7,r7,r20
    34a4:	d9002344 	addi	r4,sp,141
    34a8:	e1cf883a 	add	r7,fp,r7
    34ac:	00000106 	br	34b4 <___svfprintf_internal_r+0x20a8>
    34b0:	28800003 	ldbu	r2,0(r5)
    34b4:	20800005 	stb	r2,0(r4)
    34b8:	21000044 	addi	r4,r4,1
    34bc:	29400044 	addi	r5,r5,1
    34c0:	21fffb1e 	bne	r4,r7,34b0 <__alt_mem_VGA_Subsystem_Char_Buf_Subsystem_Onchip_SRAM+0xf70034b0>
    34c4:	d8802304 	addi	r2,sp,140
    34c8:	1505c83a 	sub	r2,r2,r20
    34cc:	d8c02344 	addi	r3,sp,141
    34d0:	1885883a 	add	r2,r3,r2
    34d4:	003f7006 	br	3298 <__alt_mem_VGA_Subsystem_Char_Buf_Subsystem_Onchip_SRAM+0xf7003298>
    34d8:	0005883a 	mov	r2,zero
    34dc:	003f0b06 	br	310c <__alt_mem_VGA_Subsystem_Char_Buf_Subsystem_Onchip_SRAM+0xf700310c>
    34e0:	d9002a17 	ldw	r4,168(sp)
    34e4:	d8c03217 	ldw	r3,200(sp)
    34e8:	20800044 	addi	r2,r4,1
    34ec:	1885883a 	add	r2,r3,r2
    34f0:	d8802b15 	stw	r2,172(sp)
    34f4:	103e870e 	bge	r2,zero,2f14 <__alt_mem_VGA_Subsystem_Char_Buf_Subsystem_Onchip_SRAM+0xf7002f14>
    34f8:	0005883a 	mov	r2,zero
    34fc:	003e8506 	br	2f14 <__alt_mem_VGA_Subsystem_Char_Buf_Subsystem_Onchip_SRAM+0xf7002f14>
    3500:	01000074 	movhi	r4,1
    3504:	21124b84 	addi	r4,r4,18734
    3508:	d9002c15 	stw	r4,176(sp)
    350c:	003cc506 	br	2824 <__alt_mem_VGA_Subsystem_Char_Buf_Subsystem_Onchip_SRAM+0xf7002824>
    3510:	d8c03217 	ldw	r3,200(sp)
    3514:	18c00044 	addi	r3,r3,1
    3518:	d8c02b15 	stw	r3,172(sp)
    351c:	1805883a 	mov	r2,r3
    3520:	183fa10e 	bge	r3,zero,33a8 <__alt_mem_VGA_Subsystem_Char_Buf_Subsystem_Onchip_SRAM+0xf70033a8>
    3524:	0005883a 	mov	r2,zero
    3528:	003f9f06 	br	33a8 <__alt_mem_VGA_Subsystem_Char_Buf_Subsystem_Onchip_SRAM+0xf70033a8>
    352c:	d9003617 	ldw	r4,216(sp)
    3530:	000d883a 	mov	r6,zero
    3534:	000f883a 	mov	r7,zero
    3538:	a00b883a 	mov	r5,r20
    353c:	d8c03d15 	stw	r3,244(sp)
    3540:	da003e15 	stw	r8,248(sp)
    3544:	00102340 	call	10234 <__eqdf2>
    3548:	d8c03d17 	ldw	r3,244(sp)
    354c:	da003e17 	ldw	r8,248(sp)
    3550:	103f8726 	beq	r2,zero,3370 <__alt_mem_VGA_Subsystem_Char_Buf_Subsystem_Onchip_SRAM+0xf7003370>
    3554:	00800044 	movi	r2,1
    3558:	10c7c83a 	sub	r3,r2,r3
    355c:	d8c02615 	stw	r3,152(sp)
    3560:	003f8406 	br	3374 <__alt_mem_VGA_Subsystem_Char_Buf_Subsystem_Onchip_SRAM+0xf7003374>
    3564:	20000e1e 	bne	r4,zero,35a0 <___svfprintf_internal_r+0x2194>
    3568:	9480004c 	andi	r18,r18,1
    356c:	90000c1e 	bne	r18,zero,35a0 <___svfprintf_internal_r+0x2194>
    3570:	00800044 	movi	r2,1
    3574:	d8802b15 	stw	r2,172(sp)
    3578:	003e6606 	br	2f14 <__alt_mem_VGA_Subsystem_Char_Buf_Subsystem_Onchip_SRAM+0xf7002f14>
    357c:	00800b44 	movi	r2,45
    3580:	05adc83a 	sub	r22,zero,r22
    3584:	d8802305 	stb	r2,140(sp)
    3588:	003f3b06 	br	3278 <__alt_mem_VGA_Subsystem_Char_Buf_Subsystem_Onchip_SRAM+0xf7003278>
    358c:	0005883a 	mov	r2,zero
    3590:	003f4e06 	br	32cc <__alt_mem_VGA_Subsystem_Char_Buf_Subsystem_Onchip_SRAM+0xf70032cc>
    3594:	90a4703a 	and	r18,r18,r2
    3598:	903f4a26 	beq	r18,zero,32c4 <__alt_mem_VGA_Subsystem_Char_Buf_Subsystem_Onchip_SRAM+0xf70032c4>
    359c:	003f4606 	br	32b8 <__alt_mem_VGA_Subsystem_Char_Buf_Subsystem_Onchip_SRAM+0xf70032b8>
    35a0:	d8c02a17 	ldw	r3,168(sp)
    35a4:	18c00084 	addi	r3,r3,2
    35a8:	d8c02b15 	stw	r3,172(sp)
    35ac:	1805883a 	mov	r2,r3
    35b0:	183e580e 	bge	r3,zero,2f14 <__alt_mem_VGA_Subsystem_Char_Buf_Subsystem_Onchip_SRAM+0xf7002f14>
    35b4:	003fd006 	br	34f8 <__alt_mem_VGA_Subsystem_Char_Buf_Subsystem_Onchip_SRAM+0xf70034f8>
    35b8:	00800084 	movi	r2,2
    35bc:	10c5c83a 	sub	r2,r2,r3
    35c0:	003f7506 	br	3398 <__alt_mem_VGA_Subsystem_Char_Buf_Subsystem_Onchip_SRAM+0xf7003398>
    35c4:	d9402e17 	ldw	r5,184(sp)
    35c8:	d9002e17 	ldw	r4,184(sp)
    35cc:	bc400043 	ldbu	r17,1(r23)
    35d0:	29400017 	ldw	r5,0(r5)
    35d4:	20800104 	addi	r2,r4,4
    35d8:	d8802e15 	stw	r2,184(sp)
    35dc:	d9402a15 	stw	r5,168(sp)
    35e0:	182f883a 	mov	r23,r3
    35e4:	283df10e 	bge	r5,zero,2dac <__alt_mem_VGA_Subsystem_Char_Buf_Subsystem_Onchip_SRAM+0xf7002dac>
    35e8:	8c403fcc 	andi	r17,r17,255
    35ec:	017fffc4 	movi	r5,-1
    35f0:	8c40201c 	xori	r17,r17,128
    35f4:	d9402a15 	stw	r5,168(sp)
    35f8:	8c7fe004 	addi	r17,r17,-128
    35fc:	0037d806 	br	1560 <__alt_mem_VGA_Subsystem_Char_Buf_Subsystem_Onchip_SRAM+0xf7001560>
    3600:	9080004c 	andi	r2,r18,1
    3604:	0039883a 	mov	fp,zero
    3608:	10000726 	beq	r2,zero,3628 <___svfprintf_internal_r+0x221c>
    360c:	d8c02817 	ldw	r3,160(sp)
    3610:	dc001dc4 	addi	r16,sp,119
    3614:	00800c04 	movi	r2,48
    3618:	1c07c83a 	sub	r3,r3,r16
    361c:	d8801dc5 	stb	r2,119(sp)
    3620:	d8c02b15 	stw	r3,172(sp)
    3624:	00393106 	br	1aec <__alt_mem_VGA_Subsystem_Char_Buf_Subsystem_Onchip_SRAM+0xf7001aec>
    3628:	d8002b15 	stw	zero,172(sp)
    362c:	dc001e04 	addi	r16,sp,120
    3630:	00392e06 	br	1aec <__alt_mem_VGA_Subsystem_Char_Buf_Subsystem_Onchip_SRAM+0xf7001aec>
    3634:	0005883a 	mov	r2,zero
    3638:	003e3306 	br	2f08 <__alt_mem_VGA_Subsystem_Char_Buf_Subsystem_Onchip_SRAM+0xf7002f08>
    363c:	dd802617 	ldw	r22,152(sp)
    3640:	003f0706 	br	3260 <__alt_mem_VGA_Subsystem_Char_Buf_Subsystem_Onchip_SRAM+0xf7003260>
    3644:	d8c02b03 	ldbu	r3,172(sp)
    3648:	d8c02785 	stb	r3,158(sp)
    364c:	003a3506 	br	1f24 <__alt_mem_VGA_Subsystem_Char_Buf_Subsystem_Onchip_SRAM+0xf7001f24>
    3650:	d8c02b03 	ldbu	r3,172(sp)
    3654:	d8c02785 	stb	r3,158(sp)
    3658:	003a1706 	br	1eb8 <__alt_mem_VGA_Subsystem_Char_Buf_Subsystem_Onchip_SRAM+0xf7001eb8>
    365c:	0005883a 	mov	r2,zero
    3660:	003f5d06 	br	33d8 <__alt_mem_VGA_Subsystem_Char_Buf_Subsystem_Onchip_SRAM+0xf70033d8>
    3664:	d8c02b03 	ldbu	r3,172(sp)
    3668:	d8c02785 	stb	r3,158(sp)
    366c:	0038f306 	br	1a3c <__alt_mem_VGA_Subsystem_Char_Buf_Subsystem_Onchip_SRAM+0xf7001a3c>
    3670:	d8c02b03 	ldbu	r3,172(sp)
    3674:	d8c02785 	stb	r3,158(sp)
    3678:	0038be06 	br	1974 <__alt_mem_VGA_Subsystem_Char_Buf_Subsystem_Onchip_SRAM+0xf7001974>
    367c:	d8802344 	addi	r2,sp,141
    3680:	003f0506 	br	3298 <__alt_mem_VGA_Subsystem_Char_Buf_Subsystem_Onchip_SRAM+0xf7003298>
    3684:	d8c02b03 	ldbu	r3,172(sp)
    3688:	d8c02785 	stb	r3,158(sp)
    368c:	00388b06 	br	18bc <__alt_mem_VGA_Subsystem_Char_Buf_Subsystem_Onchip_SRAM+0xf70018bc>
    3690:	d8c02b03 	ldbu	r3,172(sp)
    3694:	d8c02785 	stb	r3,158(sp)
    3698:	003ad706 	br	21f8 <__alt_mem_VGA_Subsystem_Char_Buf_Subsystem_Onchip_SRAM+0xf70021f8>
    369c:	d9403917 	ldw	r5,228(sp)
    36a0:	00800304 	movi	r2,12
    36a4:	28800015 	stw	r2,0(r5)
    36a8:	00bfffc4 	movi	r2,-1
    36ac:	00384306 	br	17bc <__alt_mem_VGA_Subsystem_Char_Buf_Subsystem_Onchip_SRAM+0xf70017bc>
    36b0:	d8c02b03 	ldbu	r3,172(sp)
    36b4:	d8c02785 	stb	r3,158(sp)
    36b8:	003ab606 	br	2194 <__alt_mem_VGA_Subsystem_Char_Buf_Subsystem_Onchip_SRAM+0xf7002194>
    36bc:	d8c02b03 	ldbu	r3,172(sp)
    36c0:	d8c02785 	stb	r3,158(sp)
    36c4:	003a8906 	br	20ec <__alt_mem_VGA_Subsystem_Char_Buf_Subsystem_Onchip_SRAM+0xf70020ec>

000036c8 <___vfprintf_internal_r>:
    36c8:	deffb804 	addi	sp,sp,-288
    36cc:	dfc04715 	stw	ra,284(sp)
    36d0:	ddc04515 	stw	r23,276(sp)
    36d4:	dd404315 	stw	r21,268(sp)
    36d8:	d9002d15 	stw	r4,180(sp)
    36dc:	282f883a 	mov	r23,r5
    36e0:	302b883a 	mov	r21,r6
    36e4:	d9c02e15 	stw	r7,184(sp)
    36e8:	df004615 	stw	fp,280(sp)
    36ec:	dd804415 	stw	r22,272(sp)
    36f0:	dd004215 	stw	r20,264(sp)
    36f4:	dcc04115 	stw	r19,260(sp)
    36f8:	dc804015 	stw	r18,256(sp)
    36fc:	dc403f15 	stw	r17,252(sp)
    3700:	dc003e15 	stw	r16,248(sp)
    3704:	00081400 	call	8140 <_localeconv_r>
    3708:	10800017 	ldw	r2,0(r2)
    370c:	1009883a 	mov	r4,r2
    3710:	d8803415 	stw	r2,208(sp)
    3714:	000a2240 	call	a224 <strlen>
    3718:	d8803715 	stw	r2,220(sp)
    371c:	d8802d17 	ldw	r2,180(sp)
    3720:	10000226 	beq	r2,zero,372c <___vfprintf_internal_r+0x64>
    3724:	10800e17 	ldw	r2,56(r2)
    3728:	1000fb26 	beq	r2,zero,3b18 <___vfprintf_internal_r+0x450>
    372c:	b880030b 	ldhu	r2,12(r23)
    3730:	10c8000c 	andi	r3,r2,8192
    3734:	1800061e 	bne	r3,zero,3750 <___vfprintf_internal_r+0x88>
    3738:	b9001917 	ldw	r4,100(r23)
    373c:	00f7ffc4 	movi	r3,-8193
    3740:	10880014 	ori	r2,r2,8192
    3744:	20c6703a 	and	r3,r4,r3
    3748:	b880030d 	sth	r2,12(r23)
    374c:	b8c01915 	stw	r3,100(r23)
    3750:	10c0020c 	andi	r3,r2,8
    3754:	1800c326 	beq	r3,zero,3a64 <___vfprintf_internal_r+0x39c>
    3758:	b8c00417 	ldw	r3,16(r23)
    375c:	1800c126 	beq	r3,zero,3a64 <___vfprintf_internal_r+0x39c>
    3760:	1080068c 	andi	r2,r2,26
    3764:	00c00284 	movi	r3,10
    3768:	10c0c626 	beq	r2,r3,3a84 <___vfprintf_internal_r+0x3bc>
    376c:	d8c00404 	addi	r3,sp,16
    3770:	05000074 	movhi	r20,1
    3774:	d9001e04 	addi	r4,sp,120
    3778:	a5125384 	addi	r20,r20,18766
    377c:	d8c01e15 	stw	r3,120(sp)
    3780:	d8002015 	stw	zero,128(sp)
    3784:	d8001f15 	stw	zero,124(sp)
    3788:	d8003315 	stw	zero,204(sp)
    378c:	d8003615 	stw	zero,216(sp)
    3790:	d8003815 	stw	zero,224(sp)
    3794:	1811883a 	mov	r8,r3
    3798:	d8003915 	stw	zero,228(sp)
    379c:	d8003a15 	stw	zero,232(sp)
    37a0:	d8002f15 	stw	zero,188(sp)
    37a4:	d9002815 	stw	r4,160(sp)
    37a8:	a8800007 	ldb	r2,0(r21)
    37ac:	10028b26 	beq	r2,zero,41dc <___vfprintf_internal_r+0xb14>
    37b0:	00c00944 	movi	r3,37
    37b4:	a823883a 	mov	r17,r21
    37b8:	10c0021e 	bne	r2,r3,37c4 <___vfprintf_internal_r+0xfc>
    37bc:	00001406 	br	3810 <___vfprintf_internal_r+0x148>
    37c0:	10c00326 	beq	r2,r3,37d0 <___vfprintf_internal_r+0x108>
    37c4:	8c400044 	addi	r17,r17,1
    37c8:	88800007 	ldb	r2,0(r17)
    37cc:	103ffc1e 	bne	r2,zero,37c0 <__alt_mem_VGA_Subsystem_Char_Buf_Subsystem_Onchip_SRAM+0xf70037c0>
    37d0:	8d61c83a 	sub	r16,r17,r21
    37d4:	80000e26 	beq	r16,zero,3810 <___vfprintf_internal_r+0x148>
    37d8:	d8c02017 	ldw	r3,128(sp)
    37dc:	d8801f17 	ldw	r2,124(sp)
    37e0:	45400015 	stw	r21,0(r8)
    37e4:	1c07883a 	add	r3,r3,r16
    37e8:	10800044 	addi	r2,r2,1
    37ec:	d8c02015 	stw	r3,128(sp)
    37f0:	44000115 	stw	r16,4(r8)
    37f4:	d8801f15 	stw	r2,124(sp)
    37f8:	00c001c4 	movi	r3,7
    37fc:	1880a916 	blt	r3,r2,3aa4 <___vfprintf_internal_r+0x3dc>
    3800:	42000204 	addi	r8,r8,8
    3804:	d9402f17 	ldw	r5,188(sp)
    3808:	2c0b883a 	add	r5,r5,r16
    380c:	d9402f15 	stw	r5,188(sp)
    3810:	88800007 	ldb	r2,0(r17)
    3814:	1000aa26 	beq	r2,zero,3ac0 <___vfprintf_internal_r+0x3f8>
    3818:	8d400044 	addi	r21,r17,1
    381c:	8c400047 	ldb	r17,1(r17)
    3820:	0021883a 	mov	r16,zero
    3824:	00bfffc4 	movi	r2,-1
    3828:	0025883a 	mov	r18,zero
    382c:	dc002905 	stb	r16,164(sp)
    3830:	d8002785 	stb	zero,158(sp)
    3834:	d8002b05 	stb	zero,172(sp)
    3838:	d8802a15 	stw	r2,168(sp)
    383c:	d8003115 	stw	zero,196(sp)
    3840:	04c01604 	movi	r19,88
    3844:	05800244 	movi	r22,9
    3848:	9021883a 	mov	r16,r18
    384c:	4039883a 	mov	fp,r8
    3850:	ad400044 	addi	r21,r21,1
    3854:	88bff804 	addi	r2,r17,-32
    3858:	98833236 	bltu	r19,r2,4524 <___vfprintf_internal_r+0xe5c>
    385c:	100490ba 	slli	r2,r2,2
    3860:	00c00034 	movhi	r3,0
    3864:	18ce1d04 	addi	r3,r3,14452
    3868:	10c5883a 	add	r2,r2,r3
    386c:	10800017 	ldw	r2,0(r2)
    3870:	1000683a 	jmp	r2
    3874:	0000441c 	xori	zero,zero,272
    3878:	00004524 	muli	zero,zero,276
    387c:	00004524 	muli	zero,zero,276
    3880:	0000443c 	xorhi	zero,zero,272
    3884:	00004524 	muli	zero,zero,276
    3888:	00004524 	muli	zero,zero,276
    388c:	00004524 	muli	zero,zero,276
    3890:	00004524 	muli	zero,zero,276
    3894:	00004524 	muli	zero,zero,276
    3898:	00004524 	muli	zero,zero,276
    389c:	00003b24 	muli	zero,zero,236
    38a0:	0000432c 	andhi	zero,zero,268
    38a4:	00004524 	muli	zero,zero,276
    38a8:	000039e8 	cmpgeui	zero,zero,231
    38ac:	00003b48 	cmpgei	zero,zero,237
    38b0:	00004524 	muli	zero,zero,276
    38b4:	00003b98 	cmpnei	zero,zero,238
    38b8:	00003ba4 	muli	zero,zero,238
    38bc:	00003ba4 	muli	zero,zero,238
    38c0:	00003ba4 	muli	zero,zero,238
    38c4:	00003ba4 	muli	zero,zero,238
    38c8:	00003ba4 	muli	zero,zero,238
    38cc:	00003ba4 	muli	zero,zero,238
    38d0:	00003ba4 	muli	zero,zero,238
    38d4:	00003ba4 	muli	zero,zero,238
    38d8:	00003ba4 	muli	zero,zero,238
    38dc:	00004524 	muli	zero,zero,276
    38e0:	00004524 	muli	zero,zero,276
    38e4:	00004524 	muli	zero,zero,276
    38e8:	00004524 	muli	zero,zero,276
    38ec:	00004524 	muli	zero,zero,276
    38f0:	00004524 	muli	zero,zero,276
    38f4:	00004524 	muli	zero,zero,276
    38f8:	00004524 	muli	zero,zero,276
    38fc:	00004524 	muli	zero,zero,276
    3900:	00004524 	muli	zero,zero,276
    3904:	00003be0 	cmpeqi	zero,zero,239
    3908:	00003ca8 	cmpgeui	zero,zero,242
    390c:	00004524 	muli	zero,zero,276
    3910:	00003ca8 	cmpgeui	zero,zero,242
    3914:	00004524 	muli	zero,zero,276
    3918:	00004524 	muli	zero,zero,276
    391c:	00004524 	muli	zero,zero,276
    3920:	00004524 	muli	zero,zero,276
    3924:	00003d54 	movui	zero,245
    3928:	00004524 	muli	zero,zero,276
    392c:	00004524 	muli	zero,zero,276
    3930:	00003d60 	cmpeqi	zero,zero,245
    3934:	00004524 	muli	zero,zero,276
    3938:	00004524 	muli	zero,zero,276
    393c:	00004524 	muli	zero,zero,276
    3940:	00004524 	muli	zero,zero,276
    3944:	00004524 	muli	zero,zero,276
    3948:	000041e4 	muli	zero,zero,263
    394c:	00004524 	muli	zero,zero,276
    3950:	00004524 	muli	zero,zero,276
    3954:	00004250 	cmplti	zero,zero,265
    3958:	00004524 	muli	zero,zero,276
    395c:	00004524 	muli	zero,zero,276
    3960:	00004524 	muli	zero,zero,276
    3964:	00004524 	muli	zero,zero,276
    3968:	00004524 	muli	zero,zero,276
    396c:	00004524 	muli	zero,zero,276
    3970:	00004524 	muli	zero,zero,276
    3974:	00004524 	muli	zero,zero,276
    3978:	00004524 	muli	zero,zero,276
    397c:	00004524 	muli	zero,zero,276
    3980:	000044c8 	cmpgei	zero,zero,275
    3984:	00004448 	cmpgei	zero,zero,273
    3988:	00003ca8 	cmpgeui	zero,zero,242
    398c:	00003ca8 	cmpgeui	zero,zero,242
    3990:	00003ca8 	cmpgeui	zero,zero,242
    3994:	00004468 	cmpgeui	zero,zero,273
    3998:	00004448 	cmpgei	zero,zero,273
    399c:	00004524 	muli	zero,zero,276
    39a0:	00004524 	muli	zero,zero,276
    39a4:	00004474 	movhi	zero,273
    39a8:	00004524 	muli	zero,zero,276
    39ac:	00004488 	cmpgei	zero,zero,274
    39b0:	0000430c 	andi	zero,zero,268
    39b4:	000039f4 	movhi	zero,231
    39b8:	00004344 	movi	zero,269
    39bc:	00004524 	muli	zero,zero,276
    39c0:	00004350 	cmplti	zero,zero,269
    39c4:	00004524 	muli	zero,zero,276
    39c8:	000043b4 	movhi	zero,270
    39cc:	00004524 	muli	zero,zero,276
    39d0:	00004524 	muli	zero,zero,276
    39d4:	000043d4 	movui	zero,271
    39d8:	d8c03117 	ldw	r3,196(sp)
    39dc:	d8802e15 	stw	r2,184(sp)
    39e0:	00c7c83a 	sub	r3,zero,r3
    39e4:	d8c03115 	stw	r3,196(sp)
    39e8:	84000114 	ori	r16,r16,4
    39ec:	ac400007 	ldb	r17,0(r21)
    39f0:	003f9706 	br	3850 <__alt_mem_VGA_Subsystem_Char_Buf_Subsystem_Onchip_SRAM+0xf7003850>
    39f4:	00800c04 	movi	r2,48
    39f8:	d8802705 	stb	r2,156(sp)
    39fc:	00801e04 	movi	r2,120
    3a00:	d8802745 	stb	r2,157(sp)
    3a04:	d9002a17 	ldw	r4,168(sp)
    3a08:	d8802e17 	ldw	r2,184(sp)
    3a0c:	d8002785 	stb	zero,158(sp)
    3a10:	e011883a 	mov	r8,fp
    3a14:	10c00104 	addi	r3,r2,4
    3a18:	14c00017 	ldw	r19,0(r2)
    3a1c:	002d883a 	mov	r22,zero
    3a20:	80800094 	ori	r2,r16,2
    3a24:	2002ca16 	blt	r4,zero,4550 <___vfprintf_internal_r+0xe88>
    3a28:	00bfdfc4 	movi	r2,-129
    3a2c:	80a4703a 	and	r18,r16,r2
    3a30:	d8c02e15 	stw	r3,184(sp)
    3a34:	94800094 	ori	r18,r18,2
    3a38:	9802b41e 	bne	r19,zero,450c <___vfprintf_internal_r+0xe44>
    3a3c:	01400074 	movhi	r5,1
    3a40:	29524404 	addi	r5,r5,18704
    3a44:	d9403915 	stw	r5,228(sp)
    3a48:	04401e04 	movi	r17,120
    3a4c:	d8802a17 	ldw	r2,168(sp)
    3a50:	0039883a 	mov	fp,zero
    3a54:	1001fa26 	beq	r2,zero,4240 <___vfprintf_internal_r+0xb78>
    3a58:	0027883a 	mov	r19,zero
    3a5c:	002d883a 	mov	r22,zero
    3a60:	00021906 	br	42c8 <___vfprintf_internal_r+0xc00>
    3a64:	d9002d17 	ldw	r4,180(sp)
    3a68:	b80b883a 	mov	r5,r23
    3a6c:	0005a7c0 	call	5a7c <__swsetup_r>
    3a70:	1005dc1e 	bne	r2,zero,51e4 <___vfprintf_internal_r+0x1b1c>
    3a74:	b880030b 	ldhu	r2,12(r23)
    3a78:	00c00284 	movi	r3,10
    3a7c:	1080068c 	andi	r2,r2,26
    3a80:	10ff3a1e 	bne	r2,r3,376c <__alt_mem_VGA_Subsystem_Char_Buf_Subsystem_Onchip_SRAM+0xf700376c>
    3a84:	b880038f 	ldh	r2,14(r23)
    3a88:	103f3816 	blt	r2,zero,376c <__alt_mem_VGA_Subsystem_Char_Buf_Subsystem_Onchip_SRAM+0xf700376c>
    3a8c:	d9c02e17 	ldw	r7,184(sp)
    3a90:	d9002d17 	ldw	r4,180(sp)
    3a94:	a80d883a 	mov	r6,r21
    3a98:	b80b883a 	mov	r5,r23
    3a9c:	00059c00 	call	59c0 <__sbprintf>
    3aa0:	00001106 	br	3ae8 <___vfprintf_internal_r+0x420>
    3aa4:	d9002d17 	ldw	r4,180(sp)
    3aa8:	d9801e04 	addi	r6,sp,120
    3aac:	b80b883a 	mov	r5,r23
    3ab0:	000b9280 	call	b928 <__sprint_r>
    3ab4:	1000081e 	bne	r2,zero,3ad8 <___vfprintf_internal_r+0x410>
    3ab8:	da000404 	addi	r8,sp,16
    3abc:	003f5106 	br	3804 <__alt_mem_VGA_Subsystem_Char_Buf_Subsystem_Onchip_SRAM+0xf7003804>
    3ac0:	d8802017 	ldw	r2,128(sp)
    3ac4:	10000426 	beq	r2,zero,3ad8 <___vfprintf_internal_r+0x410>
    3ac8:	d9002d17 	ldw	r4,180(sp)
    3acc:	d9801e04 	addi	r6,sp,120
    3ad0:	b80b883a 	mov	r5,r23
    3ad4:	000b9280 	call	b928 <__sprint_r>
    3ad8:	b880030b 	ldhu	r2,12(r23)
    3adc:	1080100c 	andi	r2,r2,64
    3ae0:	1005c01e 	bne	r2,zero,51e4 <___vfprintf_internal_r+0x1b1c>
    3ae4:	d8802f17 	ldw	r2,188(sp)
    3ae8:	dfc04717 	ldw	ra,284(sp)
    3aec:	df004617 	ldw	fp,280(sp)
    3af0:	ddc04517 	ldw	r23,276(sp)
    3af4:	dd804417 	ldw	r22,272(sp)
    3af8:	dd404317 	ldw	r21,268(sp)
    3afc:	dd004217 	ldw	r20,264(sp)
    3b00:	dcc04117 	ldw	r19,260(sp)
    3b04:	dc804017 	ldw	r18,256(sp)
    3b08:	dc403f17 	ldw	r17,252(sp)
    3b0c:	dc003e17 	ldw	r16,248(sp)
    3b10:	dec04804 	addi	sp,sp,288
    3b14:	f800283a 	ret
    3b18:	d9002d17 	ldw	r4,180(sp)
    3b1c:	0007a880 	call	7a88 <__sinit>
    3b20:	003f0206 	br	372c <__alt_mem_VGA_Subsystem_Char_Buf_Subsystem_Onchip_SRAM+0xf700372c>
    3b24:	d9002e17 	ldw	r4,184(sp)
    3b28:	d9402e17 	ldw	r5,184(sp)
    3b2c:	21000017 	ldw	r4,0(r4)
    3b30:	28800104 	addi	r2,r5,4
    3b34:	d9003115 	stw	r4,196(sp)
    3b38:	203fa716 	blt	r4,zero,39d8 <__alt_mem_VGA_Subsystem_Char_Buf_Subsystem_Onchip_SRAM+0xf70039d8>
    3b3c:	d8802e15 	stw	r2,184(sp)
    3b40:	ac400007 	ldb	r17,0(r21)
    3b44:	003f4206 	br	3850 <__alt_mem_VGA_Subsystem_Char_Buf_Subsystem_Onchip_SRAM+0xf7003850>
    3b48:	ac400007 	ldb	r17,0(r21)
    3b4c:	01000a84 	movi	r4,42
    3b50:	a8c00044 	addi	r3,r21,1
    3b54:	89075826 	beq	r17,r4,58b8 <___vfprintf_internal_r+0x21f0>
    3b58:	8cbff404 	addi	r18,r17,-48
    3b5c:	b486ae36 	bltu	r22,r18,5618 <___vfprintf_internal_r+0x1f50>
    3b60:	0009883a 	mov	r4,zero
    3b64:	1823883a 	mov	r17,r3
    3b68:	01400284 	movi	r5,10
    3b6c:	0000eb40 	call	eb4 <__mulsi3>
    3b70:	88c00007 	ldb	r3,0(r17)
    3b74:	1489883a 	add	r4,r2,r18
    3b78:	8d400044 	addi	r21,r17,1
    3b7c:	1cbff404 	addi	r18,r3,-48
    3b80:	a823883a 	mov	r17,r21
    3b84:	b4bff82e 	bgeu	r22,r18,3b68 <__alt_mem_VGA_Subsystem_Char_Buf_Subsystem_Onchip_SRAM+0xf7003b68>
    3b88:	1823883a 	mov	r17,r3
    3b8c:	2005f616 	blt	r4,zero,5368 <___vfprintf_internal_r+0x1ca0>
    3b90:	d9002a15 	stw	r4,168(sp)
    3b94:	003f2f06 	br	3854 <__alt_mem_VGA_Subsystem_Char_Buf_Subsystem_Onchip_SRAM+0xf7003854>
    3b98:	84002014 	ori	r16,r16,128
    3b9c:	ac400007 	ldb	r17,0(r21)
    3ba0:	003f2b06 	br	3850 <__alt_mem_VGA_Subsystem_Char_Buf_Subsystem_Onchip_SRAM+0xf7003850>
    3ba4:	8cbff404 	addi	r18,r17,-48
    3ba8:	d8003115 	stw	zero,196(sp)
    3bac:	0009883a 	mov	r4,zero
    3bb0:	a823883a 	mov	r17,r21
    3bb4:	01400284 	movi	r5,10
    3bb8:	0000eb40 	call	eb4 <__mulsi3>
    3bbc:	88c00007 	ldb	r3,0(r17)
    3bc0:	9089883a 	add	r4,r18,r2
    3bc4:	ad400044 	addi	r21,r21,1
    3bc8:	1cbff404 	addi	r18,r3,-48
    3bcc:	a823883a 	mov	r17,r21
    3bd0:	b4bff82e 	bgeu	r22,r18,3bb4 <__alt_mem_VGA_Subsystem_Char_Buf_Subsystem_Onchip_SRAM+0xf7003bb4>
    3bd4:	1823883a 	mov	r17,r3
    3bd8:	d9003115 	stw	r4,196(sp)
    3bdc:	003f1d06 	br	3854 <__alt_mem_VGA_Subsystem_Char_Buf_Subsystem_Onchip_SRAM+0xf7003854>
    3be0:	8025883a 	mov	r18,r16
    3be4:	dc002903 	ldbu	r16,164(sp)
    3be8:	e011883a 	mov	r8,fp
    3bec:	84003fcc 	andi	r16,r16,255
    3bf0:	8007531e 	bne	r16,zero,5940 <___vfprintf_internal_r+0x2278>
    3bf4:	94800414 	ori	r18,r18,16
    3bf8:	9080080c 	andi	r2,r18,32
    3bfc:	1003a326 	beq	r2,zero,4a8c <___vfprintf_internal_r+0x13c4>
    3c00:	d9002e17 	ldw	r4,184(sp)
    3c04:	20800117 	ldw	r2,4(r4)
    3c08:	24c00017 	ldw	r19,0(r4)
    3c0c:	21000204 	addi	r4,r4,8
    3c10:	d9002e15 	stw	r4,184(sp)
    3c14:	102d883a 	mov	r22,r2
    3c18:	10047316 	blt	r2,zero,4de8 <___vfprintf_internal_r+0x1720>
    3c1c:	d9002a17 	ldw	r4,168(sp)
    3c20:	df002783 	ldbu	fp,158(sp)
    3c24:	2003e416 	blt	r4,zero,4bb8 <___vfprintf_internal_r+0x14f0>
    3c28:	00ffdfc4 	movi	r3,-129
    3c2c:	9d84b03a 	or	r2,r19,r22
    3c30:	90e4703a 	and	r18,r18,r3
    3c34:	10018026 	beq	r2,zero,4238 <___vfprintf_internal_r+0xb70>
    3c38:	b003ab26 	beq	r22,zero,4ae8 <___vfprintf_internal_r+0x1420>
    3c3c:	dc402915 	stw	r17,164(sp)
    3c40:	dc001e04 	addi	r16,sp,120
    3c44:	b023883a 	mov	r17,r22
    3c48:	402d883a 	mov	r22,r8
    3c4c:	9809883a 	mov	r4,r19
    3c50:	880b883a 	mov	r5,r17
    3c54:	01800284 	movi	r6,10
    3c58:	000f883a 	mov	r7,zero
    3c5c:	000e9f40 	call	e9f4 <__umoddi3>
    3c60:	10800c04 	addi	r2,r2,48
    3c64:	843fffc4 	addi	r16,r16,-1
    3c68:	9809883a 	mov	r4,r19
    3c6c:	880b883a 	mov	r5,r17
    3c70:	80800005 	stb	r2,0(r16)
    3c74:	01800284 	movi	r6,10
    3c78:	000f883a 	mov	r7,zero
    3c7c:	000e3f80 	call	e3f8 <__udivdi3>
    3c80:	1027883a 	mov	r19,r2
    3c84:	10c4b03a 	or	r2,r2,r3
    3c88:	1823883a 	mov	r17,r3
    3c8c:	103fef1e 	bne	r2,zero,3c4c <__alt_mem_VGA_Subsystem_Char_Buf_Subsystem_Onchip_SRAM+0xf7003c4c>
    3c90:	d8c02817 	ldw	r3,160(sp)
    3c94:	dc402917 	ldw	r17,164(sp)
    3c98:	b011883a 	mov	r8,r22
    3c9c:	1c07c83a 	sub	r3,r3,r16
    3ca0:	d8c02b15 	stw	r3,172(sp)
    3ca4:	00005f06 	br	3e24 <___vfprintf_internal_r+0x75c>
    3ca8:	8025883a 	mov	r18,r16
    3cac:	dc002903 	ldbu	r16,164(sp)
    3cb0:	e011883a 	mov	r8,fp
    3cb4:	84003fcc 	andi	r16,r16,255
    3cb8:	80071e1e 	bne	r16,zero,5934 <___vfprintf_internal_r+0x226c>
    3cbc:	9080020c 	andi	r2,r18,8
    3cc0:	1004af26 	beq	r2,zero,4f80 <___vfprintf_internal_r+0x18b8>
    3cc4:	d9002e17 	ldw	r4,184(sp)
    3cc8:	d9402e17 	ldw	r5,184(sp)
    3ccc:	d8802e17 	ldw	r2,184(sp)
    3cd0:	21000017 	ldw	r4,0(r4)
    3cd4:	29400117 	ldw	r5,4(r5)
    3cd8:	10800204 	addi	r2,r2,8
    3cdc:	d9003615 	stw	r4,216(sp)
    3ce0:	d9403815 	stw	r5,224(sp)
    3ce4:	d8802e15 	stw	r2,184(sp)
    3ce8:	d9003617 	ldw	r4,216(sp)
    3cec:	d9403817 	ldw	r5,224(sp)
    3cf0:	da003d15 	stw	r8,244(sp)
    3cf4:	04000044 	movi	r16,1
    3cf8:	0009f440 	call	9f44 <__fpclassifyd>
    3cfc:	da003d17 	ldw	r8,244(sp)
    3d00:	1404441e 	bne	r2,r16,4e14 <___vfprintf_internal_r+0x174c>
    3d04:	d9003617 	ldw	r4,216(sp)
    3d08:	d9403817 	ldw	r5,224(sp)
    3d0c:	000d883a 	mov	r6,zero
    3d10:	000f883a 	mov	r7,zero
    3d14:	00103980 	call	10398 <__ledf2>
    3d18:	da003d17 	ldw	r8,244(sp)
    3d1c:	1005e316 	blt	r2,zero,54ac <___vfprintf_internal_r+0x1de4>
    3d20:	df002783 	ldbu	fp,158(sp)
    3d24:	008011c4 	movi	r2,71
    3d28:	1445580e 	bge	r2,r17,528c <___vfprintf_internal_r+0x1bc4>
    3d2c:	04000074 	movhi	r16,1
    3d30:	84123c04 	addi	r16,r16,18672
    3d34:	00c000c4 	movi	r3,3
    3d38:	00bfdfc4 	movi	r2,-129
    3d3c:	d8c02915 	stw	r3,164(sp)
    3d40:	90a4703a 	and	r18,r18,r2
    3d44:	d8c02b15 	stw	r3,172(sp)
    3d48:	d8002a15 	stw	zero,168(sp)
    3d4c:	d8003215 	stw	zero,200(sp)
    3d50:	00003a06 	br	3e3c <___vfprintf_internal_r+0x774>
    3d54:	84000214 	ori	r16,r16,8
    3d58:	ac400007 	ldb	r17,0(r21)
    3d5c:	003ebc06 	br	3850 <__alt_mem_VGA_Subsystem_Char_Buf_Subsystem_Onchip_SRAM+0xf7003850>
    3d60:	8025883a 	mov	r18,r16
    3d64:	dc002903 	ldbu	r16,164(sp)
    3d68:	e011883a 	mov	r8,fp
    3d6c:	84003fcc 	andi	r16,r16,255
    3d70:	8007001e 	bne	r16,zero,5974 <___vfprintf_internal_r+0x22ac>
    3d74:	94800414 	ori	r18,r18,16
    3d78:	9080080c 	andi	r2,r18,32
    3d7c:	1002fa26 	beq	r2,zero,4968 <___vfprintf_internal_r+0x12a0>
    3d80:	d9002e17 	ldw	r4,184(sp)
    3d84:	d9402a17 	ldw	r5,168(sp)
    3d88:	d8002785 	stb	zero,158(sp)
    3d8c:	20800204 	addi	r2,r4,8
    3d90:	24c00017 	ldw	r19,0(r4)
    3d94:	25800117 	ldw	r22,4(r4)
    3d98:	2804b116 	blt	r5,zero,5060 <___vfprintf_internal_r+0x1998>
    3d9c:	013fdfc4 	movi	r4,-129
    3da0:	9d86b03a 	or	r3,r19,r22
    3da4:	d8802e15 	stw	r2,184(sp)
    3da8:	9124703a 	and	r18,r18,r4
    3dac:	1802fb1e 	bne	r3,zero,499c <___vfprintf_internal_r+0x12d4>
    3db0:	d8c02a17 	ldw	r3,168(sp)
    3db4:	0039883a 	mov	fp,zero
    3db8:	1805e526 	beq	r3,zero,5550 <___vfprintf_internal_r+0x1e88>
    3dbc:	0027883a 	mov	r19,zero
    3dc0:	002d883a 	mov	r22,zero
    3dc4:	dc001e04 	addi	r16,sp,120
    3dc8:	9806d0fa 	srli	r3,r19,3
    3dcc:	b008977a 	slli	r4,r22,29
    3dd0:	b02cd0fa 	srli	r22,r22,3
    3dd4:	9cc001cc 	andi	r19,r19,7
    3dd8:	98800c04 	addi	r2,r19,48
    3ddc:	843fffc4 	addi	r16,r16,-1
    3de0:	20e6b03a 	or	r19,r4,r3
    3de4:	80800005 	stb	r2,0(r16)
    3de8:	9d86b03a 	or	r3,r19,r22
    3dec:	183ff61e 	bne	r3,zero,3dc8 <__alt_mem_VGA_Subsystem_Char_Buf_Subsystem_Onchip_SRAM+0xf7003dc8>
    3df0:	90c0004c 	andi	r3,r18,1
    3df4:	18014126 	beq	r3,zero,42fc <___vfprintf_internal_r+0xc34>
    3df8:	10803fcc 	andi	r2,r2,255
    3dfc:	1080201c 	xori	r2,r2,128
    3e00:	10bfe004 	addi	r2,r2,-128
    3e04:	00c00c04 	movi	r3,48
    3e08:	10c13c26 	beq	r2,r3,42fc <___vfprintf_internal_r+0xc34>
    3e0c:	80ffffc5 	stb	r3,-1(r16)
    3e10:	d8c02817 	ldw	r3,160(sp)
    3e14:	80bfffc4 	addi	r2,r16,-1
    3e18:	1021883a 	mov	r16,r2
    3e1c:	1887c83a 	sub	r3,r3,r2
    3e20:	d8c02b15 	stw	r3,172(sp)
    3e24:	d8802b17 	ldw	r2,172(sp)
    3e28:	d9002a17 	ldw	r4,168(sp)
    3e2c:	1100010e 	bge	r2,r4,3e34 <___vfprintf_internal_r+0x76c>
    3e30:	2005883a 	mov	r2,r4
    3e34:	d8802915 	stw	r2,164(sp)
    3e38:	d8003215 	stw	zero,200(sp)
    3e3c:	e7003fcc 	andi	fp,fp,255
    3e40:	e700201c 	xori	fp,fp,128
    3e44:	e73fe004 	addi	fp,fp,-128
    3e48:	e0000326 	beq	fp,zero,3e58 <___vfprintf_internal_r+0x790>
    3e4c:	d8c02917 	ldw	r3,164(sp)
    3e50:	18c00044 	addi	r3,r3,1
    3e54:	d8c02915 	stw	r3,164(sp)
    3e58:	90c0008c 	andi	r3,r18,2
    3e5c:	d8c02c15 	stw	r3,176(sp)
    3e60:	18000326 	beq	r3,zero,3e70 <___vfprintf_internal_r+0x7a8>
    3e64:	d8c02917 	ldw	r3,164(sp)
    3e68:	18c00084 	addi	r3,r3,2
    3e6c:	d8c02915 	stw	r3,164(sp)
    3e70:	90c0210c 	andi	r3,r18,132
    3e74:	d8c03015 	stw	r3,192(sp)
    3e78:	1801c51e 	bne	r3,zero,4590 <___vfprintf_internal_r+0xec8>
    3e7c:	d9003117 	ldw	r4,196(sp)
    3e80:	d8c02917 	ldw	r3,164(sp)
    3e84:	20e7c83a 	sub	r19,r4,r3
    3e88:	04c1c10e 	bge	zero,r19,4590 <___vfprintf_internal_r+0xec8>
    3e8c:	02400404 	movi	r9,16
    3e90:	d8c02017 	ldw	r3,128(sp)
    3e94:	d8801f17 	ldw	r2,124(sp)
    3e98:	4cc52f0e 	bge	r9,r19,5358 <___vfprintf_internal_r+0x1c90>
    3e9c:	01400074 	movhi	r5,1
    3ea0:	29525784 	addi	r5,r5,18782
    3ea4:	dc403b15 	stw	r17,236(sp)
    3ea8:	d9403515 	stw	r5,212(sp)
    3eac:	9823883a 	mov	r17,r19
    3eb0:	482d883a 	mov	r22,r9
    3eb4:	9027883a 	mov	r19,r18
    3eb8:	070001c4 	movi	fp,7
    3ebc:	8025883a 	mov	r18,r16
    3ec0:	dc002d17 	ldw	r16,180(sp)
    3ec4:	00000306 	br	3ed4 <___vfprintf_internal_r+0x80c>
    3ec8:	8c7ffc04 	addi	r17,r17,-16
    3ecc:	42000204 	addi	r8,r8,8
    3ed0:	b440130e 	bge	r22,r17,3f20 <___vfprintf_internal_r+0x858>
    3ed4:	01000074 	movhi	r4,1
    3ed8:	18c00404 	addi	r3,r3,16
    3edc:	10800044 	addi	r2,r2,1
    3ee0:	21125784 	addi	r4,r4,18782
    3ee4:	41000015 	stw	r4,0(r8)
    3ee8:	45800115 	stw	r22,4(r8)
    3eec:	d8c02015 	stw	r3,128(sp)
    3ef0:	d8801f15 	stw	r2,124(sp)
    3ef4:	e0bff40e 	bge	fp,r2,3ec8 <__alt_mem_VGA_Subsystem_Char_Buf_Subsystem_Onchip_SRAM+0xf7003ec8>
    3ef8:	d9801e04 	addi	r6,sp,120
    3efc:	b80b883a 	mov	r5,r23
    3f00:	8009883a 	mov	r4,r16
    3f04:	000b9280 	call	b928 <__sprint_r>
    3f08:	103ef31e 	bne	r2,zero,3ad8 <__alt_mem_VGA_Subsystem_Char_Buf_Subsystem_Onchip_SRAM+0xf7003ad8>
    3f0c:	8c7ffc04 	addi	r17,r17,-16
    3f10:	d8c02017 	ldw	r3,128(sp)
    3f14:	d8801f17 	ldw	r2,124(sp)
    3f18:	da000404 	addi	r8,sp,16
    3f1c:	b47fed16 	blt	r22,r17,3ed4 <__alt_mem_VGA_Subsystem_Char_Buf_Subsystem_Onchip_SRAM+0xf7003ed4>
    3f20:	9021883a 	mov	r16,r18
    3f24:	9825883a 	mov	r18,r19
    3f28:	8827883a 	mov	r19,r17
    3f2c:	dc403b17 	ldw	r17,236(sp)
    3f30:	d9403517 	ldw	r5,212(sp)
    3f34:	98c7883a 	add	r3,r19,r3
    3f38:	10800044 	addi	r2,r2,1
    3f3c:	41400015 	stw	r5,0(r8)
    3f40:	44c00115 	stw	r19,4(r8)
    3f44:	d8c02015 	stw	r3,128(sp)
    3f48:	d8801f15 	stw	r2,124(sp)
    3f4c:	010001c4 	movi	r4,7
    3f50:	2082c516 	blt	r4,r2,4a68 <___vfprintf_internal_r+0x13a0>
    3f54:	df002787 	ldb	fp,158(sp)
    3f58:	42000204 	addi	r8,r8,8
    3f5c:	e0000c26 	beq	fp,zero,3f90 <___vfprintf_internal_r+0x8c8>
    3f60:	d8801f17 	ldw	r2,124(sp)
    3f64:	d9002784 	addi	r4,sp,158
    3f68:	18c00044 	addi	r3,r3,1
    3f6c:	10800044 	addi	r2,r2,1
    3f70:	41000015 	stw	r4,0(r8)
    3f74:	01000044 	movi	r4,1
    3f78:	41000115 	stw	r4,4(r8)
    3f7c:	d8c02015 	stw	r3,128(sp)
    3f80:	d8801f15 	stw	r2,124(sp)
    3f84:	010001c4 	movi	r4,7
    3f88:	20825e16 	blt	r4,r2,4904 <___vfprintf_internal_r+0x123c>
    3f8c:	42000204 	addi	r8,r8,8
    3f90:	d8802c17 	ldw	r2,176(sp)
    3f94:	10000c26 	beq	r2,zero,3fc8 <___vfprintf_internal_r+0x900>
    3f98:	d8801f17 	ldw	r2,124(sp)
    3f9c:	d9002704 	addi	r4,sp,156
    3fa0:	18c00084 	addi	r3,r3,2
    3fa4:	10800044 	addi	r2,r2,1
    3fa8:	41000015 	stw	r4,0(r8)
    3fac:	01000084 	movi	r4,2
    3fb0:	41000115 	stw	r4,4(r8)
    3fb4:	d8c02015 	stw	r3,128(sp)
    3fb8:	d8801f15 	stw	r2,124(sp)
    3fbc:	010001c4 	movi	r4,7
    3fc0:	20825816 	blt	r4,r2,4924 <___vfprintf_internal_r+0x125c>
    3fc4:	42000204 	addi	r8,r8,8
    3fc8:	d9003017 	ldw	r4,192(sp)
    3fcc:	00802004 	movi	r2,128
    3fd0:	2081bb26 	beq	r4,r2,46c0 <___vfprintf_internal_r+0xff8>
    3fd4:	d9402a17 	ldw	r5,168(sp)
    3fd8:	d8802b17 	ldw	r2,172(sp)
    3fdc:	28adc83a 	sub	r22,r5,r2
    3fe0:	0580310e 	bge	zero,r22,40a8 <___vfprintf_internal_r+0x9e0>
    3fe4:	07000404 	movi	fp,16
    3fe8:	d8801f17 	ldw	r2,124(sp)
    3fec:	e584360e 	bge	fp,r22,50c8 <___vfprintf_internal_r+0x1a00>
    3ff0:	01400074 	movhi	r5,1
    3ff4:	29525384 	addi	r5,r5,18766
    3ff8:	dc402a15 	stw	r17,168(sp)
    3ffc:	d9402c15 	stw	r5,176(sp)
    4000:	b023883a 	mov	r17,r22
    4004:	04c001c4 	movi	r19,7
    4008:	a82d883a 	mov	r22,r21
    400c:	902b883a 	mov	r21,r18
    4010:	8025883a 	mov	r18,r16
    4014:	dc002d17 	ldw	r16,180(sp)
    4018:	00000306 	br	4028 <___vfprintf_internal_r+0x960>
    401c:	8c7ffc04 	addi	r17,r17,-16
    4020:	42000204 	addi	r8,r8,8
    4024:	e440110e 	bge	fp,r17,406c <___vfprintf_internal_r+0x9a4>
    4028:	18c00404 	addi	r3,r3,16
    402c:	10800044 	addi	r2,r2,1
    4030:	45000015 	stw	r20,0(r8)
    4034:	47000115 	stw	fp,4(r8)
    4038:	d8c02015 	stw	r3,128(sp)
    403c:	d8801f15 	stw	r2,124(sp)
    4040:	98bff60e 	bge	r19,r2,401c <__alt_mem_VGA_Subsystem_Char_Buf_Subsystem_Onchip_SRAM+0xf700401c>
    4044:	d9801e04 	addi	r6,sp,120
    4048:	b80b883a 	mov	r5,r23
    404c:	8009883a 	mov	r4,r16
    4050:	000b9280 	call	b928 <__sprint_r>
    4054:	103ea01e 	bne	r2,zero,3ad8 <__alt_mem_VGA_Subsystem_Char_Buf_Subsystem_Onchip_SRAM+0xf7003ad8>
    4058:	8c7ffc04 	addi	r17,r17,-16
    405c:	d8c02017 	ldw	r3,128(sp)
    4060:	d8801f17 	ldw	r2,124(sp)
    4064:	da000404 	addi	r8,sp,16
    4068:	e47fef16 	blt	fp,r17,4028 <__alt_mem_VGA_Subsystem_Char_Buf_Subsystem_Onchip_SRAM+0xf7004028>
    406c:	9021883a 	mov	r16,r18
    4070:	a825883a 	mov	r18,r21
    4074:	b02b883a 	mov	r21,r22
    4078:	882d883a 	mov	r22,r17
    407c:	dc402a17 	ldw	r17,168(sp)
    4080:	d9002c17 	ldw	r4,176(sp)
    4084:	1d87883a 	add	r3,r3,r22
    4088:	10800044 	addi	r2,r2,1
    408c:	41000015 	stw	r4,0(r8)
    4090:	45800115 	stw	r22,4(r8)
    4094:	d8c02015 	stw	r3,128(sp)
    4098:	d8801f15 	stw	r2,124(sp)
    409c:	010001c4 	movi	r4,7
    40a0:	20821016 	blt	r4,r2,48e4 <___vfprintf_internal_r+0x121c>
    40a4:	42000204 	addi	r8,r8,8
    40a8:	9080400c 	andi	r2,r18,256
    40ac:	10013a1e 	bne	r2,zero,4598 <___vfprintf_internal_r+0xed0>
    40b0:	d9402b17 	ldw	r5,172(sp)
    40b4:	d8801f17 	ldw	r2,124(sp)
    40b8:	44000015 	stw	r16,0(r8)
    40bc:	1947883a 	add	r3,r3,r5
    40c0:	10800044 	addi	r2,r2,1
    40c4:	41400115 	stw	r5,4(r8)
    40c8:	d8c02015 	stw	r3,128(sp)
    40cc:	d8801f15 	stw	r2,124(sp)
    40d0:	010001c4 	movi	r4,7
    40d4:	2081f516 	blt	r4,r2,48ac <___vfprintf_internal_r+0x11e4>
    40d8:	42000204 	addi	r8,r8,8
    40dc:	9480010c 	andi	r18,r18,4
    40e0:	90003226 	beq	r18,zero,41ac <___vfprintf_internal_r+0xae4>
    40e4:	d9403117 	ldw	r5,196(sp)
    40e8:	d8802917 	ldw	r2,164(sp)
    40ec:	28a1c83a 	sub	r16,r5,r2
    40f0:	04002e0e 	bge	zero,r16,41ac <___vfprintf_internal_r+0xae4>
    40f4:	04400404 	movi	r17,16
    40f8:	d8801f17 	ldw	r2,124(sp)
    40fc:	8c04c40e 	bge	r17,r16,5410 <___vfprintf_internal_r+0x1d48>
    4100:	01400074 	movhi	r5,1
    4104:	29525784 	addi	r5,r5,18782
    4108:	d9403515 	stw	r5,212(sp)
    410c:	048001c4 	movi	r18,7
    4110:	dcc02d17 	ldw	r19,180(sp)
    4114:	00000306 	br	4124 <___vfprintf_internal_r+0xa5c>
    4118:	843ffc04 	addi	r16,r16,-16
    411c:	42000204 	addi	r8,r8,8
    4120:	8c00130e 	bge	r17,r16,4170 <___vfprintf_internal_r+0xaa8>
    4124:	01000074 	movhi	r4,1
    4128:	18c00404 	addi	r3,r3,16
    412c:	10800044 	addi	r2,r2,1
    4130:	21125784 	addi	r4,r4,18782
    4134:	41000015 	stw	r4,0(r8)
    4138:	44400115 	stw	r17,4(r8)
    413c:	d8c02015 	stw	r3,128(sp)
    4140:	d8801f15 	stw	r2,124(sp)
    4144:	90bff40e 	bge	r18,r2,4118 <__alt_mem_VGA_Subsystem_Char_Buf_Subsystem_Onchip_SRAM+0xf7004118>
    4148:	d9801e04 	addi	r6,sp,120
    414c:	b80b883a 	mov	r5,r23
    4150:	9809883a 	mov	r4,r19
    4154:	000b9280 	call	b928 <__sprint_r>
    4158:	103e5f1e 	bne	r2,zero,3ad8 <__alt_mem_VGA_Subsystem_Char_Buf_Subsystem_Onchip_SRAM+0xf7003ad8>
    415c:	843ffc04 	addi	r16,r16,-16
    4160:	d8c02017 	ldw	r3,128(sp)
    4164:	d8801f17 	ldw	r2,124(sp)
    4168:	da000404 	addi	r8,sp,16
    416c:	8c3fed16 	blt	r17,r16,4124 <__alt_mem_VGA_Subsystem_Char_Buf_Subsystem_Onchip_SRAM+0xf7004124>
    4170:	d9403517 	ldw	r5,212(sp)
    4174:	1c07883a 	add	r3,r3,r16
    4178:	10800044 	addi	r2,r2,1
    417c:	41400015 	stw	r5,0(r8)
    4180:	44000115 	stw	r16,4(r8)
    4184:	d8c02015 	stw	r3,128(sp)
    4188:	d8801f15 	stw	r2,124(sp)
    418c:	010001c4 	movi	r4,7
    4190:	2080060e 	bge	r4,r2,41ac <___vfprintf_internal_r+0xae4>
    4194:	d9002d17 	ldw	r4,180(sp)
    4198:	d9801e04 	addi	r6,sp,120
    419c:	b80b883a 	mov	r5,r23
    41a0:	000b9280 	call	b928 <__sprint_r>
    41a4:	103e4c1e 	bne	r2,zero,3ad8 <__alt_mem_VGA_Subsystem_Char_Buf_Subsystem_Onchip_SRAM+0xf7003ad8>
    41a8:	d8c02017 	ldw	r3,128(sp)
    41ac:	d8803117 	ldw	r2,196(sp)
    41b0:	d9002917 	ldw	r4,164(sp)
    41b4:	1100010e 	bge	r2,r4,41bc <___vfprintf_internal_r+0xaf4>
    41b8:	2005883a 	mov	r2,r4
    41bc:	d9402f17 	ldw	r5,188(sp)
    41c0:	288b883a 	add	r5,r5,r2
    41c4:	d9402f15 	stw	r5,188(sp)
    41c8:	1801c01e 	bne	r3,zero,48cc <___vfprintf_internal_r+0x1204>
    41cc:	a8800007 	ldb	r2,0(r21)
    41d0:	d8001f15 	stw	zero,124(sp)
    41d4:	da000404 	addi	r8,sp,16
    41d8:	103d751e 	bne	r2,zero,37b0 <__alt_mem_VGA_Subsystem_Char_Buf_Subsystem_Onchip_SRAM+0xf70037b0>
    41dc:	a823883a 	mov	r17,r21
    41e0:	003d8b06 	br	3810 <__alt_mem_VGA_Subsystem_Char_Buf_Subsystem_Onchip_SRAM+0xf7003810>
    41e4:	8025883a 	mov	r18,r16
    41e8:	dc002903 	ldbu	r16,164(sp)
    41ec:	e011883a 	mov	r8,fp
    41f0:	84003fcc 	andi	r16,r16,255
    41f4:	8005e51e 	bne	r16,zero,598c <___vfprintf_internal_r+0x22c4>
    41f8:	94800414 	ori	r18,r18,16
    41fc:	9080080c 	andi	r2,r18,32
    4200:	10022b26 	beq	r2,zero,4ab0 <___vfprintf_internal_r+0x13e8>
    4204:	d9002e17 	ldw	r4,184(sp)
    4208:	d9402a17 	ldw	r5,168(sp)
    420c:	d8002785 	stb	zero,158(sp)
    4210:	20c00204 	addi	r3,r4,8
    4214:	24c00017 	ldw	r19,0(r4)
    4218:	25800117 	ldw	r22,4(r4)
    421c:	28042e16 	blt	r5,zero,52d8 <___vfprintf_internal_r+0x1c10>
    4220:	013fdfc4 	movi	r4,-129
    4224:	9d84b03a 	or	r2,r19,r22
    4228:	d8c02e15 	stw	r3,184(sp)
    422c:	9124703a 	and	r18,r18,r4
    4230:	0039883a 	mov	fp,zero
    4234:	103e801e 	bne	r2,zero,3c38 <__alt_mem_VGA_Subsystem_Char_Buf_Subsystem_Onchip_SRAM+0xf7003c38>
    4238:	d9002a17 	ldw	r4,168(sp)
    423c:	2002e01e 	bne	r4,zero,4dc0 <___vfprintf_internal_r+0x16f8>
    4240:	d8002a15 	stw	zero,168(sp)
    4244:	d8002b15 	stw	zero,172(sp)
    4248:	dc001e04 	addi	r16,sp,120
    424c:	003ef506 	br	3e24 <__alt_mem_VGA_Subsystem_Char_Buf_Subsystem_Onchip_SRAM+0xf7003e24>
    4250:	8025883a 	mov	r18,r16
    4254:	dc002903 	ldbu	r16,164(sp)
    4258:	e011883a 	mov	r8,fp
    425c:	84003fcc 	andi	r16,r16,255
    4260:	8005ba1e 	bne	r16,zero,594c <___vfprintf_internal_r+0x2284>
    4264:	01000074 	movhi	r4,1
    4268:	21123f04 	addi	r4,r4,18684
    426c:	d9003915 	stw	r4,228(sp)
    4270:	9080080c 	andi	r2,r18,32
    4274:	10006126 	beq	r2,zero,43fc <___vfprintf_internal_r+0xd34>
    4278:	d9402e17 	ldw	r5,184(sp)
    427c:	2cc00017 	ldw	r19,0(r5)
    4280:	2d800117 	ldw	r22,4(r5)
    4284:	29400204 	addi	r5,r5,8
    4288:	d9402e15 	stw	r5,184(sp)
    428c:	9080004c 	andi	r2,r18,1
    4290:	1001ac26 	beq	r2,zero,4944 <___vfprintf_internal_r+0x127c>
    4294:	9d84b03a 	or	r2,r19,r22
    4298:	10038526 	beq	r2,zero,50b0 <___vfprintf_internal_r+0x19e8>
    429c:	d8c02a17 	ldw	r3,168(sp)
    42a0:	00800c04 	movi	r2,48
    42a4:	d8802705 	stb	r2,156(sp)
    42a8:	dc402745 	stb	r17,157(sp)
    42ac:	d8002785 	stb	zero,158(sp)
    42b0:	90800094 	ori	r2,r18,2
    42b4:	18047916 	blt	r3,zero,549c <___vfprintf_internal_r+0x1dd4>
    42b8:	00bfdfc4 	movi	r2,-129
    42bc:	90a4703a 	and	r18,r18,r2
    42c0:	94800094 	ori	r18,r18,2
    42c4:	0039883a 	mov	fp,zero
    42c8:	d9003917 	ldw	r4,228(sp)
    42cc:	dc001e04 	addi	r16,sp,120
    42d0:	988003cc 	andi	r2,r19,15
    42d4:	b006973a 	slli	r3,r22,28
    42d8:	2085883a 	add	r2,r4,r2
    42dc:	9826d13a 	srli	r19,r19,4
    42e0:	10800003 	ldbu	r2,0(r2)
    42e4:	b02cd13a 	srli	r22,r22,4
    42e8:	843fffc4 	addi	r16,r16,-1
    42ec:	1ce6b03a 	or	r19,r3,r19
    42f0:	80800005 	stb	r2,0(r16)
    42f4:	9d84b03a 	or	r2,r19,r22
    42f8:	103ff51e 	bne	r2,zero,42d0 <__alt_mem_VGA_Subsystem_Char_Buf_Subsystem_Onchip_SRAM+0xf70042d0>
    42fc:	d8c02817 	ldw	r3,160(sp)
    4300:	1c07c83a 	sub	r3,r3,r16
    4304:	d8c02b15 	stw	r3,172(sp)
    4308:	003ec606 	br	3e24 <__alt_mem_VGA_Subsystem_Char_Buf_Subsystem_Onchip_SRAM+0xf7003e24>
    430c:	8025883a 	mov	r18,r16
    4310:	dc002903 	ldbu	r16,164(sp)
    4314:	e011883a 	mov	r8,fp
    4318:	84003fcc 	andi	r16,r16,255
    431c:	803e9626 	beq	r16,zero,3d78 <__alt_mem_VGA_Subsystem_Char_Buf_Subsystem_Onchip_SRAM+0xf7003d78>
    4320:	d8c02b03 	ldbu	r3,172(sp)
    4324:	d8c02785 	stb	r3,158(sp)
    4328:	003e9306 	br	3d78 <__alt_mem_VGA_Subsystem_Char_Buf_Subsystem_Onchip_SRAM+0xf7003d78>
    432c:	00c00044 	movi	r3,1
    4330:	d8c02905 	stb	r3,164(sp)
    4334:	00c00ac4 	movi	r3,43
    4338:	d8c02b05 	stb	r3,172(sp)
    433c:	ac400007 	ldb	r17,0(r21)
    4340:	003d4306 	br	3850 <__alt_mem_VGA_Subsystem_Char_Buf_Subsystem_Onchip_SRAM+0xf7003850>
    4344:	84000814 	ori	r16,r16,32
    4348:	ac400007 	ldb	r17,0(r21)
    434c:	003d4006 	br	3850 <__alt_mem_VGA_Subsystem_Char_Buf_Subsystem_Onchip_SRAM+0xf7003850>
    4350:	d8802e17 	ldw	r2,184(sp)
    4354:	8025883a 	mov	r18,r16
    4358:	d8002785 	stb	zero,158(sp)
    435c:	14000017 	ldw	r16,0(r2)
    4360:	e011883a 	mov	r8,fp
    4364:	14c00104 	addi	r19,r2,4
    4368:	80042d26 	beq	r16,zero,5420 <___vfprintf_internal_r+0x1d58>
    436c:	d8c02a17 	ldw	r3,168(sp)
    4370:	1803e416 	blt	r3,zero,5304 <___vfprintf_internal_r+0x1c3c>
    4374:	180d883a 	mov	r6,r3
    4378:	000b883a 	mov	r5,zero
    437c:	8009883a 	mov	r4,r16
    4380:	df003d15 	stw	fp,244(sp)
    4384:	0008b380 	call	8b38 <memchr>
    4388:	da003d17 	ldw	r8,244(sp)
    438c:	10046826 	beq	r2,zero,5530 <___vfprintf_internal_r+0x1e68>
    4390:	1405c83a 	sub	r2,r2,r16
    4394:	d8802b15 	stw	r2,172(sp)
    4398:	1003e016 	blt	r2,zero,531c <___vfprintf_internal_r+0x1c54>
    439c:	df002783 	ldbu	fp,158(sp)
    43a0:	d8802915 	stw	r2,164(sp)
    43a4:	dcc02e15 	stw	r19,184(sp)
    43a8:	d8002a15 	stw	zero,168(sp)
    43ac:	d8003215 	stw	zero,200(sp)
    43b0:	003ea206 	br	3e3c <__alt_mem_VGA_Subsystem_Char_Buf_Subsystem_Onchip_SRAM+0xf7003e3c>
    43b4:	8025883a 	mov	r18,r16
    43b8:	dc002903 	ldbu	r16,164(sp)
    43bc:	e011883a 	mov	r8,fp
    43c0:	84003fcc 	andi	r16,r16,255
    43c4:	803f8d26 	beq	r16,zero,41fc <__alt_mem_VGA_Subsystem_Char_Buf_Subsystem_Onchip_SRAM+0xf70041fc>
    43c8:	d8c02b03 	ldbu	r3,172(sp)
    43cc:	d8c02785 	stb	r3,158(sp)
    43d0:	003f8a06 	br	41fc <__alt_mem_VGA_Subsystem_Char_Buf_Subsystem_Onchip_SRAM+0xf70041fc>
    43d4:	8025883a 	mov	r18,r16
    43d8:	dc002903 	ldbu	r16,164(sp)
    43dc:	e011883a 	mov	r8,fp
    43e0:	84003fcc 	andi	r16,r16,255
    43e4:	8005661e 	bne	r16,zero,5980 <___vfprintf_internal_r+0x22b8>
    43e8:	01000074 	movhi	r4,1
    43ec:	21124404 	addi	r4,r4,18704
    43f0:	d9003915 	stw	r4,228(sp)
    43f4:	9080080c 	andi	r2,r18,32
    43f8:	103f9f1e 	bne	r2,zero,4278 <__alt_mem_VGA_Subsystem_Char_Buf_Subsystem_Onchip_SRAM+0xf7004278>
    43fc:	9080040c 	andi	r2,r18,16
    4400:	1002eb26 	beq	r2,zero,4fb0 <___vfprintf_internal_r+0x18e8>
    4404:	d8802e17 	ldw	r2,184(sp)
    4408:	002d883a 	mov	r22,zero
    440c:	14c00017 	ldw	r19,0(r2)
    4410:	10800104 	addi	r2,r2,4
    4414:	d8802e15 	stw	r2,184(sp)
    4418:	003f9c06 	br	428c <__alt_mem_VGA_Subsystem_Char_Buf_Subsystem_Onchip_SRAM+0xf700428c>
    441c:	d8802b07 	ldb	r2,172(sp)
    4420:	1002e11e 	bne	r2,zero,4fa8 <___vfprintf_internal_r+0x18e0>
    4424:	00c00044 	movi	r3,1
    4428:	d8c02905 	stb	r3,164(sp)
    442c:	00c00804 	movi	r3,32
    4430:	d8c02b05 	stb	r3,172(sp)
    4434:	ac400007 	ldb	r17,0(r21)
    4438:	003d0506 	br	3850 <__alt_mem_VGA_Subsystem_Char_Buf_Subsystem_Onchip_SRAM+0xf7003850>
    443c:	84000054 	ori	r16,r16,1
    4440:	ac400007 	ldb	r17,0(r21)
    4444:	003d0206 	br	3850 <__alt_mem_VGA_Subsystem_Char_Buf_Subsystem_Onchip_SRAM+0xf7003850>
    4448:	8025883a 	mov	r18,r16
    444c:	dc002903 	ldbu	r16,164(sp)
    4450:	e011883a 	mov	r8,fp
    4454:	84003fcc 	andi	r16,r16,255
    4458:	803de726 	beq	r16,zero,3bf8 <__alt_mem_VGA_Subsystem_Char_Buf_Subsystem_Onchip_SRAM+0xf7003bf8>
    445c:	d8c02b03 	ldbu	r3,172(sp)
    4460:	d8c02785 	stb	r3,158(sp)
    4464:	003de406 	br	3bf8 <__alt_mem_VGA_Subsystem_Char_Buf_Subsystem_Onchip_SRAM+0xf7003bf8>
    4468:	84001014 	ori	r16,r16,64
    446c:	ac400007 	ldb	r17,0(r21)
    4470:	003cf706 	br	3850 <__alt_mem_VGA_Subsystem_Char_Buf_Subsystem_Onchip_SRAM+0xf7003850>
    4474:	ac400007 	ldb	r17,0(r21)
    4478:	00801b04 	movi	r2,108
    447c:	88838f26 	beq	r17,r2,52bc <___vfprintf_internal_r+0x1bf4>
    4480:	84000414 	ori	r16,r16,16
    4484:	003cf206 	br	3850 <__alt_mem_VGA_Subsystem_Char_Buf_Subsystem_Onchip_SRAM+0xf7003850>
    4488:	8025883a 	mov	r18,r16
    448c:	dc002903 	ldbu	r16,164(sp)
    4490:	e011883a 	mov	r8,fp
    4494:	84003fcc 	andi	r16,r16,255
    4498:	80053f1e 	bne	r16,zero,5998 <___vfprintf_internal_r+0x22d0>
    449c:	9080080c 	andi	r2,r18,32
    44a0:	1002d226 	beq	r2,zero,4fec <___vfprintf_internal_r+0x1924>
    44a4:	d9002e17 	ldw	r4,184(sp)
    44a8:	d9402f17 	ldw	r5,188(sp)
    44ac:	20800017 	ldw	r2,0(r4)
    44b0:	2807d7fa 	srai	r3,r5,31
    44b4:	21000104 	addi	r4,r4,4
    44b8:	d9002e15 	stw	r4,184(sp)
    44bc:	11400015 	stw	r5,0(r2)
    44c0:	10c00115 	stw	r3,4(r2)
    44c4:	003cb806 	br	37a8 <__alt_mem_VGA_Subsystem_Char_Buf_Subsystem_Onchip_SRAM+0xf70037a8>
    44c8:	d8c02e17 	ldw	r3,184(sp)
    44cc:	d9002e17 	ldw	r4,184(sp)
    44d0:	8025883a 	mov	r18,r16
    44d4:	18800017 	ldw	r2,0(r3)
    44d8:	21000104 	addi	r4,r4,4
    44dc:	00c00044 	movi	r3,1
    44e0:	e011883a 	mov	r8,fp
    44e4:	d8c02915 	stw	r3,164(sp)
    44e8:	d8002785 	stb	zero,158(sp)
    44ec:	d8801405 	stb	r2,80(sp)
    44f0:	d9002e15 	stw	r4,184(sp)
    44f4:	d8c02b15 	stw	r3,172(sp)
    44f8:	d8002a15 	stw	zero,168(sp)
    44fc:	d8003215 	stw	zero,200(sp)
    4500:	dc001404 	addi	r16,sp,80
    4504:	0039883a 	mov	fp,zero
    4508:	003e5306 	br	3e58 <__alt_mem_VGA_Subsystem_Char_Buf_Subsystem_Onchip_SRAM+0xf7003e58>
    450c:	01000074 	movhi	r4,1
    4510:	21124404 	addi	r4,r4,18704
    4514:	0039883a 	mov	fp,zero
    4518:	d9003915 	stw	r4,228(sp)
    451c:	04401e04 	movi	r17,120
    4520:	003f6906 	br	42c8 <__alt_mem_VGA_Subsystem_Char_Buf_Subsystem_Onchip_SRAM+0xf70042c8>
    4524:	8025883a 	mov	r18,r16
    4528:	dc002903 	ldbu	r16,164(sp)
    452c:	e011883a 	mov	r8,fp
    4530:	84003fcc 	andi	r16,r16,255
    4534:	8005081e 	bne	r16,zero,5958 <___vfprintf_internal_r+0x2290>
    4538:	883d6126 	beq	r17,zero,3ac0 <__alt_mem_VGA_Subsystem_Char_Buf_Subsystem_Onchip_SRAM+0xf7003ac0>
    453c:	00c00044 	movi	r3,1
    4540:	d8c02915 	stw	r3,164(sp)
    4544:	dc401405 	stb	r17,80(sp)
    4548:	d8002785 	stb	zero,158(sp)
    454c:	003fe906 	br	44f4 <__alt_mem_VGA_Subsystem_Char_Buf_Subsystem_Onchip_SRAM+0xf70044f4>
    4550:	01400074 	movhi	r5,1
    4554:	29524404 	addi	r5,r5,18704
    4558:	d9403915 	stw	r5,228(sp)
    455c:	d8c02e15 	stw	r3,184(sp)
    4560:	1025883a 	mov	r18,r2
    4564:	04401e04 	movi	r17,120
    4568:	9d84b03a 	or	r2,r19,r22
    456c:	1000fc1e 	bne	r2,zero,4960 <___vfprintf_internal_r+0x1298>
    4570:	0039883a 	mov	fp,zero
    4574:	00800084 	movi	r2,2
    4578:	10803fcc 	andi	r2,r2,255
    457c:	00c00044 	movi	r3,1
    4580:	10c20f26 	beq	r2,r3,4dc0 <___vfprintf_internal_r+0x16f8>
    4584:	00c00084 	movi	r3,2
    4588:	10fd3326 	beq	r2,r3,3a58 <__alt_mem_VGA_Subsystem_Char_Buf_Subsystem_Onchip_SRAM+0xf7003a58>
    458c:	003e0b06 	br	3dbc <__alt_mem_VGA_Subsystem_Char_Buf_Subsystem_Onchip_SRAM+0xf7003dbc>
    4590:	d8c02017 	ldw	r3,128(sp)
    4594:	003e7106 	br	3f5c <__alt_mem_VGA_Subsystem_Char_Buf_Subsystem_Onchip_SRAM+0xf7003f5c>
    4598:	00801944 	movi	r2,101
    459c:	14407e0e 	bge	r2,r17,4798 <___vfprintf_internal_r+0x10d0>
    45a0:	d9003617 	ldw	r4,216(sp)
    45a4:	d9403817 	ldw	r5,224(sp)
    45a8:	000d883a 	mov	r6,zero
    45ac:	000f883a 	mov	r7,zero
    45b0:	d8c03c15 	stw	r3,240(sp)
    45b4:	da003d15 	stw	r8,244(sp)
    45b8:	00102340 	call	10234 <__eqdf2>
    45bc:	d8c03c17 	ldw	r3,240(sp)
    45c0:	da003d17 	ldw	r8,244(sp)
    45c4:	1000f71e 	bne	r2,zero,49a4 <___vfprintf_internal_r+0x12dc>
    45c8:	d8801f17 	ldw	r2,124(sp)
    45cc:	01000074 	movhi	r4,1
    45d0:	21124b04 	addi	r4,r4,18732
    45d4:	18c00044 	addi	r3,r3,1
    45d8:	10800044 	addi	r2,r2,1
    45dc:	41000015 	stw	r4,0(r8)
    45e0:	01000044 	movi	r4,1
    45e4:	41000115 	stw	r4,4(r8)
    45e8:	d8c02015 	stw	r3,128(sp)
    45ec:	d8801f15 	stw	r2,124(sp)
    45f0:	010001c4 	movi	r4,7
    45f4:	2082b816 	blt	r4,r2,50d8 <___vfprintf_internal_r+0x1a10>
    45f8:	42000204 	addi	r8,r8,8
    45fc:	d8802617 	ldw	r2,152(sp)
    4600:	d9403317 	ldw	r5,204(sp)
    4604:	11400216 	blt	r2,r5,4610 <___vfprintf_internal_r+0xf48>
    4608:	9080004c 	andi	r2,r18,1
    460c:	103eb326 	beq	r2,zero,40dc <__alt_mem_VGA_Subsystem_Char_Buf_Subsystem_Onchip_SRAM+0xf70040dc>
    4610:	d8803717 	ldw	r2,220(sp)
    4614:	d9003417 	ldw	r4,208(sp)
    4618:	d9403717 	ldw	r5,220(sp)
    461c:	1887883a 	add	r3,r3,r2
    4620:	d8801f17 	ldw	r2,124(sp)
    4624:	41000015 	stw	r4,0(r8)
    4628:	41400115 	stw	r5,4(r8)
    462c:	10800044 	addi	r2,r2,1
    4630:	d8c02015 	stw	r3,128(sp)
    4634:	d8801f15 	stw	r2,124(sp)
    4638:	010001c4 	movi	r4,7
    463c:	20832916 	blt	r4,r2,52e4 <___vfprintf_internal_r+0x1c1c>
    4640:	42000204 	addi	r8,r8,8
    4644:	d8803317 	ldw	r2,204(sp)
    4648:	143fffc4 	addi	r16,r2,-1
    464c:	043ea30e 	bge	zero,r16,40dc <__alt_mem_VGA_Subsystem_Char_Buf_Subsystem_Onchip_SRAM+0xf70040dc>
    4650:	04400404 	movi	r17,16
    4654:	d8801f17 	ldw	r2,124(sp)
    4658:	8c00880e 	bge	r17,r16,487c <___vfprintf_internal_r+0x11b4>
    465c:	01400074 	movhi	r5,1
    4660:	29525384 	addi	r5,r5,18766
    4664:	d9402c15 	stw	r5,176(sp)
    4668:	058001c4 	movi	r22,7
    466c:	dcc02d17 	ldw	r19,180(sp)
    4670:	00000306 	br	4680 <___vfprintf_internal_r+0xfb8>
    4674:	42000204 	addi	r8,r8,8
    4678:	843ffc04 	addi	r16,r16,-16
    467c:	8c00820e 	bge	r17,r16,4888 <___vfprintf_internal_r+0x11c0>
    4680:	18c00404 	addi	r3,r3,16
    4684:	10800044 	addi	r2,r2,1
    4688:	45000015 	stw	r20,0(r8)
    468c:	44400115 	stw	r17,4(r8)
    4690:	d8c02015 	stw	r3,128(sp)
    4694:	d8801f15 	stw	r2,124(sp)
    4698:	b0bff60e 	bge	r22,r2,4674 <__alt_mem_VGA_Subsystem_Char_Buf_Subsystem_Onchip_SRAM+0xf7004674>
    469c:	d9801e04 	addi	r6,sp,120
    46a0:	b80b883a 	mov	r5,r23
    46a4:	9809883a 	mov	r4,r19
    46a8:	000b9280 	call	b928 <__sprint_r>
    46ac:	103d0a1e 	bne	r2,zero,3ad8 <__alt_mem_VGA_Subsystem_Char_Buf_Subsystem_Onchip_SRAM+0xf7003ad8>
    46b0:	d8c02017 	ldw	r3,128(sp)
    46b4:	d8801f17 	ldw	r2,124(sp)
    46b8:	da000404 	addi	r8,sp,16
    46bc:	003fee06 	br	4678 <__alt_mem_VGA_Subsystem_Char_Buf_Subsystem_Onchip_SRAM+0xf7004678>
    46c0:	d9403117 	ldw	r5,196(sp)
    46c4:	d8802917 	ldw	r2,164(sp)
    46c8:	28adc83a 	sub	r22,r5,r2
    46cc:	05be410e 	bge	zero,r22,3fd4 <__alt_mem_VGA_Subsystem_Char_Buf_Subsystem_Onchip_SRAM+0xf7003fd4>
    46d0:	07000404 	movi	fp,16
    46d4:	d8801f17 	ldw	r2,124(sp)
    46d8:	e5838f0e 	bge	fp,r22,5518 <___vfprintf_internal_r+0x1e50>
    46dc:	01400074 	movhi	r5,1
    46e0:	29525384 	addi	r5,r5,18766
    46e4:	dc403015 	stw	r17,192(sp)
    46e8:	d9402c15 	stw	r5,176(sp)
    46ec:	b023883a 	mov	r17,r22
    46f0:	04c001c4 	movi	r19,7
    46f4:	a82d883a 	mov	r22,r21
    46f8:	902b883a 	mov	r21,r18
    46fc:	8025883a 	mov	r18,r16
    4700:	dc002d17 	ldw	r16,180(sp)
    4704:	00000306 	br	4714 <___vfprintf_internal_r+0x104c>
    4708:	8c7ffc04 	addi	r17,r17,-16
    470c:	42000204 	addi	r8,r8,8
    4710:	e440110e 	bge	fp,r17,4758 <___vfprintf_internal_r+0x1090>
    4714:	18c00404 	addi	r3,r3,16
    4718:	10800044 	addi	r2,r2,1
    471c:	45000015 	stw	r20,0(r8)
    4720:	47000115 	stw	fp,4(r8)
    4724:	d8c02015 	stw	r3,128(sp)
    4728:	d8801f15 	stw	r2,124(sp)
    472c:	98bff60e 	bge	r19,r2,4708 <__alt_mem_VGA_Subsystem_Char_Buf_Subsystem_Onchip_SRAM+0xf7004708>
    4730:	d9801e04 	addi	r6,sp,120
    4734:	b80b883a 	mov	r5,r23
    4738:	8009883a 	mov	r4,r16
    473c:	000b9280 	call	b928 <__sprint_r>
    4740:	103ce51e 	bne	r2,zero,3ad8 <__alt_mem_VGA_Subsystem_Char_Buf_Subsystem_Onchip_SRAM+0xf7003ad8>
    4744:	8c7ffc04 	addi	r17,r17,-16
    4748:	d8c02017 	ldw	r3,128(sp)
    474c:	d8801f17 	ldw	r2,124(sp)
    4750:	da000404 	addi	r8,sp,16
    4754:	e47fef16 	blt	fp,r17,4714 <__alt_mem_VGA_Subsystem_Char_Buf_Subsystem_Onchip_SRAM+0xf7004714>
    4758:	9021883a 	mov	r16,r18
    475c:	a825883a 	mov	r18,r21
    4760:	b02b883a 	mov	r21,r22
    4764:	882d883a 	mov	r22,r17
    4768:	dc403017 	ldw	r17,192(sp)
    476c:	d9002c17 	ldw	r4,176(sp)
    4770:	1d87883a 	add	r3,r3,r22
    4774:	10800044 	addi	r2,r2,1
    4778:	41000015 	stw	r4,0(r8)
    477c:	45800115 	stw	r22,4(r8)
    4780:	d8c02015 	stw	r3,128(sp)
    4784:	d8801f15 	stw	r2,124(sp)
    4788:	010001c4 	movi	r4,7
    478c:	20818e16 	blt	r4,r2,4dc8 <___vfprintf_internal_r+0x1700>
    4790:	42000204 	addi	r8,r8,8
    4794:	003e0f06 	br	3fd4 <__alt_mem_VGA_Subsystem_Char_Buf_Subsystem_Onchip_SRAM+0xf7003fd4>
    4798:	d9403317 	ldw	r5,204(sp)
    479c:	00800044 	movi	r2,1
    47a0:	18c00044 	addi	r3,r3,1
    47a4:	1141530e 	bge	r2,r5,4cf4 <___vfprintf_internal_r+0x162c>
    47a8:	dc401f17 	ldw	r17,124(sp)
    47ac:	00800044 	movi	r2,1
    47b0:	40800115 	stw	r2,4(r8)
    47b4:	8c400044 	addi	r17,r17,1
    47b8:	44000015 	stw	r16,0(r8)
    47bc:	d8c02015 	stw	r3,128(sp)
    47c0:	dc401f15 	stw	r17,124(sp)
    47c4:	008001c4 	movi	r2,7
    47c8:	14416b16 	blt	r2,r17,4d78 <___vfprintf_internal_r+0x16b0>
    47cc:	42000204 	addi	r8,r8,8
    47d0:	d8803717 	ldw	r2,220(sp)
    47d4:	d9003417 	ldw	r4,208(sp)
    47d8:	8c400044 	addi	r17,r17,1
    47dc:	10c7883a 	add	r3,r2,r3
    47e0:	40800115 	stw	r2,4(r8)
    47e4:	41000015 	stw	r4,0(r8)
    47e8:	d8c02015 	stw	r3,128(sp)
    47ec:	dc401f15 	stw	r17,124(sp)
    47f0:	008001c4 	movi	r2,7
    47f4:	14416916 	blt	r2,r17,4d9c <___vfprintf_internal_r+0x16d4>
    47f8:	45800204 	addi	r22,r8,8
    47fc:	d9003617 	ldw	r4,216(sp)
    4800:	d9403817 	ldw	r5,224(sp)
    4804:	000d883a 	mov	r6,zero
    4808:	000f883a 	mov	r7,zero
    480c:	d8c03c15 	stw	r3,240(sp)
    4810:	00102340 	call	10234 <__eqdf2>
    4814:	d8c03c17 	ldw	r3,240(sp)
    4818:	1000bc26 	beq	r2,zero,4b0c <___vfprintf_internal_r+0x1444>
    481c:	d9403317 	ldw	r5,204(sp)
    4820:	84000044 	addi	r16,r16,1
    4824:	8c400044 	addi	r17,r17,1
    4828:	28bfffc4 	addi	r2,r5,-1
    482c:	1887883a 	add	r3,r3,r2
    4830:	b0800115 	stw	r2,4(r22)
    4834:	b4000015 	stw	r16,0(r22)
    4838:	d8c02015 	stw	r3,128(sp)
    483c:	dc401f15 	stw	r17,124(sp)
    4840:	008001c4 	movi	r2,7
    4844:	14414316 	blt	r2,r17,4d54 <___vfprintf_internal_r+0x168c>
    4848:	b5800204 	addi	r22,r22,8
    484c:	d9003a17 	ldw	r4,232(sp)
    4850:	df0022c4 	addi	fp,sp,139
    4854:	8c400044 	addi	r17,r17,1
    4858:	20c7883a 	add	r3,r4,r3
    485c:	b7000015 	stw	fp,0(r22)
    4860:	b1000115 	stw	r4,4(r22)
    4864:	d8c02015 	stw	r3,128(sp)
    4868:	dc401f15 	stw	r17,124(sp)
    486c:	008001c4 	movi	r2,7
    4870:	14400e16 	blt	r2,r17,48ac <___vfprintf_internal_r+0x11e4>
    4874:	b2000204 	addi	r8,r22,8
    4878:	003e1806 	br	40dc <__alt_mem_VGA_Subsystem_Char_Buf_Subsystem_Onchip_SRAM+0xf70040dc>
    487c:	01000074 	movhi	r4,1
    4880:	21125384 	addi	r4,r4,18766
    4884:	d9002c15 	stw	r4,176(sp)
    4888:	d9002c17 	ldw	r4,176(sp)
    488c:	1c07883a 	add	r3,r3,r16
    4890:	44000115 	stw	r16,4(r8)
    4894:	41000015 	stw	r4,0(r8)
    4898:	10800044 	addi	r2,r2,1
    489c:	d8c02015 	stw	r3,128(sp)
    48a0:	d8801f15 	stw	r2,124(sp)
    48a4:	010001c4 	movi	r4,7
    48a8:	20be0b0e 	bge	r4,r2,40d8 <__alt_mem_VGA_Subsystem_Char_Buf_Subsystem_Onchip_SRAM+0xf70040d8>
    48ac:	d9002d17 	ldw	r4,180(sp)
    48b0:	d9801e04 	addi	r6,sp,120
    48b4:	b80b883a 	mov	r5,r23
    48b8:	000b9280 	call	b928 <__sprint_r>
    48bc:	103c861e 	bne	r2,zero,3ad8 <__alt_mem_VGA_Subsystem_Char_Buf_Subsystem_Onchip_SRAM+0xf7003ad8>
    48c0:	d8c02017 	ldw	r3,128(sp)
    48c4:	da000404 	addi	r8,sp,16
    48c8:	003e0406 	br	40dc <__alt_mem_VGA_Subsystem_Char_Buf_Subsystem_Onchip_SRAM+0xf70040dc>
    48cc:	d9002d17 	ldw	r4,180(sp)
    48d0:	d9801e04 	addi	r6,sp,120
    48d4:	b80b883a 	mov	r5,r23
    48d8:	000b9280 	call	b928 <__sprint_r>
    48dc:	103e3b26 	beq	r2,zero,41cc <__alt_mem_VGA_Subsystem_Char_Buf_Subsystem_Onchip_SRAM+0xf70041cc>
    48e0:	003c7d06 	br	3ad8 <__alt_mem_VGA_Subsystem_Char_Buf_Subsystem_Onchip_SRAM+0xf7003ad8>
    48e4:	d9002d17 	ldw	r4,180(sp)
    48e8:	d9801e04 	addi	r6,sp,120
    48ec:	b80b883a 	mov	r5,r23
    48f0:	000b9280 	call	b928 <__sprint_r>
    48f4:	103c781e 	bne	r2,zero,3ad8 <__alt_mem_VGA_Subsystem_Char_Buf_Subsystem_Onchip_SRAM+0xf7003ad8>
    48f8:	d8c02017 	ldw	r3,128(sp)
    48fc:	da000404 	addi	r8,sp,16
    4900:	003de906 	br	40a8 <__alt_mem_VGA_Subsystem_Char_Buf_Subsystem_Onchip_SRAM+0xf70040a8>
    4904:	d9002d17 	ldw	r4,180(sp)
    4908:	d9801e04 	addi	r6,sp,120
    490c:	b80b883a 	mov	r5,r23
    4910:	000b9280 	call	b928 <__sprint_r>
    4914:	103c701e 	bne	r2,zero,3ad8 <__alt_mem_VGA_Subsystem_Char_Buf_Subsystem_Onchip_SRAM+0xf7003ad8>
    4918:	d8c02017 	ldw	r3,128(sp)
    491c:	da000404 	addi	r8,sp,16
    4920:	003d9b06 	br	3f90 <__alt_mem_VGA_Subsystem_Char_Buf_Subsystem_Onchip_SRAM+0xf7003f90>
    4924:	d9002d17 	ldw	r4,180(sp)
    4928:	d9801e04 	addi	r6,sp,120
    492c:	b80b883a 	mov	r5,r23
    4930:	000b9280 	call	b928 <__sprint_r>
    4934:	103c681e 	bne	r2,zero,3ad8 <__alt_mem_VGA_Subsystem_Char_Buf_Subsystem_Onchip_SRAM+0xf7003ad8>
    4938:	d8c02017 	ldw	r3,128(sp)
    493c:	da000404 	addi	r8,sp,16
    4940:	003da106 	br	3fc8 <__alt_mem_VGA_Subsystem_Char_Buf_Subsystem_Onchip_SRAM+0xf7003fc8>
    4944:	d9402a17 	ldw	r5,168(sp)
    4948:	d8002785 	stb	zero,158(sp)
    494c:	283f0616 	blt	r5,zero,4568 <__alt_mem_VGA_Subsystem_Char_Buf_Subsystem_Onchip_SRAM+0xf7004568>
    4950:	00ffdfc4 	movi	r3,-129
    4954:	9d84b03a 	or	r2,r19,r22
    4958:	90e4703a 	and	r18,r18,r3
    495c:	103c3b26 	beq	r2,zero,3a4c <__alt_mem_VGA_Subsystem_Char_Buf_Subsystem_Onchip_SRAM+0xf7003a4c>
    4960:	0039883a 	mov	fp,zero
    4964:	003e5806 	br	42c8 <__alt_mem_VGA_Subsystem_Char_Buf_Subsystem_Onchip_SRAM+0xf70042c8>
    4968:	9080040c 	andi	r2,r18,16
    496c:	1001b326 	beq	r2,zero,503c <___vfprintf_internal_r+0x1974>
    4970:	d8c02e17 	ldw	r3,184(sp)
    4974:	d9002a17 	ldw	r4,168(sp)
    4978:	d8002785 	stb	zero,158(sp)
    497c:	18800104 	addi	r2,r3,4
    4980:	1cc00017 	ldw	r19,0(r3)
    4984:	002d883a 	mov	r22,zero
    4988:	2001b516 	blt	r4,zero,5060 <___vfprintf_internal_r+0x1998>
    498c:	00ffdfc4 	movi	r3,-129
    4990:	d8802e15 	stw	r2,184(sp)
    4994:	90e4703a 	and	r18,r18,r3
    4998:	983d0526 	beq	r19,zero,3db0 <__alt_mem_VGA_Subsystem_Char_Buf_Subsystem_Onchip_SRAM+0xf7003db0>
    499c:	0039883a 	mov	fp,zero
    49a0:	003d0806 	br	3dc4 <__alt_mem_VGA_Subsystem_Char_Buf_Subsystem_Onchip_SRAM+0xf7003dc4>
    49a4:	dc402617 	ldw	r17,152(sp)
    49a8:	0441d30e 	bge	zero,r17,50f8 <___vfprintf_internal_r+0x1a30>
    49ac:	dc403217 	ldw	r17,200(sp)
    49b0:	d8803317 	ldw	r2,204(sp)
    49b4:	1440010e 	bge	r2,r17,49bc <___vfprintf_internal_r+0x12f4>
    49b8:	1023883a 	mov	r17,r2
    49bc:	04400a0e 	bge	zero,r17,49e8 <___vfprintf_internal_r+0x1320>
    49c0:	d8801f17 	ldw	r2,124(sp)
    49c4:	1c47883a 	add	r3,r3,r17
    49c8:	44000015 	stw	r16,0(r8)
    49cc:	10800044 	addi	r2,r2,1
    49d0:	44400115 	stw	r17,4(r8)
    49d4:	d8c02015 	stw	r3,128(sp)
    49d8:	d8801f15 	stw	r2,124(sp)
    49dc:	010001c4 	movi	r4,7
    49e0:	20826516 	blt	r4,r2,5378 <___vfprintf_internal_r+0x1cb0>
    49e4:	42000204 	addi	r8,r8,8
    49e8:	88026116 	blt	r17,zero,5370 <___vfprintf_internal_r+0x1ca8>
    49ec:	d9003217 	ldw	r4,200(sp)
    49f0:	2463c83a 	sub	r17,r4,r17
    49f4:	04407b0e 	bge	zero,r17,4be4 <___vfprintf_internal_r+0x151c>
    49f8:	05800404 	movi	r22,16
    49fc:	d8801f17 	ldw	r2,124(sp)
    4a00:	b4419d0e 	bge	r22,r17,5078 <___vfprintf_internal_r+0x19b0>
    4a04:	01000074 	movhi	r4,1
    4a08:	21125384 	addi	r4,r4,18766
    4a0c:	d9002c15 	stw	r4,176(sp)
    4a10:	070001c4 	movi	fp,7
    4a14:	dcc02d17 	ldw	r19,180(sp)
    4a18:	00000306 	br	4a28 <___vfprintf_internal_r+0x1360>
    4a1c:	42000204 	addi	r8,r8,8
    4a20:	8c7ffc04 	addi	r17,r17,-16
    4a24:	b441970e 	bge	r22,r17,5084 <___vfprintf_internal_r+0x19bc>
    4a28:	18c00404 	addi	r3,r3,16
    4a2c:	10800044 	addi	r2,r2,1
    4a30:	45000015 	stw	r20,0(r8)
    4a34:	45800115 	stw	r22,4(r8)
    4a38:	d8c02015 	stw	r3,128(sp)
    4a3c:	d8801f15 	stw	r2,124(sp)
    4a40:	e0bff60e 	bge	fp,r2,4a1c <__alt_mem_VGA_Subsystem_Char_Buf_Subsystem_Onchip_SRAM+0xf7004a1c>
    4a44:	d9801e04 	addi	r6,sp,120
    4a48:	b80b883a 	mov	r5,r23
    4a4c:	9809883a 	mov	r4,r19
    4a50:	000b9280 	call	b928 <__sprint_r>
    4a54:	103c201e 	bne	r2,zero,3ad8 <__alt_mem_VGA_Subsystem_Char_Buf_Subsystem_Onchip_SRAM+0xf7003ad8>
    4a58:	d8c02017 	ldw	r3,128(sp)
    4a5c:	d8801f17 	ldw	r2,124(sp)
    4a60:	da000404 	addi	r8,sp,16
    4a64:	003fee06 	br	4a20 <__alt_mem_VGA_Subsystem_Char_Buf_Subsystem_Onchip_SRAM+0xf7004a20>
    4a68:	d9002d17 	ldw	r4,180(sp)
    4a6c:	d9801e04 	addi	r6,sp,120
    4a70:	b80b883a 	mov	r5,r23
    4a74:	000b9280 	call	b928 <__sprint_r>
    4a78:	103c171e 	bne	r2,zero,3ad8 <__alt_mem_VGA_Subsystem_Char_Buf_Subsystem_Onchip_SRAM+0xf7003ad8>
    4a7c:	d8c02017 	ldw	r3,128(sp)
    4a80:	df002787 	ldb	fp,158(sp)
    4a84:	da000404 	addi	r8,sp,16
    4a88:	003d3406 	br	3f5c <__alt_mem_VGA_Subsystem_Char_Buf_Subsystem_Onchip_SRAM+0xf7003f5c>
    4a8c:	9080040c 	andi	r2,r18,16
    4a90:	10016126 	beq	r2,zero,5018 <___vfprintf_internal_r+0x1950>
    4a94:	d9402e17 	ldw	r5,184(sp)
    4a98:	2cc00017 	ldw	r19,0(r5)
    4a9c:	29400104 	addi	r5,r5,4
    4aa0:	d9402e15 	stw	r5,184(sp)
    4aa4:	982dd7fa 	srai	r22,r19,31
    4aa8:	b005883a 	mov	r2,r22
    4aac:	003c5a06 	br	3c18 <__alt_mem_VGA_Subsystem_Char_Buf_Subsystem_Onchip_SRAM+0xf7003c18>
    4ab0:	9080040c 	andi	r2,r18,16
    4ab4:	10003526 	beq	r2,zero,4b8c <___vfprintf_internal_r+0x14c4>
    4ab8:	d8c02e17 	ldw	r3,184(sp)
    4abc:	d9002a17 	ldw	r4,168(sp)
    4ac0:	d8002785 	stb	zero,158(sp)
    4ac4:	18800104 	addi	r2,r3,4
    4ac8:	1cc00017 	ldw	r19,0(r3)
    4acc:	002d883a 	mov	r22,zero
    4ad0:	20003716 	blt	r4,zero,4bb0 <___vfprintf_internal_r+0x14e8>
    4ad4:	00ffdfc4 	movi	r3,-129
    4ad8:	d8802e15 	stw	r2,184(sp)
    4adc:	90e4703a 	and	r18,r18,r3
    4ae0:	0039883a 	mov	fp,zero
    4ae4:	983dd426 	beq	r19,zero,4238 <__alt_mem_VGA_Subsystem_Char_Buf_Subsystem_Onchip_SRAM+0xf7004238>
    4ae8:	00800244 	movi	r2,9
    4aec:	14fc5336 	bltu	r2,r19,3c3c <__alt_mem_VGA_Subsystem_Char_Buf_Subsystem_Onchip_SRAM+0xf7003c3c>
    4af0:	d8c02817 	ldw	r3,160(sp)
    4af4:	dc001dc4 	addi	r16,sp,119
    4af8:	9cc00c04 	addi	r19,r19,48
    4afc:	1c07c83a 	sub	r3,r3,r16
    4b00:	dcc01dc5 	stb	r19,119(sp)
    4b04:	d8c02b15 	stw	r3,172(sp)
    4b08:	003cc606 	br	3e24 <__alt_mem_VGA_Subsystem_Char_Buf_Subsystem_Onchip_SRAM+0xf7003e24>
    4b0c:	d8803317 	ldw	r2,204(sp)
    4b10:	143fffc4 	addi	r16,r2,-1
    4b14:	043f4d0e 	bge	zero,r16,484c <__alt_mem_VGA_Subsystem_Char_Buf_Subsystem_Onchip_SRAM+0xf700484c>
    4b18:	07000404 	movi	fp,16
